 canvas

 Timestamp is 5b448e7a (Tue Jul 10 13:46:18 2018)

 Preferred load address is 10000000

 Start         Length     Name                   Class
 0001:00000000 00000190H .text$di                CODE
 0001:00000190 0002d6b0H .text$mn                CODE
 0001:0002d840 00000a60H .text$x                 CODE
 0001:0002e2a0 00000273H .text$yd                CODE
 0002:00000000 00000480H .idata$5                DATA
 0002:00000480 00000004H .00cfg                  DATA
 0002:00000484 00000004H .CRT$XCA                DATA
 0002:00000488 0000000cH .CRT$XCC                DATA
 0002:00000494 00000008H .CRT$XCL                DATA
 0002:0000049c 0000002cH .CRT$XCU                DATA
 0002:000004c8 00000004H .CRT$XCZ                DATA
 0002:000004cc 00000004H .CRT$XIA                DATA
 0002:000004d0 00000018H .CRT$XIC                DATA
 0002:000004e8 00000004H .CRT$XIZ                DATA
 0002:000004ec 00000004H .CRT$XLA                DATA
 0002:000004f0 00000004H .CRT$XLZ                DATA
 0002:000004f4 00000004H .CRT$XPA                DATA
 0002:000004f8 00000008H .CRT$XPX                DATA
 0002:00000500 00000004H .CRT$XPXA               DATA
 0002:00000504 00000004H .CRT$XPZ                DATA
 0002:00000508 00000004H .CRT$XTA                DATA
 0002:0000050c 00000004H .CRT$XTZ                DATA
 0002:00000510 00010534H .rdata                  DATA
 0002:00010a44 00000018H .rdata$T                DATA
 0002:00010a5c 00000264H .rdata$r                DATA
 0002:00010cc0 000000e8H .rdata$sxdata           DATA
 0002:00010da8 00000480H .rdata$zzzdbg           DATA
 0002:00011228 00000004H .rtc$IAA                DATA
 0002:0001122c 00000004H .rtc$IZZ                DATA
 0002:00011230 00000004H .rtc$TAA                DATA
 0002:00011234 00000004H .rtc$TZZ                DATA
 0002:00011238 000010ccH .xdata$x                DATA
 0002:00012304 00000020H .didat$2                DATA
 0002:00012324 00000020H .didat$3                DATA
 0002:00012344 00000198H .didat$4                DATA
 0002:000124dc 00001978H .didat$6                DATA
 0002:00013e54 0000019cH .didat$7                DATA
 0002:00013ff0 00000050H .edata                  DATA
 0002:00014040 000000c8H .idata$2                DATA
 0002:00014108 00000014H .idata$3                DATA
 0002:0001411c 00000480H .idata$4                DATA
 0002:0001459c 00001786H .idata$6                DATA
 0003:00000000 000009d0H .data                   DATA
 0003:000009d0 000000f8H .data$r                 DATA
 0003:00000ac8 00000198H .didat$5                DATA
 0003:00000c60 00000e28H .bss                    DATA
 0004:00000000 00000094H .gfids$x                DATA
 0004:00000094 000000b8H .gfids$y                DATA
 0005:00000000 00000004H .tls                    DATA
 0005:00000004 00000004H .tls$                   DATA
 0005:00000008 00000001H .tls$ZZZ                DATA
 0006:00000000 00000060H .rsrc$01                DATA
 0006:00000060 00000180H .rsrc$02                DATA

  Address         Publics by Value              Rva+Base       Lib:Object

 0000:00000000       ___guard_fids_count        00000000     <absolute>
 0000:00000000       ___guard_longjmp_count     00000000     <absolute>
 0000:00000000       ___guard_longjmp_table     00000000     <absolute>
 0000:00000000       __except_list              00000000     <absolute>
 0000:00000000       ___guard_iat_table         00000000     <absolute>
 0000:00000000       ___guard_iat_count         00000000     <absolute>
 0000:00000000       ___guard_fids_table        00000000     <absolute>
 0000:00000000       ___dynamic_value_reloc_table 00000000     <absolute>
 0000:0000002c       __tls_array                0000002c     <absolute>
 0000:0000003a       ___safe_se_handler_count   0000003a     <absolute>
 0000:00000100       ___guard_flags             00000100     <absolute>
 0000:00000000       ___ImageBase               10000000     <linker-defined>
 0001:00000190       ??1locale@std@@QAE@XZ      10001190 f i Backend.obj
 0001:000001b0       ??1ObjectWrap@Nan@@UAE@XZ  100011b0 f i Backend.obj
 0001:00000260       ?Ref@ObjectWrap@Nan@@MAEXXZ 10001260 f i Backend.obj
 0001:00000290       ?Unref@ObjectWrap@Nan@@MAEXXZ 10001290 f i Backend.obj
 0001:00000320       ?WeakCallback@ObjectWrap@Nan@@CAXABV?$WeakCallbackInfo@VObjectWrap@Nan@@@v8@@@Z 10001320 f i Backend.obj
 0001:00000390       ??_GObjectWrap@Nan@@UAEPAXI@Z 10001390 f i Backend.obj
 0001:00000390       ??_EObjectWrap@Nan@@UAEPAXI@Z 10001390 f i * CIL library *:* CIL module *
 0001:000003b0       ?getFormat@Backend@@UAE?AW4_cairo_format@@XZ 100013b0 f i Backend.obj
 0001:000003c0       ??0Backend@@IAE@V?$basic_string@DU?$char_traits@D@std@@V?$allocator@D@2@@std@@HH@Z 100013c0 f   Backend.obj
 0001:00000470       ??_GBackend@@UAEPAXI@Z     10001470 f i Backend.obj
 0001:00000470       ??_EBackend@@UAEPAXI@Z     10001470 f i * CIL library *:* CIL module *
 0001:000004c0       ?recreateSurface@Backend@@UAEPAU_cairo_surface@@XZ 100014c0 f   Backend.obj
 0001:000004f0       ?getName@Backend@@QAE?AV?$basic_string@DU?$char_traits@D@std@@V?$allocator@D@2@@std@@XZ 100014f0 f   Backend.obj
 0001:00000530       ?setWidth@Backend@@UAEXH@Z 10001530 f   Backend.obj
 0001:00000540       ?setHeight@Backend@@UAEXH@Z 10001540 f   Backend.obj
 0001:00000550       ??1?$basic_string@DU?$char_traits@D@std@@V?$allocator@D@2@@std@@QAE@XZ 10001550 f i Backend.obj
 0001:000005c0       ?assign@?$basic_string@DU?$char_traits@D@std@@V?$allocator@D@2@@std@@QAEAAV12@PBDI@Z 100015c0 f i Backend.obj
 0001:000006c0       ?assign@?$basic_string@DU?$char_traits@D@std@@V?$allocator@D@2@@std@@QAEAAV12@ABV12@II@Z 100016c0 f i Backend.obj
 0001:000007d0       ?erase@?$basic_string@DU?$char_traits@D@std@@V?$allocator@D@2@@std@@QAEAAV12@II@Z 100017d0 f i Backend.obj
 0001:00000870       ?_Copy@?$basic_string@DU?$char_traits@D@std@@V?$allocator@D@2@@std@@QAEXII@Z 10001870 f i Backend.obj
 0001:00000a60       ?NewInstance@Nan@@YA?AV?$MaybeLocal@VObject@v8@@@v8@@V?$Local@VObjectTemplate@v8@@@3@@Z 10001a60 f i ImageBackend.obj
 0001:00000af0       ?New@?$Factory@VFunctionTemplate@v8@@@imp@Nan@@SA?AV?$Local@VFunctionTemplate@v8@@@v8@@P6AXABV?$FunctionCallbackInfo@VValue@v8@@@3@@ZV?$Local@VValue@v8@@@5@V?$Local@VSignature@v8@@@5@@Z 10001af0 f i ImageBackend.obj
 0001:00000c30       ?AdjustExternalMemory@Nan@@YAHH@Z 10001c30 f i ImageBackend.obj
 0001:00000cd0       ??1EscapableHandleScope@Nan@@QAE@XZ 10001cd0 f i Canvas.obj
 0001:00000cd0       ??1HandleScope@Nan@@QAE@XZ 10001cd0 f i ImageBackend.obj
 0001:00000ce0       ?Wrap@ObjectWrap@Nan@@IAEXV?$Local@VObject@v8@@@v8@@@Z 10001ce0 f i ImageBackend.obj
 0001:00000d90       ??0ImageBackend@@QAE@HH@Z  10001d90 f   ImageBackend.obj
 0001:00000de0       ??_GImageBackend@@UAEPAXI@Z 10001de0 f i ImageBackend.obj
 0001:00000de0       ??_EImageBackend@@UAEPAXI@Z 10001de0 f i * CIL library *:* CIL module *
 0001:00000e00       ??1ImageBackend@@UAE@XZ    10001e00 f   ImageBackend.obj
 0001:00000ed0       ?createSurface@ImageBackend@@EAEPAU_cairo_surface@@XZ 10001ed0 f   ImageBackend.obj
 0001:00000fa0       ?recreateSurface@ImageBackend@@EAEPAU_cairo_surface@@XZ 10001fa0 f   ImageBackend.obj
 0001:00001030       ?getFormat@ImageBackend@@UAE?AW4_cairo_format@@XZ 10002030 f   ImageBackend.obj
 0001:00001040       ?Initialize@ImageBackend@@SAXV?$Local@VObject@v8@@@v8@@@Z 10002040 f   ImageBackend.obj
 0001:00001180       ?New@ImageBackend@@SAXABV?$FunctionCallbackInfo@VValue@v8@@@Nan@@@Z 10002180 f   ImageBackend.obj
 0001:000012e0       ??0PdfBackend@@QAE@HH@Z    100022e0 f   PdfBackend.obj
 0001:00001360       ??_EPdfBackend@@UAEPAXI@Z  10002360 f i * CIL library *:* CIL module *
 0001:00001360       ??_GPdfBackend@@UAEPAXI@Z  10002360 f i PdfBackend.obj
 0001:00001380       ??1PdfBackend@@UAE@XZ      10002380 f   PdfBackend.obj
 0001:00001440       ?createSurface@PdfBackend@@EAEPAU_cairo_surface@@XZ 10002440 f   PdfBackend.obj
 0001:000014d0       ?recreateSurface@PdfBackend@@EAEPAU_cairo_surface@@XZ 100024d0 f   PdfBackend.obj
 0001:00001510       ?Initialize@PdfBackend@@SAXV?$Local@VObject@v8@@@v8@@@Z 10002510 f   PdfBackend.obj
 0001:00001650       ?New@PdfBackend@@SAXABV?$FunctionCallbackInfo@VValue@v8@@@Nan@@@Z 10002650 f   PdfBackend.obj
 0001:000017c0       ??0SvgBackend@@QAE@HH@Z    100027c0 f   SvgBackend.obj
 0001:00001840       ??_GSvgBackend@@UAEPAXI@Z  10002840 f i SvgBackend.obj
 0001:00001840       ??_ESvgBackend@@UAEPAXI@Z  10002840 f i * CIL library *:* CIL module *
 0001:00001860       ??1SvgBackend@@UAE@XZ      10002860 f   SvgBackend.obj
 0001:00001920       ?createSurface@SvgBackend@@EAEPAU_cairo_surface@@XZ 10002920 f   SvgBackend.obj
 0001:000019b0       ?recreateSurface@SvgBackend@@EAEPAU_cairo_surface@@XZ 100029b0 f   SvgBackend.obj
 0001:00001a00       ?Initialize@SvgBackend@@SAXV?$Local@VObject@v8@@@v8@@@Z 10002a00 f   SvgBackend.obj
 0001:00001b40       ?New@SvgBackend@@SAXABV?$FunctionCallbackInfo@VValue@v8@@@Nan@@@Z 10002b40 f   SvgBackend.obj
 0001:00001cb0       ?Initialize@Backends@@SAXV?$Local@VObject@v8@@@v8@@@Z 10002cb0 f   Backends.obj
 0001:00001ee0       ?Set@Nan@@YA?AV?$Maybe@_N@v8@@V?$Local@VObject@v8@@@3@V?$Local@VValue@v8@@@3@1@Z 10002ee0 f i Canvas.obj
 0001:00001f60       ?Call@Nan@@YA?AV?$MaybeLocal@VValue@v8@@@v8@@V?$Local@VFunction@v8@@@3@V?$Local@VObject@v8@@@3@HQAV?$Local@VValue@v8@@@3@@Z 10002f60 f i Canvas.obj
 0001:00002000       ?convert@?$ToFactory@VUint32@v8@@@imp@Nan@@SA?AV?$MaybeLocal@VUint32@v8@@@v8@@V?$Local@VValue@v8@@@5@@Z 10003000 f i Canvas.obj
 0001:00002090       ??$New@VNumber@v8@@N@Nan@@YA?AV?$Local@VNumber@v8@@@v8@@N@Z 10003090 f i CanvasRenderingContext2d.obj
 0001:00002090       ?New@?$Factory@VNumber@v8@@@imp@Nan@@SA?AV?$Local@VNumber@v8@@@v8@@N@Z 10003090 f i Canvas.obj
 0001:000020c0       ??0AsyncResource@Nan@@QAE@PBDV?$Local@VObject@v8@@@v8@@@Z 100030c0 f i Canvas.obj
 0001:00002160       ??1AsyncResource@Nan@@QAE@XZ 10003160 f i Canvas.obj
 0001:000021b0       ?ThrowError@Nan@@YAXPBD@Z  100031b0 f i Canvas.obj
 0001:00002250       ?ThrowRangeError@Nan@@YAXPBD@Z 10003250 f i Canvas.obj
 0001:000022f0       ?ThrowTypeError@Nan@@YAXPBD@Z 100032f0 f i Canvas.obj
 0001:00002390       ?ThrowError@Nan@@YAXV?$Local@VValue@v8@@@v8@@@Z 10003390 f i Canvas.obj
 0001:000023b0       ?CopyBuffer@Nan@@YA?AV?$MaybeLocal@VObject@v8@@@v8@@PBDI@Z 100033b0 f i Canvas.obj
 0001:00002400       ?MakeCallback@Nan@@YA?AV?$Local@VValue@v8@@@v8@@V?$Local@VObject@v8@@@3@V?$Local@VFunction@v8@@@3@HPAV23@@Z 10003400 f i Canvas.obj
 0001:000024c0       ?Call@Callback@Nan@@QBE?AV?$Local@VValue@v8@@@v8@@HQAV34@@Z 100034c0 f i Canvas.obj
 0001:000025a0       ?Call_@Callback@Nan@@ABE?AV?$MaybeLocal@VValue@v8@@@v8@@PAVIsolate@4@V?$Local@VObject@v8@@@4@HQAV?$Local@VValue@v8@@@4@PAVAsyncResource@2@@Z 100035a0 f i Canvas.obj
 0001:00002660       ?SetPrototypeMethod@Nan@@YAXV?$Local@VFunctionTemplate@v8@@@v8@@PBDP6AXABV?$FunctionCallbackInfo@VValue@v8@@@1@@Z@Z 10003660 f i Canvas.obj
 0001:00002740       ?SetAccessor@Nan@@YAXV?$Local@VObjectTemplate@v8@@@v8@@V?$Local@VString@v8@@@3@P6AX1ABV?$PropertyCallbackInfo@VValue@v8@@@1@@ZP6AX1V?$Local@VValue@v8@@@3@ABV?$PropertyCallbackInfo@X@1@@Z4W4AccessControl@3@W4PropertyAttribute@3@V?$Local@VAccessorSignature@v8@@@3@@Z 10003740 f i Canvas.obj
 0001:00002870       ?surface@Canvas@@QAEPAU_cairo_surface@@XZ 10003870 f i Canvas.obj
 0001:00002890       ___except_validate_context_record 10003890 f   libvcruntime:jbcxrval.obj
 0001:00002890       ?stream_pdf_free@@YAXPADPAX@Z 10003890 f   Canvas.obj
 0001:00002890       ___except_validate_jump_buffer 10003890 f   libvcruntime:jbcxrval.obj
 0001:00002890       ?init_closure_destination@@YAXPAUjpeg_compress_struct@@@Z 10003890 f   Canvas.obj
 0001:00002890       @_guard_check_icall_nop@4  10003890 f   LIBCMT:guard_support.obj
 0001:00002a40       ?setjmp_wrapper@@YA_NPAUpng_struct_def@@@Z 10003a40 f   Canvas.obj
 0001:00002f90       ?empty_closure_output_buffer@@YAEPAUjpeg_compress_struct@@@Z 10003f90 f   Canvas.obj
 0001:000030a0       ?term_closure_destination@@YAXPAUjpeg_compress_struct@@@Z 100040a0 f   Canvas.obj
 0001:000031f0       ?write_to_jpeg_stream@@YAXPAU_cairo_surface@@HH_NPAUclosure_t@@@Z 100041f0 f   Canvas.obj
 0001:000033c0       ?Initialize@Canvas@@SAXV?$Local@VObject@v8@@@v8@@@Z 100043c0 f   Canvas.obj
 0001:000039a0       ?New@Canvas@@SAXABV?$FunctionCallbackInfo@VValue@v8@@@Nan@@@Z 100049a0 f   Canvas.obj
 0001:00003e20       ?GetType@Canvas@@SAXV?$Local@VString@v8@@@v8@@ABV?$PropertyCallbackInfo@VValue@v8@@@Nan@@@Z 10004e20 f   Canvas.obj
 0001:00003e80       ?GetStride@Canvas@@SAXV?$Local@VString@v8@@@v8@@ABV?$PropertyCallbackInfo@VValue@v8@@@Nan@@@Z 10004e80 f   Canvas.obj
 0001:00003ee0       ?GetWidth@Canvas@@SAXV?$Local@VString@v8@@@v8@@ABV?$PropertyCallbackInfo@VValue@v8@@@Nan@@@Z 10004ee0 f   Canvas.obj
 0001:00003f30       ?SetWidth@Canvas@@SAXV?$Local@VString@v8@@@v8@@V?$Local@VValue@v8@@@3@ABV?$PropertyCallbackInfo@X@Nan@@@Z 10004f30 f   Canvas.obj
 0001:00003fb0       ?GetHeight@Canvas@@SAXV?$Local@VString@v8@@@v8@@ABV?$PropertyCallbackInfo@VValue@v8@@@Nan@@@Z 10004fb0 f   Canvas.obj
 0001:00004000       ?SetHeight@Canvas@@SAXV?$Local@VString@v8@@@v8@@V?$Local@VValue@v8@@@3@ABV?$PropertyCallbackInfo@X@Nan@@@Z 10005000 f   Canvas.obj
 0001:00004080       ?ToBufferAsync@Canvas@@SAXPAUuv_work_s@@@Z 10005080 f   Canvas.obj
 0001:000040f0       ?ToBufferAsyncAfter@Canvas@@SAXPAUuv_work_s@@@Z 100050f0 f   Canvas.obj
 0001:00004290       ?ToBuffer@Canvas@@SAXABV?$FunctionCallbackInfo@VValue@v8@@@Nan@@@Z 10005290 f   Canvas.obj
 0001:00004970       ??1TryCatch@Nan@@QAE@XZ    10005970 f i Canvas.obj
 0001:00004aa0       ?StreamPNGSync@Canvas@@SAXABV?$FunctionCallbackInfo@VValue@v8@@@Nan@@@Z 10005aa0 f   Canvas.obj
 0001:000051c0       ?canvas_write_to_pdf_stream@@YA?AW4_cairo_status@@PAU_cairo_surface@@P6A?AW41@PAXPBEI@Z1@Z 100061c0 f   Canvas.obj
 0001:00005220       ?StreamPDFSync@Canvas@@SAXABV?$FunctionCallbackInfo@VValue@v8@@@Nan@@@Z 10006220 f   Canvas.obj
 0001:00005440       ?StreamJPEGSync@Canvas@@SAXABV?$FunctionCallbackInfo@VValue@v8@@@Nan@@@Z 10006440 f   Canvas.obj
 0001:00005680       ?str_value@@YAPADV?$Local@VValue@v8@@@v8@@PBD_N@Z 10006680 f   Canvas.obj
 0001:00005720       ?RegisterFont@Canvas@@SAXABV?$FunctionCallbackInfo@VValue@v8@@@Nan@@@Z 10006720 f   Canvas.obj
 0001:00005a60       ??_ECanvas@@EAEPAXI@Z      10006a60 f i * CIL library *:* CIL module *
 0001:00005a60       ??_GCanvas@@EAEPAXI@Z      10006a60 f i Canvas.obj
 0001:00005aa0       ?_init_font_face_list@@YA?AV?$vector@VFontFace@@V?$allocator@VFontFace@@@std@@@std@@XZ 10006aa0 f   Canvas.obj
 0001:00005ad0       ?GetStyleFromCSSString@Canvas@@SA?AW4PangoStyle@@PBD@Z 10006ad0 f   Canvas.obj
 0001:00005b80       ?GetWeightFromCSSString@Canvas@@SA?AW4PangoWeight@@PBD@Z 10006b80 f   Canvas.obj
 0001:00005e20       ?ResolveFontDescription@Canvas@@SAPAU_PangoFontDescription@@PBU2@@Z 10006e20 f   Canvas.obj
 0001:00006020       ?resurface@Canvas@@QAEXV?$Local@VObject@v8@@@v8@@@Z 10007020 f   Canvas.obj
 0001:00006150       ?Error@Canvas@@SA?AV?$Local@VValue@v8@@@v8@@W4_cairo_status@@@Z 10007150 f   Canvas.obj
 0001:000061a0       ??0?$TypedArrayContents@E@Nan@@QAE@V?$Local@VValue@v8@@@v8@@@Z 100071a0 f i Canvas.obj
 0001:00006260       ?push_back@?$vector@VFontFace@@V?$allocator@VFontFace@@@std@@@std@@QAEXABVFontFace@@@Z 10007260 f i Canvas.obj
 0001:000062e0       ?_Tidy@?$vector@VFontFace@@V?$allocator@VFontFace@@@std@@@std@@IAEXXZ 100072e0 f i Canvas.obj
 0001:00006360       ?_Reserve@?$vector@VFontFace@@V?$allocator@VFontFace@@@std@@@std@@IAEXI@Z 10007360 f i Canvas.obj
 0001:000063d0       ?_Traits_compare@?$basic_string@DU?$char_traits@D@std@@V?$allocator@D@2@@std@@SAHQBDI0I@Z 100073d0 f i Canvas.obj
 0001:00006460       ?_Reallocate@?$vector@VFontFace@@V?$allocator@VFontFace@@@std@@@std@@IAEXI@Z 10007460 f i Canvas.obj
 0001:00006570       ??$New@VString@v8@@V?$basic_string@DU?$char_traits@D@std@@V?$allocator@D@2@@std@@@Nan@@YA?AV?$MaybeLocal@VString@v8@@@v8@@V?$basic_string@DU?$char_traits@D@std@@V?$allocator@D@2@@std@@@Z 10007570 f i Canvas.obj
 0001:00006600       ??$New@VUint32@v8@@H@Nan@@YA?AV?$Local@VUint32@v8@@@v8@@H@Z 10007600 f i Canvas.obj
 0001:00006640       ??$SetMethod@VFunctionTemplate@v8@@VLocal@2@@Nan@@YAXV?$Local@VFunctionTemplate@v8@@@v8@@PBDP6AXABV?$FunctionCallbackInfo@VValue@v8@@@0@@Z@Z 10007640 f i Canvas.obj
 0001:00006700       ??$New@VFunctionTemplate@v8@@V?$NonCopyablePersistentTraits@VFunctionTemplate@v8@@@2@@Nan@@YA?AV?$Local@VFunctionTemplate@v8@@@v8@@ABV?$Persistent@VFunctionTemplate@v8@@V?$NonCopyablePersistentTraits@VFunctionTemplate@v8@@@2@@0@@Z 10007700 f i Canvas.obj
 0001:00006730       ??$Unwrap@VPattern@@@ObjectWrap@Nan@@SAPAVPattern@@V?$Local@VObject@v8@@@v8@@@Z 10007730 f i CanvasRenderingContext2d.obj
 0001:00006730       ??$Unwrap@VCanvas@@@ObjectWrap@Nan@@SAPAVCanvas@@V?$Local@VObject@v8@@@v8@@@Z 10007730 f i Canvas.obj
 0001:00006730       ??$Unwrap@VGradient@@@ObjectWrap@Nan@@SAPAVGradient@@V?$Local@VObject@v8@@@v8@@@Z 10007730 f i CanvasGradient.obj
 0001:00006730       ??$Unwrap@VImage@@@ObjectWrap@Nan@@SAPAVImage@@V?$Local@VObject@v8@@@v8@@@Z 10007730 f i CanvasPattern.obj
 0001:00006730       ??$Unwrap@VImageData@@@ObjectWrap@Nan@@SAPAVImageData@@V?$Local@VObject@v8@@@v8@@@Z 10007730 f i CanvasRenderingContext2d.obj
 0001:00006730       ??$Unwrap@VBackend@@@ObjectWrap@Nan@@SAPAVBackend@@V?$Local@VObject@v8@@@v8@@@Z 10007730 f i Canvas.obj
 0001:00006730       ??$Unwrap@VContext2d@@@ObjectWrap@Nan@@SAPAVContext2d@@V?$Local@VObject@v8@@@v8@@@Z 10007730 f i Canvas.obj
 0001:000067a0       ??$?8DU?$char_traits@D@std@@V?$allocator@D@1@@std@@YA_NABV?$basic_string@DU?$char_traits@D@std@@V?$allocator@D@2@@0@PBD@Z 100077a0 f i Canvas.obj
 0001:000067e0       ?Initialize@Gradient@@SAXV?$Local@VObject@v8@@@v8@@@Z 100077e0 f   CanvasGradient.obj
 0001:00006940       ?New@Gradient@@SAXABV?$FunctionCallbackInfo@VValue@v8@@@Nan@@@Z 10007940 f   CanvasGradient.obj
 0001:00006be0       ?AddColorStop@Gradient@@SAXABV?$FunctionCallbackInfo@VValue@v8@@@Nan@@@Z 10007be0 f   CanvasGradient.obj
 0001:00006d70       ??0Gradient@@QAE@NNNN@Z    10007d70 f   CanvasGradient.obj
 0001:00006dd0       ??_EGradient@@EAEPAXI@Z    10007dd0 f i * CIL library *:* CIL module *
 0001:00006dd0       ??_GGradient@@EAEPAXI@Z    10007dd0 f i CanvasGradient.obj
 0001:00006e10       ??0Gradient@@QAE@NNNNNN@Z  10007e10 f   CanvasGradient.obj
 0001:00006e80       ?Initialize@Pattern@@SAXV?$Local@VObject@v8@@@v8@@@Z 10007e80 f   CanvasPattern.obj
 0001:00007010       ?New@Pattern@@SAXABV?$FunctionCallbackInfo@VValue@v8@@@Nan@@@Z 10008010 f   CanvasPattern.obj
 0001:000072f0       ??_GPattern@@EAEPAXI@Z     100082f0 f i CanvasPattern.obj
 0001:000072f0       ??_EPattern@@EAEPAXI@Z     100082f0 f i * CIL library *:* CIL module *
 0001:00007330       ?NewInstance@Nan@@YA?AV?$MaybeLocal@VObject@v8@@@v8@@V?$Local@VFunction@v8@@@3@HQAV?$Local@VValue@v8@@@3@@Z 10008330 f i CanvasRenderingContext2d.obj
 0001:000073c0       ?GetFunction@Nan@@YA?AV?$MaybeLocal@VFunction@v8@@@v8@@V?$Local@VFunctionTemplate@v8@@@3@@Z 100083c0 f i CanvasRenderingContext2d.obj
 0001:00007450       ?convert@?$ToFactory@VInt32@v8@@@imp@Nan@@SA?AV?$MaybeLocal@VInt32@v8@@@v8@@V?$Local@VValue@v8@@@5@@Z 10008450 f i CanvasRenderingContext2d.obj
 0001:000074e0       ?Initialize@Context2d@@SAXV?$Local@VObject@v8@@@v8@@@Z 100084e0 f   CanvasRenderingContext2d.obj
 0001:00007f70       ??0Context2d@@QAE@PAVCanvas@@@Z 10008f70 f   CanvasRenderingContext2d.obj
 0001:00008160       ??_GContext2d@@EAEPAXI@Z   10009160 f i CanvasRenderingContext2d.obj
 0001:00008160       ??_EContext2d@@EAEPAXI@Z   10009160 f i * CIL library *:* CIL module *
 0001:00008190       ??1Context2d@@EAE@XZ       10009190 f   CanvasRenderingContext2d.obj
 0001:00008210       ?save@Context2d@@QAEXXZ    10009210 f   CanvasRenderingContext2d.obj
 0001:00008290       ?restore@Context2d@@QAEXXZ 10009290 f   CanvasRenderingContext2d.obj
 0001:00008300       ?savePath@Context2d@@QAEXXZ 10009300 f   CanvasRenderingContext2d.obj
 0001:00008330       ?restorePath@Context2d@@QAEXXZ 10009330 f   CanvasRenderingContext2d.obj
 0001:00008370       ?create_transparent_gradient@@YAPAU_cairo_pattern@@PAU1@M@Z 10009370 f   CanvasRenderingContext2d.obj
 0001:00008530       ?create_transparent_pattern@@YAPAU_cairo_pattern@@PAU1@M@Z 10009530 f   CanvasRenderingContext2d.obj
 0001:000085e0       ?setFillRule@Context2d@@QAEXV?$Local@VValue@v8@@@v8@@@Z 100095e0 f i CanvasRenderingContext2d.obj
 0001:00008690       ?fill@Context2d@@QAEX_N@Z  10009690 f   CanvasRenderingContext2d.obj
 0001:00008900       ?stroke@Context2d@@QAEX_N@Z 10009900 f   CanvasRenderingContext2d.obj
 0001:00008b70       ?shadow@Context2d@@QAEXP6AXPAU_cairo@@@Z@Z 10009b70 f   CanvasRenderingContext2d.obj
 0001:00008f50       ?setSourceRGBA@Context2d@@QAEXUrgba_t@@@Z 10009f50 f i CanvasRenderingContext2d.obj
 0001:00008fa0       ?setSourceRGBA@Context2d@@QAEXPAU_cairo@@Urgba_t@@@Z 10009fa0 f i CanvasRenderingContext2d.obj
 0001:00008ff0       ?hasShadow@Context2d@@QAE_NXZ 10009ff0 f i CanvasRenderingContext2d.obj
 0001:00009040       ?blur@Context2d@@QAEXPAU_cairo_surface@@H@Z 1000a040 f   CanvasRenderingContext2d.obj
 0001:000092a0       ?New@Context2d@@SAXABV?$FunctionCallbackInfo@VValue@v8@@@Nan@@@Z 1000a2a0 f   CanvasRenderingContext2d.obj
 0001:00009680       ?GetFormat@Context2d@@SAXV?$Local@VString@v8@@@v8@@ABV?$PropertyCallbackInfo@VValue@v8@@@Nan@@@Z 1000a680 f   CanvasRenderingContext2d.obj
 0001:000097b0       ?AddPage@Context2d@@SAXABV?$FunctionCallbackInfo@VValue@v8@@@Nan@@@Z 1000a7b0 f   CanvasRenderingContext2d.obj
 0001:00009860       ?PutImageData@Context2d@@SAXABV?$FunctionCallbackInfo@VValue@v8@@@Nan@@@Z 1000a860 f   CanvasRenderingContext2d.obj
 0001:00009e60       ?GetImageData@Context2d@@SAXABV?$FunctionCallbackInfo@VValue@v8@@@Nan@@@Z 1000ae60 f   CanvasRenderingContext2d.obj
 0001:0000a410       ?DrawImage@Context2d@@SAXABV?$FunctionCallbackInfo@VValue@v8@@@Nan@@@Z 1000b410 f   CanvasRenderingContext2d.obj
 0001:0000ac40       ?GetGlobalAlpha@Context2d@@SAXV?$Local@VString@v8@@@v8@@ABV?$PropertyCallbackInfo@VValue@v8@@@Nan@@@Z 1000bc40 f   CanvasRenderingContext2d.obj
 0001:0000ac90       ?SetGlobalAlpha@Context2d@@SAXV?$Local@VString@v8@@@v8@@V?$Local@VValue@v8@@@3@ABV?$PropertyCallbackInfo@X@Nan@@@Z 1000bc90 f   CanvasRenderingContext2d.obj
 0001:0000acf0       ?GetGlobalCompositeOperation@Context2d@@SAXV?$Local@VString@v8@@@v8@@ABV?$PropertyCallbackInfo@VValue@v8@@@Nan@@@Z 1000bcf0 f   CanvasRenderingContext2d.obj
 0001:0000aed0       ?SetPatternQuality@Context2d@@SAXV?$Local@VString@v8@@@v8@@V?$Local@VValue@v8@@@3@ABV?$PropertyCallbackInfo@X@Nan@@@Z 1000bed0 f   CanvasRenderingContext2d.obj
 0001:0000b0a0       ?GetPatternQuality@Context2d@@SAXV?$Local@VString@v8@@@v8@@ABV?$PropertyCallbackInfo@VValue@v8@@@Nan@@@Z 1000c0a0 f   CanvasRenderingContext2d.obj
 0001:0000b150       ?SetGlobalCompositeOperation@Context2d@@SAXV?$Local@VString@v8@@@v8@@V?$Local@VValue@v8@@@3@ABV?$PropertyCallbackInfo@X@Nan@@@Z 1000c150 f   CanvasRenderingContext2d.obj
 0001:0000b830       ?GetShadowOffsetX@Context2d@@SAXV?$Local@VString@v8@@@v8@@ABV?$PropertyCallbackInfo@VValue@v8@@@Nan@@@Z 1000c830 f   CanvasRenderingContext2d.obj
 0001:0000b8a0       ?SetShadowOffsetX@Context2d@@SAXV?$Local@VString@v8@@@v8@@V?$Local@VValue@v8@@@3@ABV?$PropertyCallbackInfo@X@Nan@@@Z 1000c8a0 f   CanvasRenderingContext2d.obj
 0001:0000b8d0       ?GetShadowOffsetY@Context2d@@SAXV?$Local@VString@v8@@@v8@@ABV?$PropertyCallbackInfo@VValue@v8@@@Nan@@@Z 1000c8d0 f   CanvasRenderingContext2d.obj
 0001:0000b940       ?SetShadowOffsetY@Context2d@@SAXV?$Local@VString@v8@@@v8@@V?$Local@VValue@v8@@@3@ABV?$PropertyCallbackInfo@X@Nan@@@Z 1000c940 f   CanvasRenderingContext2d.obj
 0001:0000b970       ?GetShadowBlur@Context2d@@SAXV?$Local@VString@v8@@@v8@@ABV?$PropertyCallbackInfo@VValue@v8@@@Nan@@@Z 1000c970 f   CanvasRenderingContext2d.obj
 0001:0000b9c0       ?SetShadowBlur@Context2d@@SAXV?$Local@VString@v8@@@v8@@V?$Local@VValue@v8@@@3@ABV?$PropertyCallbackInfo@X@Nan@@@Z 1000c9c0 f   CanvasRenderingContext2d.obj
 0001:0000ba10       ?GetAntiAlias@Context2d@@SAXV?$Local@VString@v8@@@v8@@ABV?$PropertyCallbackInfo@VValue@v8@@@Nan@@@Z 1000ca10 f   CanvasRenderingContext2d.obj
 0001:0000baa0       ?SetAntiAlias@Context2d@@SAXV?$Local@VString@v8@@@v8@@V?$Local@VValue@v8@@@3@ABV?$PropertyCallbackInfo@X@Nan@@@Z 1000caa0 f   CanvasRenderingContext2d.obj
 0001:0000bc20       ?GetTextDrawingMode@Context2d@@SAXV?$Local@VString@v8@@@v8@@ABV?$PropertyCallbackInfo@VValue@v8@@@Nan@@@Z 1000cc20 f   CanvasRenderingContext2d.obj
 0001:0000bca0       ?SetTextDrawingMode@Context2d@@SAXV?$Local@VString@v8@@@v8@@V?$Local@VValue@v8@@@3@ABV?$PropertyCallbackInfo@X@Nan@@@Z 1000cca0 f   CanvasRenderingContext2d.obj
 0001:0000bdb0       ?GetFilter@Context2d@@SAXV?$Local@VString@v8@@@v8@@ABV?$PropertyCallbackInfo@VValue@v8@@@Nan@@@Z 1000cdb0 f   CanvasRenderingContext2d.obj
 0001:0000be60       ?SetFilter@Context2d@@SAXV?$Local@VString@v8@@@v8@@V?$Local@VValue@v8@@@3@ABV?$PropertyCallbackInfo@X@Nan@@@Z 1000ce60 f   CanvasRenderingContext2d.obj
 0001:0000bfe0       ?GetMiterLimit@Context2d@@SAXV?$Local@VString@v8@@@v8@@ABV?$PropertyCallbackInfo@VValue@v8@@@Nan@@@Z 1000cfe0 f   CanvasRenderingContext2d.obj
 0001:0000c050       ?SetMiterLimit@Context2d@@SAXV?$Local@VString@v8@@@v8@@V?$Local@VValue@v8@@@3@ABV?$PropertyCallbackInfo@X@Nan@@@Z 1000d050 f   CanvasRenderingContext2d.obj
 0001:0000c0b0       ?GetLineWidth@Context2d@@SAXV?$Local@VString@v8@@@v8@@ABV?$PropertyCallbackInfo@VValue@v8@@@Nan@@@Z 1000d0b0 f   CanvasRenderingContext2d.obj
 0001:0000c120       ?SetLineWidth@Context2d@@SAXV?$Local@VString@v8@@@v8@@V?$Local@VValue@v8@@@3@ABV?$PropertyCallbackInfo@X@Nan@@@Z 1000d120 f   CanvasRenderingContext2d.obj
 0001:0000c190       ?GetLineJoin@Context2d@@SAXV?$Local@VString@v8@@@v8@@ABV?$PropertyCallbackInfo@VValue@v8@@@Nan@@@Z 1000d190 f   CanvasRenderingContext2d.obj
 0001:0000c210       ?SetLineJoin@Context2d@@SAXV?$Local@VString@v8@@@v8@@V?$Local@VValue@v8@@@3@ABV?$PropertyCallbackInfo@X@Nan@@@Z 1000d210 f   CanvasRenderingContext2d.obj
 0001:0000c2e0       ?GetLineCap@Context2d@@SAXV?$Local@VString@v8@@@v8@@ABV?$PropertyCallbackInfo@VValue@v8@@@Nan@@@Z 1000d2e0 f   CanvasRenderingContext2d.obj
 0001:0000c360       ?SetLineCap@Context2d@@SAXV?$Local@VString@v8@@@v8@@V?$Local@VValue@v8@@@3@ABV?$PropertyCallbackInfo@X@Nan@@@Z 1000d360 f   CanvasRenderingContext2d.obj
 0001:0000c430       ?IsPointInPath@Context2d@@SAXABV?$FunctionCallbackInfo@VValue@v8@@@Nan@@@Z 1000d430 f   CanvasRenderingContext2d.obj
 0001:0000c5c0       ?SetFillPattern@Context2d@@SAXABV?$FunctionCallbackInfo@VValue@v8@@@Nan@@@Z 1000d5c0 f   CanvasRenderingContext2d.obj
 0001:0000c6e0       ?SetStrokePattern@Context2d@@SAXABV?$FunctionCallbackInfo@VValue@v8@@@Nan@@@Z 1000d6e0 f   CanvasRenderingContext2d.obj
 0001:0000c800       ?SetShadowColor@Context2d@@SAXV?$Local@VString@v8@@@v8@@V?$Local@VValue@v8@@@3@ABV?$PropertyCallbackInfo@X@Nan@@@Z 1000d800 f   CanvasRenderingContext2d.obj
 0001:0000c940       ?GetShadowColor@Context2d@@SAXV?$Local@VString@v8@@@v8@@ABV?$PropertyCallbackInfo@VValue@v8@@@Nan@@@Z 1000d940 f   CanvasRenderingContext2d.obj
 0001:0000c9f0       ?SetFillColor@Context2d@@SAXABV?$FunctionCallbackInfo@VValue@v8@@@Nan@@@Z 1000d9f0 f   CanvasRenderingContext2d.obj
 0001:0000caf0       ?GetFillColor@Context2d@@SAXV?$Local@VString@v8@@@v8@@ABV?$PropertyCallbackInfo@VValue@v8@@@Nan@@@Z 1000daf0 f   CanvasRenderingContext2d.obj
 0001:0000cba0       ?SetStrokeColor@Context2d@@SAXABV?$FunctionCallbackInfo@VValue@v8@@@Nan@@@Z 1000dba0 f   CanvasRenderingContext2d.obj
 0001:0000cca0       ?GetStrokeColor@Context2d@@SAXV?$Local@VString@v8@@@v8@@ABV?$PropertyCallbackInfo@VValue@v8@@@Nan@@@Z 1000dca0 f   CanvasRenderingContext2d.obj
 0001:0000cd50       ?BezierCurveTo@Context2d@@SAXABV?$FunctionCallbackInfo@VValue@v8@@@Nan@@@Z 1000dd50 f   CanvasRenderingContext2d.obj
 0001:0000cf40       ?QuadraticCurveTo@Context2d@@SAXABV?$FunctionCallbackInfo@VValue@v8@@@Nan@@@Z 1000df40 f   CanvasRenderingContext2d.obj
 0001:0000d150       ?Save@Context2d@@SAXABV?$FunctionCallbackInfo@VValue@v8@@@Nan@@@Z 1000e150 f   CanvasRenderingContext2d.obj
 0001:0000d170       ?Restore@Context2d@@SAXABV?$FunctionCallbackInfo@VValue@v8@@@Nan@@@Z 1000e170 f   CanvasRenderingContext2d.obj
 0001:0000d190       ?BeginPath@Context2d@@SAXABV?$FunctionCallbackInfo@VValue@v8@@@Nan@@@Z 1000e190 f   CanvasRenderingContext2d.obj
 0001:0000d1c0       ?ClosePath@Context2d@@SAXABV?$FunctionCallbackInfo@VValue@v8@@@Nan@@@Z 1000e1c0 f   CanvasRenderingContext2d.obj
 0001:0000d1f0       ?Rotate@Context2d@@SAXABV?$FunctionCallbackInfo@VValue@v8@@@Nan@@@Z 1000e1f0 f   CanvasRenderingContext2d.obj
 0001:0000d280       ?Transform@Context2d@@SAXABV?$FunctionCallbackInfo@VValue@v8@@@Nan@@@Z 1000e280 f   CanvasRenderingContext2d.obj
 0001:0000d570       ?ResetTransform@Context2d@@SAXABV?$FunctionCallbackInfo@VValue@v8@@@Nan@@@Z 1000e570 f   CanvasRenderingContext2d.obj
 0001:0000d5a0       ?GetMatrix@Context2d@@SAXABV?$FunctionCallbackInfo@VValue@v8@@@Nan@@@Z 1000e5a0 f   CanvasRenderingContext2d.obj
 0001:0000d660       ?Translate@Context2d@@SAXABV?$FunctionCallbackInfo@VValue@v8@@@Nan@@@Z 1000e660 f   CanvasRenderingContext2d.obj
 0001:0000d770       ?Scale@Context2d@@SAXABV?$FunctionCallbackInfo@VValue@v8@@@Nan@@@Z 1000e770 f   CanvasRenderingContext2d.obj
 0001:0000d880       ?Clip@Context2d@@SAXABV?$FunctionCallbackInfo@VValue@v8@@@Nan@@@Z 1000e880 f   CanvasRenderingContext2d.obj
 0001:0000d8d0       ?Fill@Context2d@@SAXABV?$FunctionCallbackInfo@VValue@v8@@@Nan@@@Z 1000e8d0 f   CanvasRenderingContext2d.obj
 0001:0000d930       ?Stroke@Context2d@@SAXABV?$FunctionCallbackInfo@VValue@v8@@@Nan@@@Z 1000e930 f   CanvasRenderingContext2d.obj
 0001:0000d950       ?FillText@Context2d@@SAXABV?$FunctionCallbackInfo@VValue@v8@@@Nan@@@Z 1000e950 f   CanvasRenderingContext2d.obj
 0001:0000dbf0       ?StrokeText@Context2d@@SAXABV?$FunctionCallbackInfo@VValue@v8@@@Nan@@@Z 1000ebf0 f   CanvasRenderingContext2d.obj
 0001:0000de90       ?getBaselineAdjustment@@YANPAU_PangoLayout@@F@Z 1000ee90 f i CanvasRenderingContext2d.obj
 0001:0000df70       ?setTextPath@Context2d@@QAEXPBDNN@Z 1000ef70 f   CanvasRenderingContext2d.obj
 0001:0000e0d0       ?LineTo@Context2d@@SAXABV?$FunctionCallbackInfo@VValue@v8@@@Nan@@@Z 1000f0d0 f   CanvasRenderingContext2d.obj
 0001:0000e1a0       ?MoveTo@Context2d@@SAXABV?$FunctionCallbackInfo@VValue@v8@@@Nan@@@Z 1000f1a0 f   CanvasRenderingContext2d.obj
 0001:0000e270       ?SetFont@Context2d@@SAXABV?$FunctionCallbackInfo@VValue@v8@@@Nan@@@Z 1000f270 f   CanvasRenderingContext2d.obj
 0001:0000e540       ?MeasureText@Context2d@@SAXABV?$FunctionCallbackInfo@VValue@v8@@@Nan@@@Z 1000f540 f   CanvasRenderingContext2d.obj
 0001:0000ea60       ?SetTextBaseline@Context2d@@SAXABV?$FunctionCallbackInfo@VValue@v8@@@Nan@@@Z 1000fa60 f   CanvasRenderingContext2d.obj
 0001:0000eae0       ?SetTextAlignment@Context2d@@SAXABV?$FunctionCallbackInfo@VValue@v8@@@Nan@@@Z 1000fae0 f   CanvasRenderingContext2d.obj
 0001:0000eb60       ?SetLineDash@Context2d@@SAXABV?$FunctionCallbackInfo@VValue@v8@@@Nan@@@Z 1000fb60 f   CanvasRenderingContext2d.obj
 0001:0000ee20       ?GetLineDash@Context2d@@SAXABV?$FunctionCallbackInfo@VValue@v8@@@Nan@@@Z 1000fe20 f   CanvasRenderingContext2d.obj
 0001:0000efc0       ?SetLineDashOffset@Context2d@@SAXV?$Local@VString@v8@@@v8@@V?$Local@VValue@v8@@@3@ABV?$PropertyCallbackInfo@X@Nan@@@Z 1000ffc0 f   CanvasRenderingContext2d.obj
 0001:0000f080       ?GetLineDashOffset@Context2d@@SAXV?$Local@VString@v8@@@v8@@ABV?$PropertyCallbackInfo@VValue@v8@@@Nan@@@Z 10010080 f   CanvasRenderingContext2d.obj
 0001:0000f100       ?FillRect@Context2d@@SAXABV?$FunctionCallbackInfo@VValue@v8@@@Nan@@@Z 10010100 f   CanvasRenderingContext2d.obj
 0001:0000f2b0       ?StrokeRect@Context2d@@SAXABV?$FunctionCallbackInfo@VValue@v8@@@Nan@@@Z 100102b0 f   CanvasRenderingContext2d.obj
 0001:0000f460       ?ClearRect@Context2d@@SAXABV?$FunctionCallbackInfo@VValue@v8@@@Nan@@@Z 10010460 f   CanvasRenderingContext2d.obj
 0001:0000f630       ?Rect@Context2d@@SAXABV?$FunctionCallbackInfo@VValue@v8@@@Nan@@@Z 10010630 f   CanvasRenderingContext2d.obj
 0001:0000f860       ?Arc@Context2d@@SAXABV?$FunctionCallbackInfo@VValue@v8@@@Nan@@@Z 10010860 f   CanvasRenderingContext2d.obj
 0001:0000fb40       ?ArcTo@Context2d@@SAXABV?$FunctionCallbackInfo@VValue@v8@@@Nan@@@Z 10010b40 f   CanvasRenderingContext2d.obj
 0001:000101f0       ?Ellipse@Context2d@@SAXABV?$FunctionCallbackInfo@VValue@v8@@@Nan@@@Z 100111f0 f   CanvasRenderingContext2d.obj
 0001:000105f0       ??1?$vector@NV?$allocator@N@std@@@std@@QAE@XZ 100115f0 f i CanvasRenderingContext2d.obj
 0001:00010600       ??0?$vector@NV?$allocator@N@std@@@std@@QAE@I@Z 10011600 f i CanvasRenderingContext2d.obj
 0001:00010660       ??0?$TypedArrayContents@N@Nan@@QAE@V?$Local@VValue@v8@@@v8@@@Z 10011660 f i CanvasRenderingContext2d.obj
 0001:00010750       ??4?$basic_string@DU?$char_traits@D@std@@V?$allocator@D@2@@std@@QAEAAV01@PBD@Z 10011750 f i CanvasRenderingContext2d.obj
 0001:00010790       ?_Tidy@?$vector@NV?$allocator@N@std@@@std@@IAEXXZ 10011790 f i CanvasRenderingContext2d.obj
 0001:00010810       ?allocate@?$_Wrap_alloc@V?$allocator@N@std@@@std@@QAEPANI@Z 10011810 f i CanvasRenderingContext2d.obj
 0001:00010870       ?closure_init@@YA?AW4_cairo_status@@PAUclosure_t@@PAVCanvas@@II@Z 10011870 f   closure.obj
 0001:000108c0       ?closure_destroy@@YAXPAUclosure_t@@@Z 100118c0 f   closure.obj
 0001:000108f0       ___local_stdio_printf_options 100118f0 f i color.obj
 0001:00010900       _snprintf                  10011900 f i color.obj
 0001:00010a10       ?rgba_create@@YA?AUrgba_t@@I@Z 10011a10 f   color.obj
 0001:00010ab0       ?rgba_to_string@@YAXUrgba_t@@PADI@Z 10011ab0 f   color.obj
 0001:000117e0       ?rgba_from_string@@YAHPBDPAF@Z 100127e0 f   color.obj
 0001:00011a30       ?Initialize@Image@@SAXV?$Local@VObject@v8@@@v8@@@Z 10012a30 f   Image.obj
 0001:00011ea0       ?New@Image@@SAXABV?$FunctionCallbackInfo@VValue@v8@@@Nan@@@Z 10012ea0 f   Image.obj
 0001:00012010       ?GetComplete@Image@@SAXV?$Local@VString@v8@@@v8@@ABV?$PropertyCallbackInfo@VValue@v8@@@Nan@@@Z 10013010 f   Image.obj
 0001:00012060       ?GetDataMode@Image@@SAXV?$Local@VString@v8@@@v8@@ABV?$PropertyCallbackInfo@VValue@v8@@@Nan@@@Z 10013060 f   Image.obj
 0001:000120b0       ?SetDataMode@Image@@SAXV?$Local@VString@v8@@@v8@@V?$Local@VValue@v8@@@3@ABV?$PropertyCallbackInfo@X@Nan@@@Z 100130b0 f   Image.obj
 0001:000120f0       ?GetNaturalWidth@Image@@SAXV?$Local@VString@v8@@@v8@@ABV?$PropertyCallbackInfo@VValue@v8@@@Nan@@@Z 100130f0 f   Image.obj
 0001:00012140       ?GetHeight@ImageData@@SAXV?$Local@VString@v8@@@v8@@ABV?$PropertyCallbackInfo@VValue@v8@@@Nan@@@Z 10013140 f   ImageData.obj
 0001:00012140       ?GetWidth@Image@@SAXV?$Local@VString@v8@@@v8@@ABV?$PropertyCallbackInfo@VValue@v8@@@Nan@@@Z 10013140 f   Image.obj
 0001:00012190       ?SetWidth@Image@@SAXV?$Local@VString@v8@@@v8@@V?$Local@VValue@v8@@@3@ABV?$PropertyCallbackInfo@X@Nan@@@Z 10013190 f   Image.obj
 0001:000121d0       ?GetNaturalHeight@Image@@SAXV?$Local@VString@v8@@@v8@@ABV?$PropertyCallbackInfo@VValue@v8@@@Nan@@@Z 100131d0 f   Image.obj
 0001:00012220       ?GetHeight@Image@@SAXV?$Local@VString@v8@@@v8@@ABV?$PropertyCallbackInfo@VValue@v8@@@Nan@@@Z 10013220 f   Image.obj
 0001:00012270       ?SetHeight@Image@@SAXV?$Local@VString@v8@@@v8@@V?$Local@VValue@v8@@@3@ABV?$PropertyCallbackInfo@X@Nan@@@Z 10013270 f   Image.obj
 0001:000122b0       ?GetSource@Image@@SAXV?$Local@VString@v8@@@v8@@ABV?$PropertyCallbackInfo@VValue@v8@@@Nan@@@Z 100132b0 f   Image.obj
 0001:00012320       ?clearData@Image@@QAEXXZ   10013320 f   Image.obj
 0001:000123a0       ?SetSource@Image@@SAXV?$Local@VString@v8@@@v8@@V?$Local@VValue@v8@@@3@ABV?$PropertyCallbackInfo@X@Nan@@@Z 100133a0 f   Image.obj
 0001:00012620       ?loadFromBuffer@Image@@QAE?AW4_cairo_status@@PAEI@Z 10013620 f   Image.obj
 0001:00012720       ?readPNG@Image@@SA?AW4_cairo_status@@PAXPAEI@Z 10013720 f   Image.obj
 0001:00012750       ??_EImage@@EAEPAXI@Z       10013750 f i * CIL library *:* CIL module *
 0001:00012750       ??_GImage@@EAEPAXI@Z       10013750 f i Image.obj
 0001:000127c0       ?loaded@Image@@QAEXXZ      100137c0 f   Image.obj
 0001:00012860       ?loadSurface@Image@@QAE?AW4_cairo_status@@XZ 10013860 f   Image.obj
 0001:00012980       ?decodeJPEGIntoSurface@Image@@QAE?AW4_cairo_status@@PAUjpeg_decompress_struct@@@Z 10013980 f   Image.obj
 0001:00012b50       ?decodeJPEGBufferIntoMimeSurface@Image@@QAE?AW4_cairo_status@@PAEI@Z 10013b50 f   Image.obj
 0001:00012d50       ?clearMimeData@@YAXPAX@Z   10013d50 f   Image.obj
 0001:00012d80       ?assignDataAsMime@Image@@QAE?AW4_cairo_status@@PAEHPBD@Z 10013d80 f   Image.obj
 0001:00012e00       ?loadJPEGFromBuffer@Image@@QAE?AW4_cairo_status@@PAEI@Z 10013e00 f   Image.obj
 0001:00012f40       ?loadJPEG@Image@@QAE?AW4_cairo_status@@PAU_iobuf@@@Z 10013f40 f   Image.obj
 0001:00013010       ??_GImageData@@UAEPAXI@Z   10014010 f i ImageData.obj
 0001:00013010       ??_EImageData@@UAEPAXI@Z   10014010 f i * CIL library *:* CIL module *
 0001:00013030       ?Initialize@ImageData@@SAXV?$Local@VObject@v8@@@v8@@@Z 10014030 f   ImageData.obj
 0001:00013230       ?New@ImageData@@SAXABV?$FunctionCallbackInfo@VValue@v8@@@Nan@@@Z 10014230 f   ImageData.obj
 0001:00013630       ?GetWidth@ImageData@@SAXV?$Local@VString@v8@@@v8@@ABV?$PropertyCallbackInfo@VValue@v8@@@Nan@@@Z 10014630 f   ImageData.obj
 0001:00013680       ?init@@YAXV?$Local@VObject@v8@@@v8@@@Z 10014680 f   init.obj
 0001:00013850       ?to_utf8@@YAPADPAEIGG@Z    10014850 f   register_font.obj
 0001:00013960       ?_name_def_compare@@YAHPBX0@Z 10014960 f   register_font.obj
 0001:00013980       ?_free_g_list_item@@YAXPAX0@Z 10014980 f   register_font.obj
 0001:00013990       ?get_family_name@@YAPADPAUFT_FaceRec_@@@Z 10014990 f   register_font.obj
 0001:00013aa0       ?get_pango_weight@@YA?AW4PangoWeight@@G@Z 10014aa0 f   register_font.obj
 0001:00013b30       ?get_pango_stretch@@YA?AW4PangoStretch@@G@Z 10014b30 f   register_font.obj
 0001:00013ba0       ?get_pango_font_description@@YAPAU_PangoFontDescription@@PAE@Z 10014ba0 f   register_font.obj
 0001:00013ca0       ?toBuffer@@YA?AW4_cairo_status@@PAXPBEI@Z 10014ca0 f   toBuffer.obj
 0001:00013d4b       __imp_load_?ClearWeak@V8@v8@@CAPAXPAPAVObject@internal@2@@Z 10014d4b f   node:node.exe
 0001:00013d55       __tailMerge_node_exe       10014d55 f i node:node.exe
 0001:00013d66       __imp_load_?MakeWeak@V8@v8@@CAXPAPAVObject@internal@2@PAXP6AXABV?$WeakCallbackInfo@X@2@@ZW4WeakCallbackType@2@@Z 10014d66 f   node:node.exe
 0001:00013d70       __imp_load_?DisposeGlobal@V8@v8@@CAXPAPAVObject@internal@2@@Z 10014d70 f   node:node.exe
 0001:00013d7a       __imp_load_?Value@External@v8@@QBEPAXXZ 10014d7a f   node:node.exe
 0001:00013d84       __imp_load_?New@External@v8@@SA?AV?$Local@VExternal@v8@@@2@PAVIsolate@2@PAX@Z 10014d84 f   node:node.exe
 0001:00013d8e       __imp_load_?CheckMemoryPressure@Isolate@v8@@AAEXXZ 10014d8e f   node:node.exe
 0001:00013d98       __imp_load_?ReportExternalAllocationLimitReached@Isolate@v8@@AAEXXZ 10014d98 f   node:node.exe
 0001:00013da2       __imp_load_?GetCurrentContext@Isolate@v8@@QAE?AV?$Local@VContext@v8@@@2@XZ 10014da2 f   node:node.exe
 0001:00013dac       __imp_load_?GetCurrent@Isolate@v8@@SAPAV12@XZ 10014dac f   node:node.exe
 0001:00013db6       __imp_load_?CreateHandle@HandleScope@v8@@KAPAPAVObject@internal@2@PAVIsolate@42@PAV342@@Z 10014db6 f   node:node.exe
 0001:00013dc0       __imp_load_?CreateHandle@HandleScope@v8@@CAPAPAVObject@internal@2@PAVHeapObject@42@PAV342@@Z 10014dc0 f   node:node.exe
 0001:00013dca       __imp_load_??1HandleScope@v8@@QAE@XZ 10014dca f   node:node.exe
 0001:00013dd4       __imp_load_??0HandleScope@v8@@QAE@PAVIsolate@1@@Z 10014dd4 f   node:node.exe
 0001:00013dde       __imp_load_?SetClassName@FunctionTemplate@v8@@QAEXV?$Local@VString@v8@@@2@@Z 10014dde f   node:node.exe
 0001:00013de8       __imp_load_?InstanceTemplate@FunctionTemplate@v8@@QAE?AV?$Local@VObjectTemplate@v8@@@2@XZ 10014de8 f   node:node.exe
 0001:00013df2       __imp_load_?GetFunction@FunctionTemplate@v8@@QAE?AV?$Local@VFunction@v8@@@2@XZ 10014df2 f   node:node.exe
 0001:00013dfc       __imp_load_?New@FunctionTemplate@v8@@SA?AV?$Local@VFunctionTemplate@v8@@@2@PAVIsolate@2@P6AXABV?$FunctionCallbackInfo@VValue@v8@@@2@@ZV?$Local@VValue@v8@@@2@V?$Local@VSignature@v8@@@2@HW4ConstructorBehavior@2@@Z 10014dfc f   node:node.exe
 0001:00013e06       __imp_load_?ToLocalEmpty@V8@v8@@CAXXZ 10014e06 f   node:node.exe
 0001:00013e10       __imp_load_?GlobalizeReference@V8@v8@@CAPAPAVObject@internal@2@PAVIsolate@42@PAPAV342@@Z 10014e10 f   node:node.exe
 0001:00013e1a       __imp_load_?Uint32Value@Value@v8@@QBEIXZ 10014e1a f   node:node.exe
 0001:00013e24       __imp_load_?IsNumber@Value@v8@@QBE_NXZ 10014e24 f   node:node.exe
 0001:00013e2e       __imp_load_?Escape@EscapableHandleScope@v8@@AAEPAPAVObject@internal@2@PAPAV342@@Z 10014e2e f   node:node.exe
 0001:00013e38       __imp_load_??0EscapableHandleScope@v8@@QAE@PAVIsolate@1@@Z 10014e38 f   node:node.exe
 0001:00013e42       __imp_load_?NewFromUtf8@String@v8@@SA?AV?$MaybeLocal@VString@v8@@@2@PAVIsolate@2@PBDW4NewStringType@2@H@Z 10014e42 f   node:node.exe
 0001:00013e4c       __imp_load_?SlowGetInternalField@Object@v8@@AAE?AV?$Local@VValue@v8@@@2@H@Z 10014e4c f   node:node.exe
 0001:00013e56       __imp_load_?SetAlignedPointerInInternalField@Object@v8@@QAEXHPAX@Z 10014e56 f   node:node.exe
 0001:00013e60       __imp_load_?SetInternalField@Object@v8@@QAEXHV?$Local@VValue@v8@@@2@@Z 10014e60 f   node:node.exe
 0001:00013e6a       __imp_load_?InternalFieldCount@Object@v8@@QAEHXZ 10014e6a f   node:node.exe
 0001:00013e74       __imp_load_?Set@Object@v8@@QAE_NV?$Local@VValue@v8@@@2@0@Z 10014e74 f   node:node.exe
 0001:00013e7e       __imp_load_?SetInternalFieldCount@ObjectTemplate@v8@@QAEXH@Z 10014e7e f   node:node.exe
 0001:00013e88       __imp_load_?NewInstance@ObjectTemplate@v8@@QAE?AV?$MaybeLocal@VObject@v8@@@2@V?$Local@VContext@v8@@@2@@Z 10014e88 f   node:node.exe
 0001:00013e92       __imp_load_?New@ObjectTemplate@v8@@SA?AV?$Local@VObjectTemplate@v8@@@2@PAVIsolate@2@V?$Local@VFunctionTemplate@v8@@@2@@Z 10014e92 f   node:node.exe
 0001:00013e9c       __imp_load_??1EscapableHandleScope@v8@@QAE@XZ 10014e9c f   node:node.exe
 0001:00013ea6       __imp_load_?New@Object@v8@@SA?AV?$Local@VObject@v8@@@2@PAVIsolate@2@@Z 10014ea6 f   node:node.exe
 0001:00013eb0       __imp_load__uv_queue_work  10014eb0 f   node:node.exe
 0001:00013eba       __imp_load_?Global@Context@v8@@QAE?AV?$Local@VObject@v8@@@2@XZ 10014eba f   node:node.exe
 0001:00013ec4       __imp_load_?NewFromUnsigned@Integer@v8@@SA?AV?$Local@VInteger@v8@@@2@PAVIsolate@2@I@Z 10014ec4 f   node:node.exe
 0001:00013ece       __imp_load_?New@Signature@v8@@SA?AV?$Local@VSignature@v8@@@2@PAVIsolate@2@V?$Local@VFunctionTemplate@v8@@@2@@Z 10014ece f   node:node.exe
 0001:00013ed8       __imp_load_?ThrowException@Isolate@v8@@QAE?AV?$Local@VValue@v8@@@2@V32@@Z 10014ed8 f   node:node.exe
 0001:00013ee2       __imp_load_?Length@TypedArray@v8@@QAEIXZ 10014ee2 f   node:node.exe
 0001:00013eec       __imp_load_?Set@Template@v8@@QAEXV?$Local@VName@v8@@@2@V?$Local@VData@v8@@@2@W4PropertyAttribute@2@@Z 10014eec f   node:node.exe
 0001:00013ef6       __imp_load_?ByteLength@ArrayBufferView@v8@@QAEIXZ 10014ef6 f   node:node.exe
 0001:00013f00       __imp_load_?ByteOffset@ArrayBufferView@v8@@QAEIXZ 10014f00 f   node:node.exe
 0001:00013f0a       __imp_load_?Buffer@ArrayBufferView@v8@@QAE?AV?$Local@VArrayBuffer@v8@@@2@XZ 10014f0a f   node:node.exe
 0001:00013f14       __imp_load_?Error@Exception@v8@@SA?AV?$Local@VValue@v8@@@2@V?$Local@VString@v8@@@2@@Z 10014f14 f   node:node.exe
 0001:00013f1e       __imp_load_?TypeError@Exception@v8@@SA?AV?$Local@VValue@v8@@@2@V?$Local@VString@v8@@@2@@Z 10014f1e f   node:node.exe
 0001:00013f28       __imp_load_?RangeError@Exception@v8@@SA?AV?$Local@VValue@v8@@@2@V?$Local@VString@v8@@@2@@Z 10014f28 f   node:node.exe
 0001:00013f32       __imp_load_?New@AccessorSignature@v8@@SA?AV?$Local@VAccessorSignature@v8@@@2@PAVIsolate@2@V?$Local@VFunctionTemplate@v8@@@2@@Z 10014f32 f   node:node.exe
 0001:00013f3c       __imp_load_?HasInstance@FunctionTemplate@v8@@QAE_NV?$Local@VValue@v8@@@2@@Z 10014f3c f   node:node.exe
 0001:00013f46       __imp_load_?PrototypeTemplate@FunctionTemplate@v8@@QAE?AV?$Local@VObjectTemplate@v8@@@2@XZ 10014f46 f   node:node.exe
 0001:00013f50       __imp_load_?GetContents@ArrayBuffer@v8@@QAE?AVContents@12@XZ 10014f50 f   node:node.exe
 0001:00013f5a       __imp_load_?StrictEquals@Value@v8@@QBE_NV?$Local@VValue@v8@@@2@@Z 10014f5a f   node:node.exe
 0001:00013f64       __imp_load_?NumberValue@Value@v8@@QBENXZ 10014f64 f   node:node.exe
 0001:00013f6e       __imp_load_?BooleanValue@Value@v8@@QBE_NXZ 10014f6e f   node:node.exe
 0001:00013f78       __imp_load_?ToUint32@Value@v8@@QBE?AV?$MaybeLocal@VUint32@v8@@@2@V?$Local@VContext@v8@@@2@@Z 10014f78 f   node:node.exe
 0001:00013f82       __imp_load_?IsUint8ClampedArray@Value@v8@@QBE_NXZ 10014f82 f   node:node.exe
 0001:00013f8c       __imp_load_?IsArrayBufferView@Value@v8@@QBE_NXZ 10014f8c f   node:node.exe
 0001:00013f96       __imp_load_?IsUint32@Value@v8@@QBE_NXZ 10014f96 f   node:node.exe
 0001:00013fa0       __imp_load_?IsBoolean@Value@v8@@QBE_NXZ 10014fa0 f   node:node.exe
 0001:00013faa       __imp_load_?IsObject@Value@v8@@QBE_NXZ 10014faa f   node:node.exe
 0001:00013fb4       __imp_load_?IsFunction@Value@v8@@QBE_NXZ 10014fb4 f   node:node.exe
 0001:00013fbe       __imp_load_?ReThrow@TryCatch@v8@@QAE?AV?$Local@VValue@v8@@@2@XZ 10014fbe f   node:node.exe
 0001:00013fc8       __imp_load_?HasCaught@TryCatch@v8@@QBE_NXZ 10014fc8 f   node:node.exe
 0001:00013fd2       __imp_load_??1TryCatch@v8@@QAE@XZ 10014fd2 f   node:node.exe
 0001:00013fdc       __imp_load_??0TryCatch@v8@@QAE@PAVIsolate@1@@Z 10014fdc f   node:node.exe
 0001:00013fe6       __imp_load_??1Utf8Value@String@v8@@QAE@XZ 10014fe6 f   node:node.exe
 0001:00013ff0       __imp_load_??0Utf8Value@String@v8@@QAE@V?$Local@VValue@v8@@@2@@Z 10014ff0 f   node:node.exe
 0001:00013ffa       __imp_load_?New@Number@v8@@SA?AV?$Local@VNumber@v8@@@2@PAVIsolate@2@N@Z 10014ffa f   node:node.exe
 0001:00014004       __imp_load_?SlowGetAlignedPointerFromInternalField@Object@v8@@AAEPAXH@Z 10015004 f   node:node.exe
 0001:0001400e       __imp_load_?Get@Object@v8@@QAE?AV?$Local@VValue@v8@@@2@V32@@Z 1001500e f   node:node.exe
 0001:00014018       __imp_load_?Set@Object@v8@@QAE?AV?$Maybe@_N@2@V?$Local@VContext@v8@@@2@V?$Local@VValue@v8@@@2@1@Z 10015018 f   node:node.exe
 0001:00014022       __imp_load_?Call@Function@v8@@QAE?AV?$MaybeLocal@VValue@v8@@@2@V?$Local@VContext@v8@@@2@V?$Local@VValue@v8@@@2@HQAV52@@Z 10015022 f   node:node.exe
 0001:0001402c       __imp_load_?SetAccessor@ObjectTemplate@v8@@QAEXV?$Local@VName@v8@@@2@P6AX0ABV?$PropertyCallbackInfo@VValue@v8@@@2@@ZP6AX0V?$Local@VValue@v8@@@2@ABV?$PropertyCallbackInfo@X@2@@Z3W4AccessControl@2@W4PropertyAttribute@2@V?$Local@VAccessorSignature@v8@@@2@@Z 1001502c f   node:node.exe
 0001:00014036       __imp_load_?EmitAsyncDestroy@node@@YAXPAVIsolate@v8@@Uasync_context@1@@Z 10015036 f   node:node.exe
 0001:00014040       __imp_load_?New@Buffer@node@@YA?AV?$MaybeLocal@VObject@v8@@@v8@@PAVIsolate@4@PADIP6AX1PAX@Z2@Z 10015040 f   node:node.exe
 0001:0001404a       __imp_load_?New@Buffer@node@@YA?AV?$MaybeLocal@VObject@v8@@@v8@@PAVIsolate@4@PADI@Z 1001504a f   node:node.exe
 0001:00014054       __imp_load_?Data@Buffer@node@@YAPADV?$Local@VObject@v8@@@v8@@@Z 10015054 f   node:node.exe
 0001:0001405e       __imp_load_?Copy@Buffer@node@@YA?AV?$MaybeLocal@VObject@v8@@@v8@@PAVIsolate@4@PBDI@Z 1001505e f   node:node.exe
 0001:00014068       __imp_load_?MakeCallback@node@@YA?AV?$MaybeLocal@VValue@v8@@@v8@@PAVIsolate@3@V?$Local@VObject@v8@@@3@V?$Local@VFunction@v8@@@3@HPAV?$Local@VValue@v8@@@3@Uasync_context@1@@Z 10015068 f   node:node.exe
 0001:00014072       __imp_load_?EmitAsyncInit@node@@YA?AUasync_context@1@PAVIsolate@v8@@V?$Local@VObject@v8@@@4@V?$Local@VString@v8@@@4@N@Z 10015072 f   node:node.exe
 0001:0001407c       __imp_load__uv_default_loop 1001507c f   node:node.exe
 0001:00014086       __imp_load_?ToObject@Value@v8@@QBE?AV?$Local@VObject@v8@@@2@XZ 10015086 f   node:node.exe
 0001:00014090       __imp_load_?New@Uint8ClampedArray@v8@@SA?AV?$Local@VUint8ClampedArray@v8@@@2@V?$Local@VArrayBuffer@v8@@@2@II@Z 10015090 f   node:node.exe
 0001:0001409a       __imp_load_?New@Integer@v8@@SA?AV?$Local@VInteger@v8@@@2@PAVIsolate@2@H@Z 1001509a f   node:node.exe
 0001:000140a4       __imp_load_?New@Array@v8@@SA?AV?$Local@VArray@v8@@@2@PAVIsolate@2@H@Z 100150a4 f   node:node.exe
 0001:000140ae       __imp_load_?Length@Array@v8@@QBEIXZ 100150ae f   node:node.exe
 0001:000140b8       __imp_load_?GetFunction@FunctionTemplate@v8@@QAE?AV?$MaybeLocal@VFunction@v8@@@2@V?$Local@VContext@v8@@@2@@Z 100150b8 f   node:node.exe
 0001:000140c2       __imp_load_?New@ArrayBuffer@v8@@SA?AV?$Local@VArrayBuffer@v8@@@2@PAVIsolate@2@I@Z 100150c2 f   node:node.exe
 0001:000140cc       __imp_load_?Int32Value@Value@v8@@QBEHXZ 100150cc f   node:node.exe
 0001:000140d6       __imp_load_?ToInt32@Value@v8@@QBE?AV?$MaybeLocal@VInt32@v8@@@2@V?$Local@VContext@v8@@@2@@Z 100150d6 f   node:node.exe
 0001:000140e0       __imp_load_?IsInt32@Value@v8@@QBE_NXZ 100150e0 f   node:node.exe
 0001:000140ea       __imp_load_?IsArray@Value@v8@@QBE_NXZ 100150ea f   node:node.exe
 0001:000140f4       __imp_load_?New@Uint16Array@v8@@SA?AV?$Local@VUint16Array@v8@@@2@V?$Local@VArrayBuffer@v8@@@2@II@Z 100150f4 f   node:node.exe
 0001:000140fe       __imp_load_?Get@Object@v8@@QAE?AV?$Local@VValue@v8@@@2@I@Z 100150fe f   node:node.exe
 0001:00014108       __imp_load_?NewInstance@Function@v8@@QBE?AV?$MaybeLocal@VObject@v8@@@2@V?$Local@VContext@v8@@@2@HQAV?$Local@VValue@v8@@@2@@Z 10015108 f   node:node.exe
 0001:00014112       __imp_load_?ToString@Value@v8@@QBE?AV?$Local@VString@v8@@@2@XZ 10015112 f   node:node.exe
 0001:0001411c       __imp_load_?Call@Function@v8@@QAE?AV?$Local@VValue@v8@@@2@V32@HQAV32@@Z 1001511c f   node:node.exe
 0001:00014126       __imp_load_?HasInstance@Buffer@node@@YA_NV?$Local@VValue@v8@@@v8@@@Z 10015126 f   node:node.exe
 0001:00014130       __imp_load_?Length@Buffer@node@@YAIV?$Local@VObject@v8@@@v8@@@Z 10015130 f   node:node.exe
 0001:0001413a       __imp_load_?IsUint16Array@Value@v8@@QBE_NXZ 1001513a f   node:node.exe
 0001:00014144       __imp_load__node_module_register 10015144 f   node:node.exe
 0001:0001414e       ??0_Init_locks@std@@QAE@XZ 1001514e f   libcpmt:xlock.obj
 0001:0001417b       ??1_Init_locks@std@@QAE@XZ 1001517b f   libcpmt:xlock.obj
 0001:000141a2       ??1_Fac_node@std@@QAE@XZ   100151a2 f i libcpmt:locale0.obj
 0001:00014201       ??1_Fac_tidy_reg_t@std@@QAE@XZ 10015201 f i libcpmt:locale0.obj
 0001:00014228       ??0bad_alloc@std@@QAE@ABV01@@Z 10015228 f i libcpmt:xthrow.obj
 0001:00014243       ??0bad_alloc@std@@QAE@XZ   10015243 f i libcpmt:xthrow.obj
 0001:0001425b       ??0exception@std@@QAE@ABV01@@Z 1001525b f i libcpmt:xthrow.obj
 0001:00014287       ??0exception@std@@QAE@QBD@Z 10015287 f i libcpmt:xthrow.obj
 0001:000142be       ??0length_error@std@@QAE@ABV01@@Z 100152be f i libcpmt:xthrow.obj
 0001:000142d9       ??0length_error@std@@QAE@PBD@Z 100152d9 f i libcpmt:xthrow.obj
 0001:000142fa       ??0logic_error@std@@QAE@ABV01@@Z 100152fa f i libcpmt:xthrow.obj
 0001:00014315       ??0out_of_range@std@@QAE@ABV01@@Z 10015315 f i libcpmt:xthrow.obj
 0001:00014330       ??0out_of_range@std@@QAE@PBD@Z 10015330 f i libcpmt:xthrow.obj
 0001:00014351       ??1bad_array_new_length@std@@UAE@XZ 10015351 f i LIBCMT:throw_bad_alloc.obj
 0001:00014351       ??1length_error@std@@UAE@XZ 10015351 f i libcpmt:xthrow.obj
 0001:00014351       ??1bad_exception@std@@UAE@XZ 10015351 f i libvcruntime:frame.obj
 0001:00014351       ??1bad_alloc@std@@UAE@XZ   10015351 f i libcpmt:xthrow.obj
 0001:00014351       ??1out_of_range@std@@UAE@XZ 10015351 f i libcpmt:xthrow.obj
 0001:00014362       ??_Gbad_exception@std@@UAEPAXI@Z 10015362 f i libvcruntime:frame.obj
 0001:00014362       ??_Gout_of_range@std@@UAEPAXI@Z 10015362 f i libcpmt:xthrow.obj
 0001:00014362       ??_Gexception@std@@UAEPAXI@Z 10015362 f i libcpmt:xthrow.obj
 0001:00014362       ??_Ebad_array_new_length@std@@UAEPAXI@Z 10015362 f i LIBCMT:throw_bad_alloc.obj
 0001:00014362       ??_Glength_error@std@@UAEPAXI@Z 10015362 f i libcpmt:xthrow.obj
 0001:00014362       ??_Elength_error@std@@UAEPAXI@Z 10015362 f i libcpmt:xthrow.obj
 0001:00014362       ??_Gbad_array_new_length@std@@UAEPAXI@Z 10015362 f i LIBCMT:throw_bad_alloc.obj
 0001:00014362       ??_Gbad_alloc@std@@UAEPAXI@Z 10015362 f i libcpmt:xthrow.obj
 0001:00014362       ??_Eexception@std@@UAEPAXI@Z 10015362 f i libcpmt:xthrow.obj
 0001:00014362       ??_Glogic_error@std@@UAEPAXI@Z 10015362 f i libcpmt:xthrow.obj
 0001:00014362       ??_Elogic_error@std@@UAEPAXI@Z 10015362 f i libcpmt:xthrow.obj
 0001:00014362       ??_Ebad_exception@std@@UAEPAXI@Z 10015362 f i libvcruntime:frame.obj
 0001:00014362       ??_Ebad_alloc@std@@UAEPAXI@Z 10015362 f i libcpmt:xthrow.obj
 0001:00014362       ??_Eout_of_range@std@@UAEPAXI@Z 10015362 f i libcpmt:xthrow.obj
 0001:0001438f       ?__scrt_throw_std_bad_alloc@@YAXXZ 1001538f f   LIBCMT:throw_bad_alloc.obj
 0001:0001438f       ?_Xbad_alloc@std@@YAXXZ    1001538f f   libcpmt:xthrow.obj
 0001:000143ac       ?_Xlength_error@std@@YAXPBD@Z 100153ac f   libcpmt:xthrow.obj
 0001:000143cc       ?_Xout_of_range@std@@YAXPBD@Z 100153cc f   libcpmt:xthrow.obj
 0001:000143ec       ?what@exception@std@@UBEPBDXZ 100153ec f i libcpmt:xthrow.obj
 0001:000143f9       __Mtxdst                   100153f9 f   libcpmt:xmtx.obj
 0001:00014407       __Mtxinit                  10015407 f   libcpmt:xmtx.obj
 0001:0001441e       ??1_Init_atexit@@QAE@XZ    1001541e f i libcpmt:iosptrs.obj
 0001:00014482       __freea_crt                10015482 f i libcpmt:StlLCMapStringA.obj
 0001:0001484a       ___crtInitializeCriticalSectionEx 1001584a f   libcpmt:winapisupp.obj
 0001:00014882       @__security_check_cookie@4 10015882 f   LIBCMT:_secchk_.obj
 0001:00014953       ??$__crt_fast_encode_pointer@P6GXPAU_RTL_CONDITION_VARIABLE@@@Z@@YAP6GXPAU_RTL_CONDITION_VARIABLE@@@ZQ6GX0@Z@Z 10015953 f i LIBCMT:thread_safe_statics.obj
 0001:00014953       ??$__crt_fast_encode_pointer@P6GHPAU_RTL_CONDITION_VARIABLE@@PAU_RTL_CRITICAL_SECTION@@K@Z@@YAP6GHPAU_RTL_CONDITION_VARIABLE@@PAU_RTL_CRITICAL_SECTION@@K@ZQ6GH01K@Z@Z 10015953 f i LIBCMT:thread_safe_statics.obj
 0001:00014953       ??$__crt_fast_encode_pointer@PAP6AXXZ@@YAPAP6AXXZQAP6AXXZ@Z 10015953 f i LIBCMT:utility.obj
 0001:00014953       ??$__crt_fast_encode_pointer@PAX@@YAPAXQAX@Z 10015953 f i libvcruntime:winapi_downlevel.obj
 0001:0001498c       ??2@YAPAXI@Z               1001598c f   LIBCMT:new_scalar.obj
 0001:00014a03       ___scrt_acquire_startup_lock 10015a03 f   LIBCMT:utility.obj
 0001:00014a38       ___scrt_dllmain_after_initialize_c 10015a38 f   LIBCMT:utility.obj
 0001:00014a63       ___scrt_dllmain_before_initialize_c 10015a63 f   LIBCMT:utility.obj
 0001:00014a71       ___scrt_dllmain_crt_thread_attach 10015a71 f   LIBCMT:utility.obj
 0001:00014a90       ___scrt_dllmain_crt_thread_detach 10015a90 f   LIBCMT:utility.obj
 0001:00014a9d       ___scrt_dllmain_exception_filter 10015a9d f   LIBCMT:utility.obj
 0001:00014ad0       ___scrt_dllmain_uninitialize_c 10015ad0 f   LIBCMT:utility.obj
 0001:00014af3       ___scrt_dllmain_uninitialize_critical 10015af3 f   LIBCMT:utility.obj
 0001:00014b00       ___scrt_initialize_crt     10015b00 f   LIBCMT:utility.obj
 0001:00014b39       ___scrt_initialize_onexit_tables 10015b39 f   LIBCMT:utility.obj
 0001:00014bd0       ___scrt_is_nonwritable_in_current_image 10015bd0 f   LIBCMT:utility.obj
 0001:00014c5a       ___scrt_release_startup_lock 10015c5a f   LIBCMT:utility.obj
 0001:00014c77       ___scrt_uninitialize_crt   10015c77 f   LIBCMT:utility.obj
 0001:00014c9f       __onexit                   10015c9f f   LIBCMT:utility.obj
 0001:00014cda       _atexit                    10015cda f   LIBCMT:utility.obj
 0001:00014cef       ??3@YAXPAX@Z               10015cef f   LIBCMT:delete_scalar.obj
 0001:00014cf4       ??3@YAXPAXI@Z              10015cf4 f   LIBCMT:delete_scalar_size.obj
 0001:0001500a       __DllMainCRTStartup@12     1001600a f   LIBCMT:dll_dllmain.obj
 0001:0001502d       @_guard_check_icall@4      1001602d f i LIBCMT:checkcfg.obj
 0001:00015033       __EH_prolog3_catch         10016033 f   LIBCMT:ehprolg3.obj
 0001:0001506a       ??_Etype_info@@UAEPAXI@Z   1001606a f i LIBCMT:std_type_info_static.obj
 0001:0001506a       ??_Gtype_info@@UAEPAXI@Z   1001606a f i LIBCMT:std_type_info_static.obj
 0001:00015090       __alloca_probe_16          10016090 f   LIBCMT:alloca16.obj
 0001:000150a6       __alloca_probe_8           100160a6     LIBCMT:alloca16.obj
 0001:000150c0       __allmul                   100160c0 f   LIBCMT:llmul.obj
 0001:00015100       __aulldiv                  10016100 f   LIBCMT:ulldiv.obj
 0001:00015168       ___raise_securityfailure   10016168 f   LIBCMT:gs_report.obj
 0001:00015190       ___report_gsfailure        10016190 f   LIBCMT:gs_report.obj
 0001:0001528b       ___scrt_fastfail           1001628b f   LIBCMT:utility_desktop.obj
 0001:000153a6       __crt_debugger_hook        100163a6 f   LIBCMT:utility_desktop.obj
 0001:000153ae       ??0bad_array_new_length@std@@QAE@ABV01@@Z 100163ae f i LIBCMT:throw_bad_alloc.obj
 0001:000153c9       ??0bad_array_new_length@std@@QAE@XZ 100163c9 f i LIBCMT:throw_bad_alloc.obj
 0001:000153e1       ?__scrt_throw_std_bad_array_new_length@@YAXXZ 100163e1 f   LIBCMT:throw_bad_alloc.obj
 0001:000153fe       ___isa_available_init      100163fe f   LIBCMT:_cpu_disp_.obj
 0001:00015598       __get_startup_argv_mode    10016598 f   LIBCMT:argv_mode.obj
 0001:0001559c       ___scrt_is_ucrt_dll_in_use 1001659c f   LIBCMT:ucrt_detection.obj
 0001:000155b0       __SEH_prolog4              100165b0 f   LIBCMT:_sehprolg4_.obj
 0001:000155f6       __SEH_epilog4              100165f6 f   LIBCMT:_sehprolg4_.obj
 0001:0001560b       ___security_init_cookie    1001660b f   LIBCMT:gs_support.obj
 0001:000156a7       _DllMain@12                100166a7 f   LIBCMT:dll_dllmain_stub.obj
 0001:000156ad       ?__scrt_initialize_type_info@@YAXXZ 100166ad f   LIBCMT:tncleanup.obj
 0001:000156b9       ?__scrt_uninitialize_type_info@@YAXXZ 100166b9 f   LIBCMT:tncleanup.obj
 0001:000156c5       ___local_stdio_scanf_options 100166c5 f i LIBCMT:default_local_stdio_options.obj
 0001:000156cb       ___scrt_initialize_default_local_stdio_options 100166cb f   LIBCMT:default_local_stdio_options.obj
 0001:000156e8       ___scrt_get_dyn_tls_init_callback 100166e8 f   LIBCMT:dyn_tls_init.obj
 0001:000156ee       __RTC_Initialize           100166ee f   LIBCMT:_initsect_.obj
 0001:00015719       __RTC_Terminate            10016719 f   LIBCMT:_initsect_.obj
 0001:00015750       __alloca_probe             10016750 f   LIBCMT:chkstk.obj
 0001:00015750       __chkstk                   10016750 f   LIBCMT:chkstk.obj
 0001:00015780       _memmove                   10016780 f   libvcruntime:memmove.obj
 0001:00015cf4       __get_purecall_handler     10016cf4 f   libvcruntime:purevirt.obj
 0001:00015d13       __purecall                 10016d13 f   libvcruntime:purevirt.obj
 0001:00015d2e       ___DestructExceptionObject 10016d2e f   libvcruntime:frame.obj
 0001:00015dc2       ??0bad_exception@std@@QAE@ABV01@@Z 10016dc2 f i libvcruntime:frame.obj
 0001:00015ddd       ??0bad_exception@std@@QAE@XZ 10016ddd f i libvcruntime:frame.obj
 0001:0001660e       ?_CallMemberFunction2@@YGXQAX00H@Z 1001760e f i libvcruntime:frame.obj
 0001:0001660e       ?_CallMemberFunction0@@YGXQAX0@Z 1001760e f i libvcruntime:frame.obj
 0001:0001660e       ?_CallMemberFunction1@@YGXQAX00@Z 1001760e f i libvcruntime:frame.obj
 0001:00016615       ___AdjustPointer           10017615 f   libvcruntime:frame.obj
 0001:0001663a       ___BuildCatchObject        1001763a f   libvcruntime:frame.obj
 0001:000166c9       ___BuildCatchObjectHelper  100176c9 f   libvcruntime:frame.obj
 0001:000167f7       ___FrameUnwindFilter       100177f7 f   libvcruntime:frame.obj
 0001:0001683c       ___FrameUnwindToState      1001783c f   libvcruntime:frame.obj
 0001:00016904       ___InternalCxxFrameHandler 10017904 f   libvcruntime:frame.obj
 0001:00016a00       ___TypeMatch               10017a00 f   libvcruntime:frame.obj
 0001:00016a8e       ___std_terminate           10017a8e f   libvcruntime:frame.obj
 0001:00016a93       _longjmp                   10017a93 f   libvcruntime:longjmpc.obj
 0001:00016ab0       _strstr                    10017ab0 f   libvcruntime:strstr.obj
 0001:00016d13       ?_CallCatchBlock2@@YAPAXPAUEHRegistrationNode@@PBU_s_FuncInfo@@PAXHK@Z 10017d13 f   libvcruntime:trnsctrl.obj
 0001:00016d73       ?_CallSETranslator@@YAHPAUEHExceptionRecord@@PAUEHRegistrationNode@@PAX2PBU_s_FuncInfo@@H1@Z 10017d73 f   libvcruntime:trnsctrl.obj
 0001:00016e50       ?_GetRangeOfTrysToCheck@@YAPBU_s_TryBlockMapEntry@@PBU_s_FuncInfo@@HHPAI1@Z 10017e50 f   libvcruntime:trnsctrl.obj
 0001:00016ec8       ?_JumpToContinuation@@YGXPAXPAUEHRegistrationNode@@@Z 10017ec8 f   libvcruntime:trnsctrl.obj
 0001:00016efa       ?_UnwindNestedFrames@@YGXPAUEHRegistrationNode@@PAUEHExceptionRecord@@@Z 10017efa f   libvcruntime:trnsctrl.obj
 0001:00016f4f       __CatchGuardHandler        10017f4f f   libvcruntime:trnsctrl.obj
 0001:00016f80       __CreateFrameInfo          10017f80 f   libvcruntime:trnsctrl.obj
 0001:00016fa4       __FindAndUnlinkFrame       10017fa4 f   libvcruntime:trnsctrl.obj
 0001:00016fee       __IsExceptionObjectToBeDestroyed 10017fee f   libvcruntime:trnsctrl.obj
 0001:00017014       __TranslatorGuardHandler   10018014 f   libvcruntime:trnsctrl.obj
 0001:000170b3       ___CxxFrameHandler3        100180b3 f   libvcruntime:trnsctrl.obj
 0001:000170f0       _memcpy                    100180f0 f   libvcruntime:memcpy.obj
 0001:00017664       ___std_exception_copy      10018664 f   libvcruntime:std_exception.obj
 0001:000176c7       ___std_exception_destroy   100186c7 f   libvcruntime:std_exception.obj
 0001:000176e6       __CxxThrowException@8      100186e6 f   libvcruntime:throw.obj
 0001:00017760       _memset                    10018760 f   libvcruntime:memset.obj
 0001:000178c0       _memchr                    100188c0 f   libvcruntime:memchr.obj
 0001:00017a8e       ___vcrt_FlsAlloc           10018a8e f   libvcruntime:winapi_downlevel.obj
 0001:00017ac8       ___vcrt_FlsFree            10018ac8 f   libvcruntime:winapi_downlevel.obj
 0001:00017b02       ___vcrt_FlsGetValue        10018b02 f   libvcruntime:winapi_downlevel.obj
 0001:00017b3c       ___vcrt_FlsSetValue        10018b3c f   libvcruntime:winapi_downlevel.obj
 0001:00017b79       ___vcrt_InitializeCriticalSectionEx 10018b79 f   libvcruntime:winapi_downlevel.obj
 0001:00017bbf       ___vcrt_initialize_winapi_thunks 10018bbf f   libvcruntime:winapi_downlevel.obj
 0001:00017bf9       ___vcrt_uninitialize_winapi_thunks 10018bf9 f   libvcruntime:winapi_downlevel.obj
 0001:00017c2b       ___vcrt_initialize         10018c2b f   libvcruntime:initialization.obj
 0001:00017c54       ___vcrt_thread_attach      10018c54 f   libvcruntime:initialization.obj
 0001:00017c5f       ___vcrt_thread_detach      10018c5f f   libvcruntime:initialization.obj
 0001:00017c6a       ___vcrt_uninitialize       10018c6a f   libvcruntime:initialization.obj
 0001:00017c89       ___vcrt_uninitialize_critical 10018c89 f   libvcruntime:initialization.obj
 0001:00017ce0       __except_handler4          10018ce0 f   libvcruntime:_chandler4_.obj
 0001:00017e46       ___std_type_info_compare   10018e46 f   libvcruntime:std_type_info.obj
 0001:00017e82       ___std_type_info_destroy_list 10018e82 f   libvcruntime:std_type_info.obj
 0001:00017ea5       ___vcrt_initialize_pure_virtual_call_handler 10018ea5 f   libvcruntime:purevirt_data.obj
 0001:00017ec2       _unexpected                10018ec2 f   libvcruntime:unexpected.obj
 0001:00017ede       ___vcrt_freefls@4          10018ede f   libvcruntime:per_thread_data.obj
 0001:00017efa       ___vcrt_freeptd            10018efa f   libvcruntime:per_thread_data.obj
 0001:00017f30       ___vcrt_getptd             10018f30 f   libvcruntime:per_thread_data.obj
 0001:00017f3e       ___vcrt_getptd_noexit      10018f3e f   libvcruntime:per_thread_data.obj
 0001:00017fd0       ___vcrt_initialize_ptd     10018fd0 f   libvcruntime:per_thread_data.obj
 0001:00018003       ___vcrt_uninitialize_ptd   10019003 f   libvcruntime:per_thread_data.obj
 0001:00018020       __CallSettingFrame@12      10019020 f   libvcruntime:lowhelpr.obj
 0001:00018047       __NLG_Return               10019047     libvcruntime:lowhelpr.obj
 0001:00018070       ___longjmp_internal        10019070 f   libvcruntime:_longjmp_.obj
 0001:00018130       _strchr                    10019130 f   libvcruntime:strchr.obj
 0001:0001819e       ___from_strstr_to_strchr   1001919e     libvcruntime:strchr.obj
 0001:0001825b       ___vcrt_initialize_locks   1001925b f   libvcruntime:locks.obj
 0001:00018297       ___vcrt_uninitialize_locks 10019297 f   libvcruntime:locks.obj
 0001:000182d0       __local_unwind4            100192d0 f   libvcruntime:_exsup4_.obj
 0001:000183a6       __seh_longjmp_unwind4@4    100193a6 f   libvcruntime:_exsup4_.obj
 0001:000183ce       @_EH4_CallFilterFunc@8     100193ce f   libvcruntime:_exsup4_.obj
 0001:000183e5       @_EH4_TransferToHandler@8  100193e5 f   libvcruntime:_exsup4_.obj
 0001:000183fe       @_EH4_GlobalUnwind2@8      100193fe f   libvcruntime:_exsup4_.obj
 0001:00018417       @_EH4_LocalUnwind@16       10019417 f   libvcruntime:_exsup4_.obj
 0001:00018430       __global_unwind2           10019430 f   libvcruntime:_exsup_.obj
 0001:00018495       __local_unwind2            10019495 f   libvcruntime:_exsup_.obj
 0001:00018519       __abnormal_termination     10019519 f   libvcruntime:_exsup_.obj
 0001:0001853c       __NLG_Notify1              1001953c f   libvcruntime:_exsup_.obj
 0001:00018545       __NLG_Notify               10019545 f   libvcruntime:_exsup_.obj
 0001:0001855c       __NLG_Dispatch2            1001955c     libvcruntime:_exsup_.obj
 0001:0001855c       __NLG_Dispatch             1001955c     libvcruntime:_exsup_.obj
 0001:00018564       __NLG_Call                 10019564 f   libvcruntime:_exsup_.obj
 0001:00018566       __NLG_Return2              10019566     libvcruntime:_exsup_.obj
 0001:00018567       __rt_probe_read4@4         10019567 f   libvcruntime:_sehsupp_.obj
 0001:000185ab       _abort                     100195ab f   libucrt:abort.obj
 0001:000185ee       ___acrt_call_reportfault   100195ee f   libucrt:invalid_parameter.obj
 0001:00018729       ___acrt_initialize_invalid_parameter_handler 10019729 f   libucrt:invalid_parameter.obj
 0001:0001873d       __invalid_parameter        1001973d f   libucrt:invalid_parameter.obj
 0001:000187b8       __invalid_parameter_noinfo 100197b8 f   libucrt:invalid_parameter.obj
 0001:000187c8       __invalid_parameter_noinfo_noreturn 100197c8 f   libucrt:invalid_parameter.obj
 0001:000187e5       __invoke_watson            100197e5 f   libucrt:invalid_parameter.obj
 0001:00018818       _free                      10019818 f   libucrt:free.obj
 0001:00018e81       ??$ftprintf@PAU_iobuf@@PB_WABQB_WABQB_WABI@?$__crt_char_traits@_W@@SAH$$QAPAU_iobuf@@$$QAPB_WABQB_W2ABI@Z 10019e81 f i libucrt:assert.obj
 0001:00018f60       __vfwprintf_l              10019f60 f i libucrt:assert.obj
 0001:00018f85       __vswprintf_c_l            10019f85 f i libucrt:assert.obj
 0001:00018fb4       __wassert                  10019fb4 f   libucrt:assert.obj
 0001:00018ffc       _fwprintf                  10019ffc f i libucrt:assert.obj
 0001:00019017       _swprintf                  1001a017 f i libucrt:assert.obj
 0001:00019035       _malloc                    1001a035 f   libucrt:malloc.obj
 0001:00019040       __finite                   1001a040 f   libucrt:ieeemisc.obj
 0001:0001905a       __fpclass                  1001a05a f   libucrt:ieeemisc.obj
 0001:000190fe       __isnan                    1001a0fe f   libucrt:ieeemisc.obj
 0001:00019134       ___acrt_initialize_stdio   1001a134 f   libucrt:_file.obj
 0001:000191fc       ___acrt_iob_func           1001a1fc f   libucrt:_file.obj
 0001:0001920c       ___acrt_uninitialize_stdio 1001a20c f   libucrt:_file.obj
 0001:00019258       __lock_file                1001a258 f   libucrt:_file.obj
 0001:0001926c       __unlock_file              1001a26c f   libucrt:_file.obj
 0001:00019280       ??$?RV<lambda_ab9923ffb5d694ec0d78876dd103e44f>@@AAV<lambda_481dd5778c961fbcd3b60b650e9b9dc4>@@V<lambda_7923d86c9e3f319b415918ec4b39749c>@@@?$__crt_seh_guarded_call@H@@QAEH$$QAV<lambda_ab9923ffb5d694ec0d78876dd103e44f>@@AAV<lambda_481dd5778c961fbcd3b60b650e9b9dc4>@@$$QAV<lambda_7923d86c9e3f319b415918ec4b39749c>@@@Z 1001a280 f i libucrt:output.obj
 0001:000192d1       ??$__acrt_lock_stream_and_call@V<lambda_481dd5778c961fbcd3b60b650e9b9dc4>@@@@YAHQAU_iobuf@@$$QAV<lambda_481dd5778c961fbcd3b60b650e9b9dc4>@@@Z 1001a2d1 f i libucrt:output.obj
 0001:000195fa       ??$count@D@formatting_buffer@__crt_stdio_output@@QBEIXZ 1001a5fa f i libucrt:output.obj
 0001:00019612       ??$ensure_buffer_is_big_enough@D@formatting_buffer@__crt_stdio_output@@QAE_NI@Z 1001a612 f i libucrt:output.obj
 0001:00019698       ??$is_wide_character_specifier@D@__crt_stdio_output@@YA_N_KDW4length_modifier@0@@Z 1001a698 f i libucrt:output.obj
 0001:000196d8       ??$is_wide_character_specifier@_W@__crt_stdio_output@@YA_N_K_WW4length_modifier@0@@Z 1001a6d8 f i libucrt:output.obj
 0001:00019727       ??$scratch_data@D@formatting_buffer@__crt_stdio_output@@QAEPADXZ 1001a727 f i libucrt:output.obj
 0001:00019745       ??$type_case_integer_parse_into_buffer@I@?$output_processor@_WV?$stream_output_adapter@_W@__crt_stdio_output@@V?$standard_base@_WV?$stream_output_adapter@_W@__crt_stdio_output@@@2@@__crt_stdio_output@@AAEXII_N@Z 1001a745 f i libucrt:output.obj
 0001:00019745       ??$type_case_integer_parse_into_buffer@I@?$output_processor@DV?$string_output_adapter@D@__crt_stdio_output@@V?$standard_base@DV?$string_output_adapter@D@__crt_stdio_output@@@2@@__crt_stdio_output@@AAEXII_N@Z 1001a745 f i libucrt:output.obj
 0001:00019745       ??$type_case_integer_parse_into_buffer@I@?$output_processor@_WV?$string_output_adapter@_W@__crt_stdio_output@@V?$standard_base@_WV?$string_output_adapter@_W@__crt_stdio_output@@@2@@__crt_stdio_output@@AAEXII_N@Z 1001a745 f i libucrt:output.obj
 0001:000197ba       ??$type_case_integer_parse_into_buffer@_K@?$output_processor@_WV?$stream_output_adapter@_W@__crt_stdio_output@@V?$standard_base@_WV?$stream_output_adapter@_W@__crt_stdio_output@@@2@@__crt_stdio_output@@AAEX_KI_N@Z 1001a7ba f i libucrt:output.obj
 0001:000197ba       ??$type_case_integer_parse_into_buffer@_K@?$output_processor@_WV?$string_output_adapter@_W@__crt_stdio_output@@V?$standard_base@_WV?$string_output_adapter@_W@__crt_stdio_output@@@2@@__crt_stdio_output@@AAEX_KI_N@Z 1001a7ba f i libucrt:output.obj
 0001:000197ba       ??$type_case_integer_parse_into_buffer@_K@?$output_processor@DV?$string_output_adapter@D@__crt_stdio_output@@V?$standard_base@DV?$string_output_adapter@D@__crt_stdio_output@@@2@@__crt_stdio_output@@AAEX_KI_N@Z 1001a7ba f i libucrt:output.obj
 0001:00019842       ??$write_multiple_characters@V?$stream_output_adapter@_W@__crt_stdio_output@@D@__crt_stdio_output@@YAXABV?$stream_output_adapter@_W@0@DHQAH@Z 1001a842 f i libucrt:output.obj
 0001:00019873       ??$write_multiple_characters@V?$string_output_adapter@D@__crt_stdio_output@@D@__crt_stdio_output@@YAXABV?$string_output_adapter@D@0@DHQAH@Z 1001a873 f i libucrt:output.obj
 0001:0001989f       ??$write_multiple_characters@V?$string_output_adapter@_W@__crt_stdio_output@@D@__crt_stdio_output@@YAXABV?$string_output_adapter@_W@0@DHQAH@Z 1001a89f f i libucrt:output.obj
 0001:000198d0       ??0?$common_data@D@__crt_stdio_output@@IAE@XZ 1001a8d0 f i libucrt:output.obj
 0001:00019917       ??0?$common_data@_W@__crt_stdio_output@@IAE@XZ 1001a917 f i libucrt:output.obj
 0001:00019963       ??0?$output_adapter_data@DV?$string_output_adapter@D@__crt_stdio_output@@@__crt_stdio_output@@IAE@ABV?$string_output_adapter@D@1@_KQBDQAU__crt_locale_pointers@@QAD@Z 1001a963 f i libucrt:output.obj
 0001:0001999f       ??0?$output_adapter_data@_WV?$stream_output_adapter@_W@__crt_stdio_output@@@__crt_stdio_output@@IAE@ABV?$stream_output_adapter@_W@1@_KQB_WQAU__crt_locale_pointers@@QAD@Z 1001a99f f i libucrt:output.obj
 0001:0001999f       ??0?$output_adapter_data@_WV?$string_output_adapter@_W@__crt_stdio_output@@@__crt_stdio_output@@IAE@ABV?$string_output_adapter@_W@1@_KQB_WQAU__crt_locale_pointers@@QAD@Z 1001a99f f i libucrt:output.obj
 0001:000199db       ??0?$output_processor@DV?$string_output_adapter@D@__crt_stdio_output@@V?$standard_base@DV?$string_output_adapter@D@__crt_stdio_output@@@2@@__crt_stdio_output@@QAE@ABV?$string_output_adapter@D@1@_KQBDQAU__crt_locale_pointers@@QAD@Z 1001a9db f i libucrt:output.obj
 0001:00019a10       ??0?$output_processor@_WV?$stream_output_adapter@_W@__crt_stdio_output@@V?$standard_base@_WV?$stream_output_adapter@_W@__crt_stdio_output@@@2@@__crt_stdio_output@@QAE@ABV?$stream_output_adapter@_W@1@_KQB_WQAU__crt_locale_pointers@@QAD@Z 1001aa10 f i libucrt:output.obj
 0001:00019a10       ??0?$output_processor@_WV?$string_output_adapter@_W@__crt_stdio_output@@V?$standard_base@_WV?$string_output_adapter@_W@__crt_stdio_output@@@2@@__crt_stdio_output@@QAE@ABV?$string_output_adapter@_W@1@_KQB_WQAU__crt_locale_pointers@@QAD@Z 1001aa10 f i libucrt:output.obj
 0001:00019a45       ??0_LocaleUpdate@@QAE@QAU__crt_locale_pointers@@@Z 1001aa45 f i libucrt:output.obj
 0001:00019ac8       ??1formatting_buffer@__crt_stdio_output@@QAE@XZ 1001aac8 f i libucrt:output.obj
 0001:00019ae2       ??4?$__crt_unique_heap_ptr@DU__crt_internal_free_policy@@@@QAEAAV0@$$QAV0@@Z 1001aae2 f i libucrt:output.obj
 0001:00019bc3       ?crop_zeroes@__crt_stdio_output@@YAXPADQAU__crt_locale_pointers@@@Z 1001abc3 f i libucrt:output.obj
 0001:00019c1a       ?find_next_state@?$output_processor@DV?$string_output_adapter@D@__crt_stdio_output@@V?$standard_base@DV?$string_output_adapter@D@__crt_stdio_output@@@2@@__crt_stdio_output@@ABE?AW4state@2@DW432@@Z 1001ac1a f i libucrt:output.obj
 0001:00019c4c       ?find_next_state@?$output_processor@_WV?$string_output_adapter@_W@__crt_stdio_output@@V?$standard_base@_WV?$string_output_adapter@_W@__crt_stdio_output@@@2@@__crt_stdio_output@@ABE?AW4state@2@_WW432@@Z 1001ac4c f i libucrt:output.obj
 0001:00019c4c       ?find_next_state@?$output_processor@_WV?$stream_output_adapter@_W@__crt_stdio_output@@V?$standard_base@_WV?$stream_output_adapter@_W@__crt_stdio_output@@@2@@__crt_stdio_output@@ABE?AW4state@2@_WW432@@Z 1001ac4c f i libucrt:output.obj
 0001:00019c80       ?force_decimal_point@__crt_stdio_output@@YAXPADQAU__crt_locale_pointers@@@Z 1001ac80 f i libucrt:output.obj
 0001:00019cdc       ?parse_int_from_format_string@?$output_processor@DV?$string_output_adapter@D@__crt_stdio_output@@V?$standard_base@DV?$string_output_adapter@D@__crt_stdio_output@@@2@@__crt_stdio_output@@AAE_NQAH@Z 1001acdc f i libucrt:output.obj
 0001:00019d38       ?parse_int_from_format_string@?$output_processor@_WV?$stream_output_adapter@_W@__crt_stdio_output@@V?$standard_base@_WV?$stream_output_adapter@_W@__crt_stdio_output@@@2@@__crt_stdio_output@@AAE_NQAH@Z 1001ad38 f i libucrt:output.obj
 0001:00019d38       ?parse_int_from_format_string@?$output_processor@_WV?$string_output_adapter@_W@__crt_stdio_output@@V?$standard_base@_WV?$string_output_adapter@_W@__crt_stdio_output@@@2@@__crt_stdio_output@@AAE_NQAH@Z 1001ad38 f i libucrt:output.obj
 0001:00019d96       ?process@?$output_processor@DV?$string_output_adapter@D@__crt_stdio_output@@V?$standard_base@DV?$string_output_adapter@D@__crt_stdio_output@@@2@@__crt_stdio_output@@QAEHXZ 1001ad96 f i libucrt:output.obj
 0001:00019eb2       ?process@?$output_processor@_WV?$stream_output_adapter@_W@__crt_stdio_output@@V?$standard_base@_WV?$stream_output_adapter@_W@__crt_stdio_output@@@2@@__crt_stdio_output@@QAEHXZ 1001aeb2 f i libucrt:output.obj
 0001:00019fd2       ?process@?$output_processor@_WV?$string_output_adapter@_W@__crt_stdio_output@@V?$standard_base@_WV?$string_output_adapter@_W@__crt_stdio_output@@@2@@__crt_stdio_output@@QAEHXZ 1001afd2 f i libucrt:output.obj
 0001:0001a0f2       ?state_case_flag@?$output_processor@DV?$string_output_adapter@D@__crt_stdio_output@@V?$standard_base@DV?$string_output_adapter@D@__crt_stdio_output@@@2@@__crt_stdio_output@@AAE_NXZ 1001b0f2 f i libucrt:output.obj
 0001:0001a12f       ?state_case_flag@?$output_processor@_WV?$string_output_adapter@_W@__crt_stdio_output@@V?$standard_base@_WV?$string_output_adapter@_W@__crt_stdio_output@@@2@@__crt_stdio_output@@AAE_NXZ 1001b12f f i libucrt:output.obj
 0001:0001a12f       ?state_case_flag@?$output_processor@_WV?$stream_output_adapter@_W@__crt_stdio_output@@V?$standard_base@_WV?$stream_output_adapter@_W@__crt_stdio_output@@@2@@__crt_stdio_output@@AAE_NXZ 1001b12f f i libucrt:output.obj
 0001:0001a16c       ?state_case_normal@?$output_processor@DV?$string_output_adapter@D@__crt_stdio_output@@V?$standard_base@DV?$string_output_adapter@D@__crt_stdio_output@@@2@@__crt_stdio_output@@AAE_NXZ 1001b16c f i libucrt:output.obj
 0001:0001a18b       ?state_case_normal@?$output_processor@_WV?$stream_output_adapter@_W@__crt_stdio_output@@V?$standard_base@_WV?$stream_output_adapter@_W@__crt_stdio_output@@@2@@__crt_stdio_output@@AAE_NXZ 1001b18b f i libucrt:output.obj
 0001:0001a1aa       ?state_case_normal@?$output_processor@_WV?$string_output_adapter@_W@__crt_stdio_output@@V?$standard_base@_WV?$string_output_adapter@_W@__crt_stdio_output@@@2@@__crt_stdio_output@@AAE_NXZ 1001b1aa f i libucrt:output.obj
 0001:0001a1c9       ?state_case_normal_common@?$output_processor@DV?$string_output_adapter@D@__crt_stdio_output@@V?$standard_base@DV?$string_output_adapter@D@__crt_stdio_output@@@2@@__crt_stdio_output@@AAE_NXZ 1001b1c9 f i libucrt:output.obj
 0001:0001a1f3       ?state_case_normal_common@?$output_processor@_WV?$stream_output_adapter@_W@__crt_stdio_output@@V?$standard_base@_WV?$stream_output_adapter@_W@__crt_stdio_output@@@2@@__crt_stdio_output@@AAE_NXZ 1001b1f3 f i libucrt:output.obj
 0001:0001a20e       ?state_case_normal_common@?$output_processor@_WV?$string_output_adapter@_W@__crt_stdio_output@@V?$standard_base@_WV?$string_output_adapter@_W@__crt_stdio_output@@@2@@__crt_stdio_output@@AAE_NXZ 1001b20e f i libucrt:output.obj
 0001:0001a229       ?state_case_normal_tchar@?$output_processor@DV?$string_output_adapter@D@__crt_stdio_output@@V?$standard_base@DV?$string_output_adapter@D@__crt_stdio_output@@@2@@__crt_stdio_output@@AAE_ND@Z 1001b229 f i libucrt:output.obj
 0001:0001a28a       ?state_case_precision@?$output_processor@DV?$string_output_adapter@D@__crt_stdio_output@@V?$standard_base@DV?$string_output_adapter@D@__crt_stdio_output@@@2@@__crt_stdio_output@@AAE_NXZ 1001b28a f i libucrt:output.obj
 0001:0001a2b2       ?state_case_precision@?$output_processor@_WV?$string_output_adapter@_W@__crt_stdio_output@@V?$standard_base@_WV?$string_output_adapter@_W@__crt_stdio_output@@@2@@__crt_stdio_output@@AAE_NXZ 1001b2b2 f i libucrt:output.obj
 0001:0001a2b2       ?state_case_precision@?$output_processor@_WV?$stream_output_adapter@_W@__crt_stdio_output@@V?$standard_base@_WV?$stream_output_adapter@_W@__crt_stdio_output@@@2@@__crt_stdio_output@@AAE_NXZ 1001b2b2 f i libucrt:output.obj
 0001:0001a2db       ?state_case_size@?$output_processor@DV?$string_output_adapter@D@__crt_stdio_output@@V?$standard_base@DV?$string_output_adapter@D@__crt_stdio_output@@@2@@__crt_stdio_output@@AAE_NXZ 1001b2db f i libucrt:output.obj
 0001:0001a444       ?state_case_size@?$output_processor@_WV?$stream_output_adapter@_W@__crt_stdio_output@@V?$standard_base@_WV?$stream_output_adapter@_W@__crt_stdio_output@@@2@@__crt_stdio_output@@AAE_NXZ 1001b444 f i libucrt:output.obj
 0001:0001a5c0       ?state_case_size@?$output_processor@_WV?$string_output_adapter@_W@__crt_stdio_output@@V?$standard_base@_WV?$string_output_adapter@_W@__crt_stdio_output@@@2@@__crt_stdio_output@@AAE_NXZ 1001b5c0 f i libucrt:output.obj
 0001:0001a73c       ?state_case_type@?$output_processor@DV?$string_output_adapter@D@__crt_stdio_output@@V?$standard_base@DV?$string_output_adapter@D@__crt_stdio_output@@@2@@__crt_stdio_output@@AAE_NXZ 1001b73c f i libucrt:output.obj
 0001:0001a96b       ?state_case_type@?$output_processor@_WV?$stream_output_adapter@_W@__crt_stdio_output@@V?$standard_base@_WV?$stream_output_adapter@_W@__crt_stdio_output@@@2@@__crt_stdio_output@@AAE_NXZ 1001b96b f i libucrt:output.obj
 0001:0001abc8       ?state_case_type@?$output_processor@_WV?$string_output_adapter@_W@__crt_stdio_output@@V?$standard_base@_WV?$string_output_adapter@_W@__crt_stdio_output@@@2@@__crt_stdio_output@@AAE_NXZ 1001bbc8 f i libucrt:output.obj
 0001:0001ae25       ?state_case_width@?$output_processor@DV?$string_output_adapter@D@__crt_stdio_output@@V?$standard_base@DV?$string_output_adapter@D@__crt_stdio_output@@@2@@__crt_stdio_output@@AAE_NXZ 1001be25 f i libucrt:output.obj
 0001:0001ae50       ?state_case_width@?$output_processor@_WV?$stream_output_adapter@_W@__crt_stdio_output@@V?$standard_base@_WV?$stream_output_adapter@_W@__crt_stdio_output@@@2@@__crt_stdio_output@@AAE_NXZ 1001be50 f i libucrt:output.obj
 0001:0001ae50       ?state_case_width@?$output_processor@_WV?$string_output_adapter@_W@__crt_stdio_output@@V?$standard_base@_WV?$string_output_adapter@_W@__crt_stdio_output@@@2@@__crt_stdio_output@@AAE_NXZ 1001be50 f i libucrt:output.obj
 0001:0001ae7c       ?to_integer_size@__crt_stdio_output@@YAIW4length_modifier@1@@Z 1001be7c f i libucrt:output.obj
 0001:0001aed8       ?type_case_Z@?$output_processor@DV?$string_output_adapter@D@__crt_stdio_output@@V?$standard_base@DV?$string_output_adapter@D@__crt_stdio_output@@@2@@__crt_stdio_output@@AAE_NXZ 1001bed8 f i libucrt:output.obj
 0001:0001af3b       ?type_case_Z@?$output_processor@_WV?$stream_output_adapter@_W@__crt_stdio_output@@V?$standard_base@_WV?$stream_output_adapter@_W@__crt_stdio_output@@@2@@__crt_stdio_output@@AAE_NXZ 1001bf3b f i libucrt:output.obj
 0001:0001af3b       ?type_case_Z@?$output_processor@_WV?$string_output_adapter@_W@__crt_stdio_output@@V?$standard_base@_WV?$string_output_adapter@_W@__crt_stdio_output@@@2@@__crt_stdio_output@@AAE_NXZ 1001bf3b f i libucrt:output.obj
 0001:0001af9e       ?type_case_a@?$output_processor@DV?$string_output_adapter@D@__crt_stdio_output@@V?$standard_base@DV?$string_output_adapter@D@__crt_stdio_output@@@2@@__crt_stdio_output@@AAE_NXZ 1001bf9e f i libucrt:output.obj
 0001:0001b0f8       ?type_case_a@?$output_processor@_WV?$string_output_adapter@_W@__crt_stdio_output@@V?$standard_base@_WV?$string_output_adapter@_W@__crt_stdio_output@@@2@@__crt_stdio_output@@AAE_NXZ 1001c0f8 f i libucrt:output.obj
 0001:0001b0f8       ?type_case_a@?$output_processor@_WV?$stream_output_adapter@_W@__crt_stdio_output@@V?$standard_base@_WV?$stream_output_adapter@_W@__crt_stdio_output@@@2@@__crt_stdio_output@@AAE_NXZ 1001c0f8 f i libucrt:output.obj
 0001:0001b26a       ?type_case_c_tchar@?$output_processor@DV?$string_output_adapter@D@__crt_stdio_output@@V?$standard_base@DV?$string_output_adapter@D@__crt_stdio_output@@@2@@__crt_stdio_output@@AAE_ND@Z 1001c26a f i libucrt:output.obj
 0001:0001b2fa       ?type_case_c_tchar@?$output_processor@_WV?$stream_output_adapter@_W@__crt_stdio_output@@V?$standard_base@_WV?$stream_output_adapter@_W@__crt_stdio_output@@@2@@__crt_stdio_output@@AAE_N_W@Z 1001c2fa f i libucrt:output.obj
 0001:0001b2fa       ?type_case_c_tchar@?$output_processor@_WV?$string_output_adapter@_W@__crt_stdio_output@@V?$standard_base@_WV?$string_output_adapter@_W@__crt_stdio_output@@@2@@__crt_stdio_output@@AAE_N_W@Z 1001c2fa f i libucrt:output.obj
 0001:0001b392       ?type_case_integer@?$output_processor@_WV?$stream_output_adapter@_W@__crt_stdio_output@@V?$standard_base@_WV?$stream_output_adapter@_W@__crt_stdio_output@@@2@@__crt_stdio_output@@AAE_NI_N@Z 1001c392 f i libucrt:output.obj
 0001:0001b392       ?type_case_integer@?$output_processor@DV?$string_output_adapter@D@__crt_stdio_output@@V?$standard_base@DV?$string_output_adapter@D@__crt_stdio_output@@@2@@__crt_stdio_output@@AAE_NI_N@Z 1001c392 f i libucrt:output.obj
 0001:0001b392       ?type_case_integer@?$output_processor@_WV?$string_output_adapter@_W@__crt_stdio_output@@V?$standard_base@_WV?$string_output_adapter@_W@__crt_stdio_output@@@2@@__crt_stdio_output@@AAE_NI_N@Z 1001c392 f i libucrt:output.obj
 0001:0001b4dc       ?type_case_n@?$output_processor@_WV?$stream_output_adapter@_W@__crt_stdio_output@@V?$standard_base@_WV?$stream_output_adapter@_W@__crt_stdio_output@@@2@@__crt_stdio_output@@AAE_NXZ 1001c4dc f i libucrt:output.obj
 0001:0001b4dc       ?type_case_n@?$output_processor@_WV?$string_output_adapter@_W@__crt_stdio_output@@V?$standard_base@_WV?$string_output_adapter@_W@__crt_stdio_output@@@2@@__crt_stdio_output@@AAE_NXZ 1001c4dc f i libucrt:output.obj
 0001:0001b4dc       ?type_case_n@?$output_processor@DV?$string_output_adapter@D@__crt_stdio_output@@V?$standard_base@DV?$string_output_adapter@D@__crt_stdio_output@@@2@@__crt_stdio_output@@AAE_NXZ 1001c4dc f i libucrt:output.obj
 0001:0001b550       ?type_case_o@?$output_processor@_WV?$string_output_adapter@_W@__crt_stdio_output@@V?$standard_base@_WV?$string_output_adapter@_W@__crt_stdio_output@@@2@@__crt_stdio_output@@AAE_NXZ 1001c550 f i libucrt:output.obj
 0001:0001b550       ?type_case_o@?$output_processor@DV?$string_output_adapter@D@__crt_stdio_output@@V?$standard_base@DV?$string_output_adapter@D@__crt_stdio_output@@@2@@__crt_stdio_output@@AAE_NXZ 1001c550 f i libucrt:output.obj
 0001:0001b550       ?type_case_o@?$output_processor@_WV?$stream_output_adapter@_W@__crt_stdio_output@@V?$standard_base@_WV?$stream_output_adapter@_W@__crt_stdio_output@@@2@@__crt_stdio_output@@AAE_NXZ 1001c550 f i libucrt:output.obj
 0001:0001b56f       ?type_case_p@?$output_processor@DV?$string_output_adapter@D@__crt_stdio_output@@V?$standard_base@DV?$string_output_adapter@D@__crt_stdio_output@@@2@@__crt_stdio_output@@AAE_NXZ 1001c56f f i libucrt:output.obj
 0001:0001b56f       ?type_case_p@?$output_processor@_WV?$string_output_adapter@_W@__crt_stdio_output@@V?$standard_base@_WV?$string_output_adapter@_W@__crt_stdio_output@@@2@@__crt_stdio_output@@AAE_NXZ 1001c56f f i libucrt:output.obj
 0001:0001b56f       ?type_case_p@?$output_processor@_WV?$stream_output_adapter@_W@__crt_stdio_output@@V?$standard_base@_WV?$stream_output_adapter@_W@__crt_stdio_output@@@2@@__crt_stdio_output@@AAE_NXZ 1001c56f f i libucrt:output.obj
 0001:0001b587       ?type_case_s@?$output_processor@DV?$string_output_adapter@D@__crt_stdio_output@@V?$standard_base@DV?$string_output_adapter@D@__crt_stdio_output@@@2@@__crt_stdio_output@@AAE_NXZ 1001c587 f i libucrt:output.obj
 0001:0001b5fa       ?type_case_s@?$output_processor@_WV?$string_output_adapter@_W@__crt_stdio_output@@V?$standard_base@_WV?$string_output_adapter@_W@__crt_stdio_output@@@2@@__crt_stdio_output@@AAE_NXZ 1001c5fa f i libucrt:output.obj
 0001:0001b5fa       ?type_case_s@?$output_processor@_WV?$stream_output_adapter@_W@__crt_stdio_output@@V?$standard_base@_WV?$stream_output_adapter@_W@__crt_stdio_output@@@2@@__crt_stdio_output@@AAE_NXZ 1001c5fa f i libucrt:output.obj
 0001:0001b66e       ?type_case_s_compute_narrow_string_length@?$output_processor@_WV?$stream_output_adapter@_W@__crt_stdio_output@@V?$standard_base@_WV?$stream_output_adapter@_W@__crt_stdio_output@@@2@@__crt_stdio_output@@ABEHH_W@Z 1001c66e f i libucrt:output.obj
 0001:0001b66e       ?type_case_s_compute_narrow_string_length@?$output_processor@_WV?$string_output_adapter@_W@__crt_stdio_output@@V?$standard_base@_WV?$string_output_adapter@_W@__crt_stdio_output@@@2@@__crt_stdio_output@@ABEHH_W@Z 1001c66e f i libucrt:output.obj
 0001:0001b6ae       ?write_character@?$stream_output_adapter@_W@__crt_stdio_output@@QBEX_WQAH@Z 1001c6ae f i libucrt:output.obj
 0001:0001b6ee       ?write_character@?$string_output_adapter@D@__crt_stdio_output@@QBE_NDQAH@Z 1001c6ee f i libucrt:output.obj
 0001:0001b730       ?write_character@?$string_output_adapter@_W@__crt_stdio_output@@QBE_N_WQAH@Z 1001c730 f i libucrt:output.obj
 0001:0001b775       ?write_stored_string_tchar@?$output_processor@DV?$string_output_adapter@D@__crt_stdio_output@@V?$standard_base@DV?$string_output_adapter@D@__crt_stdio_output@@@2@@__crt_stdio_output@@AAE_ND@Z 1001c775 f i libucrt:output.obj
 0001:0001b81c       ?write_stored_string_tchar@?$output_processor@_WV?$stream_output_adapter@_W@__crt_stdio_output@@V?$standard_base@_WV?$stream_output_adapter@_W@__crt_stdio_output@@@2@@__crt_stdio_output@@AAE_N_W@Z 1001c81c f i libucrt:output.obj
 0001:0001b8a7       ?write_stored_string_tchar@?$output_processor@_WV?$string_output_adapter@_W@__crt_stdio_output@@V?$standard_base@_WV?$string_output_adapter@_W@__crt_stdio_output@@@2@@__crt_stdio_output@@AAE_N_W@Z 1001c8a7 f i libucrt:output.obj
 0001:0001b932       ?write_string@?$stream_output_adapter@_W@__crt_stdio_output@@QBEXQB_WHQAH1@Z 1001c932 f i libucrt:output.obj
 0001:0001b9bf       ?write_string@?$string_output_adapter@D@__crt_stdio_output@@QBEXQBDHQAH1@Z 1001c9bf f i libucrt:output.obj
 0001:0001ba52       ?write_string@?$string_output_adapter@_W@__crt_stdio_output@@QBEXQB_WHQAH1@Z 1001ca52 f i libucrt:output.obj
 0001:0001baec       ___stdio_common_vfwprintf  1001caec f   libucrt:output.obj
 0001:0001bb63       ___stdio_common_vsprintf   1001cb63 f   libucrt:output.obj
 0001:0001bb87       ___stdio_common_vswprintf  1001cb87 f   libucrt:output.obj
 0001:0001c0f7       __ftelli64_nolock          1001d0f7 f   libucrt:ftell.obj
 0001:0001c102       _ftell                     1001d102 f   libucrt:ftell.obj
 0001:0001c1ce       _fopen                     1001d1ce f   libucrt:fopen.obj
 0001:0001c1e5       __fclose_nolock            1001d1e5 f   libucrt:fclose.obj
 0001:0001c25b       _fclose                    1001d25b f   libucrt:fclose.obj
 0001:0001c2db       ?LongLongSub@@YAJ_J0PA_J@Z 1001d2db f i libucrt:fseek.obj
 0001:0001c595       _fseek                     1001d595 f   libucrt:fseek.obj
 0001:0001c5b0       __fread_nolock_s           1001d5b0 f   libucrt:fread.obj
 0001:0001c77c       _fread                     1001d77c f   libucrt:fread.obj
 0001:0001c799       _fread_s                   1001d799 f   libucrt:fread.obj
 0001:0001c8ad       _realloc                   1001d8ad f   libucrt:realloc.obj
 0001:0001c8b8       ___ascii_stricmp           1001d8b8 f   libucrt:stricmp.obj
 0001:0001c8f3       __stricmp                  1001d8f3 f   libucrt:stricmp.obj
 0001:0001c93b       __stricmp_l                1001d93b f   libucrt:stricmp.obj
 0001:0001c9d5       ___acrt_initialize_locks   1001d9d5 f   libucrt:locks.obj
 0001:0001ca16       ___acrt_lock               1001da16 f   libucrt:locks.obj
 0001:0001ca2d       ___acrt_uninitialize_locks 1001da2d f   libucrt:locks.obj
 0001:0001ca5e       ___acrt_unlock             1001da5e f   libucrt:locks.obj
 0001:0001ca75       __calloc_base              1001da75 f   libucrt:calloc_base.obj
 0001:0001cad2       ___pctype_func             1001dad2 f   libucrt:ctype.obj
 0001:0001caf8       __chvalidchk_l             1001daf8 f i libucrt:_ctype.obj
 0001:0001cb22       __ischartype_l             1001db22 f i libucrt:_ctype.obj
 0001:0001cb55       __isdigit_l                1001db55 f i libucrt:_ctype.obj
 0001:0001cb8d       _isdigit                   1001db8d f i libucrt:_ctype.obj
 0001:0001cbba       __malloc_base              1001dbba f   libucrt:malloc_base.obj
 0001:0001cc08       __realloc_base             1001dc08 f   libucrt:realloc_base.obj
 0001:0001cc71       ___acrt_errno_from_os_error 1001dc71 f   libucrt:errno.obj
 0001:0001ccb4       ___acrt_errno_map_os_error 1001dcb4 f   libucrt:errno.obj
 0001:0001ccd7       ___doserrno                1001dcd7 f   libucrt:errno.obj
 0001:0001ccea       __errno                    1001dcea f   libucrt:errno.obj
 0001:0001ccfd       ??$make_c_string_character_source@DPAPAD@__crt_strtox@@YA?AV?$c_string_character_source@D@0@QBDQAPAD@Z 1001dcfd f i libucrt:strtod.obj
 0001:0001ccfd       ??$make_c_string_character_source@_WPAPA_W@__crt_strtox@@YA?AV?$c_string_character_source@_W@0@QB_WQAPA_W@Z 1001dcfd f i libucrt:strtod.obj
 0001:0001cd20       ?divide@__crt_strtox@@YA_KAAUbig_integer@1@ABU21@@Z 1001dd20 f i libucrt:strtod.obj
 0001:0001d1ce       ?unget@?$c_string_character_source@D@__crt_strtox@@QAEXD@Z 1001e1ce f i libucrt:strtod.obj
 0001:0001d1f6       ?unget@?$c_string_character_source@_W@__crt_strtox@@QAEX_W@Z 1001e1f6 f i libucrt:strtod.obj
 0001:0001d222       ?validate@?$string_output_adapter@_W@__crt_stdio_output@@QBE_NXZ 1001e222 f i libucrt:output.obj
 0001:0001d222       ?validate@?$c_string_character_source@_W@__crt_strtox@@QBE_NXZ 1001e222 f i libucrt:strtod.obj
 0001:0001d222       ?validate@?$stream_output_adapter@_W@__crt_stdio_output@@QBE_NXZ 1001e222 f i libucrt:output.obj
 0001:0001d222       ?validate@?$string_output_adapter@D@__crt_stdio_output@@QBE_NXZ 1001e222 f i libucrt:output.obj
 0001:0001d222       ?validate@?$c_string_character_source@D@__crt_strtox@@QBE_NXZ 1001e222 f i libucrt:strtod.obj
 0001:0001d240       _strcspn                   1001e240 f   libucrt:strcspn.obj
 0001:0001d290       _pow                       1001e290 f   libucrt:pow.obj
 0001:0001d2d0       __CIpow                    1001e2d0 f   libucrt:pow.obj
 0001:0001d30b       __CIpow_default            1001e30b f   libucrt:pow.obj
 0001:0001d324       __pow_default              1001e324     libucrt:pow.obj
 0001:0001d519       ___strncnt                 1001e519 f   libucrt:strncnt.obj
 0001:0001d535       __free_base                1001e535 f   libucrt:free_base.obj
 0001:0001d5c8       __ismbblead                1001e5c8 f   libucrt:ismbbyte.obj
 0001:0001d747       __tolower_l                1001e747 f   libucrt:tolower_toupper.obj
 0001:0001d761       _tolower                   1001e761 f   libucrt:tolower_toupper.obj
 0001:0001d791       _wcscpy_s                  1001e791 f   libucrt:wcscpy_s.obj
 0001:0001d7f5       _strnlen                   1001e7f5 f   libucrt:strnlen.obj
 0001:0001d91c       _wcsnlen                   1001e91c f   libucrt:strnlen.obj
 0001:0001dad3       ___acrt_initialize_new_handler 1001ead3 f   libucrt:new_handler.obj
 0001:0001dae7       __callnewh                 1001eae7 f   libucrt:new_handler.obj
 0001:0001db2b       __query_new_handler        1001eb2b f   libucrt:new_handler.obj
 0001:0001db7d       __seh_filter_dll           1001eb7d f   libucrt:exception_filter.obj
 0001:0001db9d       __seh_filter_exe           1001eb9d f   libucrt:exception_filter.obj
 0001:0001df2b       ___acrt_initialize_thread_local_exit_callback 1001ef2b f   libucrt:exit.obj
 0001:0001df3a       __cexit                    1001ef3a f   libucrt:exit.obj
 0001:0001df49       __exit                     1001ef49 f   libucrt:exit.obj
 0001:0001df5f       __is_c_termination_complete 1001ef5f f   libucrt:exit.obj
 0001:0001e1fe       ___acrt_allocate_buffer_for_argv 1001f1fe f   libucrt:argv_parsing.obj
 0001:0001e253       __configure_narrow_argv    1001f253 f   libucrt:argv_parsing.obj
 0001:0001e3b7       ??$uninitialize@A6AXAAPAPA_W@Z@?$dual_state_global@PAPA_W@__crt_state_management@@QAEXA6AXAAPAPA_W@Z@Z 1001f3b7 f i libucrt:environment_initialization.obj
 0001:0001e3b7       ??$uninitialize@A6AXAAPAPAD@Z@?$dual_state_global@PAPAD@__crt_state_management@@QAEXA6AXAAPAPAD@Z@Z 1001f3b7 f i libucrt:environment_initialization.obj
 0001:0001e42d       ___dcrt_uninitialize_environments_nolock 1001f42d f   libucrt:environment_initialization.obj
 0001:0001e464       __initialize_narrow_environment 1001f464 f   libucrt:environment_initialization.obj
 0001:0001e469       ??$?RV<lambda_800076c951b434888f4765a74a194fcc>@@AAV<lambda_4e60a939b0d047cfe11ddc22648dfba9>@@V<lambda_6dbb1268764f43b569ce7b67e331d33a>@@@?$__crt_seh_guarded_call@H@@QAEH$$QAV<lambda_800076c951b434888f4765a74a194fcc>@@AAV<lambda_4e60a939b0d047cfe11ddc22648dfba9>@@$$QAV<lambda_6dbb1268764f43b569ce7b67e331d33a>@@@Z 1001f469 f i libucrt:onexit.obj
 0001:0001e4ba       ??$?RV<lambda_995298e7d72eb4c2aab26c0585b3abe5>@@AAV<lambda_275893d493268fdec8709772e3fcec0e>@@V<lambda_293819299cbf9a7022e18b56a874bb5c>@@@?$__crt_seh_guarded_call@H@@QAEH$$QAV<lambda_995298e7d72eb4c2aab26c0585b3abe5>@@AAV<lambda_275893d493268fdec8709772e3fcec0e>@@$$QAV<lambda_293819299cbf9a7022e18b56a874bb5c>@@@Z 1001f4ba f i libucrt:onexit.obj
 0001:0001e50b       ??$__acrt_lock_and_call@V<lambda_275893d493268fdec8709772e3fcec0e>@@@@YAHW4__acrt_lock_id@@$$QAV<lambda_275893d493268fdec8709772e3fcec0e>@@@Z 1001f50b f i libucrt:onexit.obj
 0001:0001e533       ??$__acrt_lock_and_call@V<lambda_4e60a939b0d047cfe11ddc22648dfba9>@@@@YAHW4__acrt_lock_id@@$$QAV<lambda_4e60a939b0d047cfe11ddc22648dfba9>@@@Z 1001f533 f i libucrt:onexit.obj
 0001:0001e55b       ??$__crt_fast_encode_pointer@P6AHXZ@@YAP6AHXZQ6AHXZ@Z 1001f55b f i libucrt:onexit.obj
 0001:0001e7db       __crt_atexit               1001f7db f   libucrt:onexit.obj
 0001:0001e7f1       __execute_onexit_table     1001f7f1 f   libucrt:onexit.obj
 0001:0001e80e       __initialize_onexit_table  1001f80e f   libucrt:onexit.obj
 0001:0001e84b       __register_onexit_function 1001f84b f   libucrt:onexit.obj
 0001:0001e8a3       ___acrt_uninitialize_command_line 1001f8a3 f   libucrt:argv_data.obj
 0001:0001e963       ___acrt_initialize         1001f963 f   libucrt:initialization.obj
 0001:0001e975       ___acrt_thread_attach      1001f975 f   libucrt:initialization.obj
 0001:0001e980       ___acrt_thread_detach      1001f980 f   libucrt:initialization.obj
 0001:0001e988       ___acrt_uninitialize       1001f988 f   libucrt:initialization.obj
 0001:0001e99a       ___acrt_uninitialize_critical 1001f99a f   libucrt:initialization.obj
 0001:0001e9ac       __initterm                 1001f9ac f   libucrt:initterm.obj
 0001:0001ea08       __initterm_e               1001fa08 f   libucrt:initterm.obj
 0001:0001ea4d       _terminate                 1001fa4d f   libucrt:terminate.obj
 0001:0001ea89       __strdup                   1001fa89 f   libucrt:strdup.obj
 0001:0001ea89       _strdup                    1001fa89 f   libucrt:strdup.obj
 0001:0001eadf       _strcpy_s                  1001fadf f   libucrt:strcpy_s.obj
 0001:0001eb39       ??$is_overflow_condition@K@__crt_strtox@@YA_NIK@Z 1001fb39 f i libucrt:atox.obj
 0001:0001eb6c       ??$parse_integer@KV?$c_string_character_source@D@__crt_strtox@@@__crt_strtox@@YAKQAU__crt_locale_pointers@@V?$c_string_character_source@D@0@H_N@Z 1001fb6c f i libucrt:atox.obj
 0001:0001ed94       ??$parse_integer@KV?$c_string_character_source@_W@__crt_strtox@@@__crt_strtox@@YAKQAU__crt_locale_pointers@@V?$c_string_character_source@_W@0@H_N@Z 1001fd94 f i libucrt:atox.obj
 0001:0001f479       ??$?RV<lambda_a048d3beccc847880fc8490e18b82769>@@AAV<lambda_ec61778202f4f5fc7e7711acc23c3bca>@@V<lambda_f7496a158712204296dd6628a163878e>@@@?$__crt_seh_guarded_call@P6AXH@Z@@QAEP6AXH@Z$$QAV<lambda_a048d3beccc847880fc8490e18b82769>@@AAV<lambda_ec61778202f4f5fc7e7711acc23c3bca>@@$$QAV<lambda_f7496a158712204296dd6628a163878e>@@@Z 10020479 f i libucrt:signal.obj
 0001:0001f4d3       ??$__acrt_lock_and_call@V<lambda_ec61778202f4f5fc7e7711acc23c3bca>@@@@YAP6AXH@ZW4__acrt_lock_id@@$$QAV<lambda_ec61778202f4f5fc7e7711acc23c3bca>@@@Z 100204d3 f i libucrt:signal.obj
 0001:0001f565       ___acrt_get_sigabrt_handler 10020565 f   libucrt:signal.obj
 0001:0001f57c       ___acrt_initialize_signal_handlers 1002057c f   libucrt:signal.obj
 0001:0001f5b7       ___fpecode                 100205b7 f   libucrt:signal.obj
 0001:0001f5c0       _raise                     100205c0 f   libucrt:signal.obj
 0001:0001f7c8       ??$?RV<lambda_3518db117f0e7cdb002338c5d3c47b6c>@@AAV<lambda_b2ea41f6bbb362cd97d94c6828d90b61>@@V<lambda_abdedf541bb04549bc734292b4a045d4>@@@?$__crt_seh_guarded_call@X@@QAEX$$QAV<lambda_3518db117f0e7cdb002338c5d3c47b6c>@@AAV<lambda_b2ea41f6bbb362cd97d94c6828d90b61>@@$$QAV<lambda_abdedf541bb04549bc734292b4a045d4>@@@Z 100207c8 f i libucrt:per_thread_data.obj
 0001:0001f818       ??$?RV<lambda_51b6e8b1eb166f2a3faf91f424b38130>@@AAV<lambda_6250bd4b2a391816dd638c3bf72b0bcb>@@V<lambda_0b5a4a3e68152e1d9b943535f5f47bed>@@@?$__crt_seh_guarded_call@X@@QAEX$$QAV<lambda_51b6e8b1eb166f2a3faf91f424b38130>@@AAV<lambda_6250bd4b2a391816dd638c3bf72b0bcb>@@$$QAV<lambda_0b5a4a3e68152e1d9b943535f5f47bed>@@@Z 10020818 f i libucrt:per_thread_data.obj
 0001:0001f879       ??$?RV<lambda_5b71d36f03204c0beab531769a5b5694>@@AAV<lambda_be2b3da3f62db62e9dad5dc70221a656>@@V<lambda_8f9ce462984622f9bf76b59e2aaaf805>@@@?$__crt_seh_guarded_call@X@@QAEX$$QAV<lambda_5b71d36f03204c0beab531769a5b5694>@@AAV<lambda_be2b3da3f62db62e9dad5dc70221a656>@@$$QAV<lambda_8f9ce462984622f9bf76b59e2aaaf805>@@@Z 10020879 f i libucrt:per_thread_data.obj
 0001:0001f8c4       ??$?RV<lambda_9df27f884b057bc3edfc946cb5b7cf47>@@AAV<lambda_e69574bed617af4e071282c136b37893>@@V<lambda_cc0d902bcbbeb830f749456577db4721>@@@?$__crt_seh_guarded_call@X@@QAEX$$QAV<lambda_9df27f884b057bc3edfc946cb5b7cf47>@@AAV<lambda_e69574bed617af4e071282c136b37893>@@$$QAV<lambda_cc0d902bcbbeb830f749456577db4721>@@@Z 100208c4 f i libucrt:per_thread_data.obj
 0001:0001f90c       ??$__acrt_lock_and_call@V<lambda_6250bd4b2a391816dd638c3bf72b0bcb>@@@@YAXW4__acrt_lock_id@@$$QAV<lambda_6250bd4b2a391816dd638c3bf72b0bcb>@@@Z 1002090c f i libucrt:per_thread_data.obj
 0001:0001f934       ??$__acrt_lock_and_call@V<lambda_b2ea41f6bbb362cd97d94c6828d90b61>@@@@YAXW4__acrt_lock_id@@$$QAV<lambda_b2ea41f6bbb362cd97d94c6828d90b61>@@@Z 10020934 f i libucrt:per_thread_data.obj
 0001:0001f95c       ??$__acrt_lock_and_call@V<lambda_be2b3da3f62db62e9dad5dc70221a656>@@@@YAXW4__acrt_lock_id@@$$QAV<lambda_be2b3da3f62db62e9dad5dc70221a656>@@@Z 1002095c f i libucrt:per_thread_data.obj
 0001:0001f984       ??$__acrt_lock_and_call@V<lambda_e69574bed617af4e071282c136b37893>@@@@YAXW4__acrt_lock_id@@$$QAV<lambda_e69574bed617af4e071282c136b37893>@@@Z 10020984 f i libucrt:per_thread_data.obj
 0001:0001fb3a       ___acrt_freeptd            10020b3a f   libucrt:per_thread_data.obj
 0001:0001fb66       ___acrt_getptd             10020b66 f   libucrt:per_thread_data.obj
 0001:0001fbea       ___acrt_getptd_noexit      10020bea f   libucrt:per_thread_data.obj
 0001:0001fc6f       ___acrt_initialize_ptd     10020c6f f   libucrt:per_thread_data.obj
 0001:0001fc9b       ___acrt_uninitialize_ptd   10020c9b f   libucrt:per_thread_data.obj
 0001:0001fcb5       __query_app_type           10020cb5 f   libucrt:report_runtime_error.obj
 0001:0001fda8       __itow_s                   10020da8 f   libucrt:xtoa.obj
 0001:0001fddd       __set_error_mode           10020ddd f   libucrt:set_error_mode.obj
 0001:0001fe1c       _wcscat_s                  10020e1c f   libucrt:wcscat_s.obj
 0001:0001ff7a       _wcsncat_s                 10020f7a f   libucrt:wcsncat_s.obj
 0001:00020081       ___acrt_show_wide_message_box 10021081 f   libucrt:crtmbox.obj
 0001:0002008c       ___acrt_stdio_flush_nolock 1002108c f   libucrt:fflush.obj
 0001:000200f2       __fflush_nolock            100210f2 f   libucrt:fflush.obj
 0001:00020139       __flushall                 10021139 f   libucrt:fflush.obj
 0001:0002021a       _fflush                    1002121a f   libucrt:fflush.obj
 0001:00020273       ??$?RV<lambda_d92cfe8357b99225085016881b624cb0>@@AAV<lambda_b721fa326cdb32351d23dfa67958c160>@@V<lambda_42d75b0848218ec137fa420c8ba9fdf9>@@@?$__crt_seh_guarded_call@H@@QAEH$$QAV<lambda_d92cfe8357b99225085016881b624cb0>@@AAV<lambda_b721fa326cdb32351d23dfa67958c160>@@$$QAV<lambda_42d75b0848218ec137fa420c8ba9fdf9>@@@Z 10021273 f i libucrt:setvbuf.obj
 0001:000202c4       ??$__acrt_lock_stream_and_call@V<lambda_b721fa326cdb32351d23dfa67958c160>@@@@YAHQAU_iobuf@@$$QAV<lambda_b721fa326cdb32351d23dfa67958c160>@@@Z 100212c4 f i libucrt:setvbuf.obj
 0001:000203b9       _setvbuf                   100213b9 f   libucrt:setvbuf.obj
 0001:0002042f       __errcode                  1002142f f   libucrt:fpexcept.obj
 0001:00020463       __except1                  10021463 f   libucrt:fpexcept.obj
 0001:00020531       __handle_exc               10021531 f   libucrt:fpexcept.obj
 0001:00020711       __raise_exc                10021711 f   libucrt:fpexcept.obj
 0001:00020734       __raise_exc_ex             10021734 f   libucrt:fpexcept.obj
 0001:00020a25       __set_errno_from_matherr   10021a25 f   libucrt:fpexcept.obj
 0001:00020a54       __umatherr                 10021a54 f   libucrt:fpexcept.obj
 0001:00020af6       __decomp                   10021af6 f   libucrt:util.obj
 0001:00020bca       __set_exp                  10021bca f   libucrt:util.obj
 0001:00020bf9       __sptype                   10021bf9 f   libucrt:util.obj
 0001:00020c57       __clrfp                    10021c57 f   libucrt:fpctrl.obj
 0001:00020c6a       __ctrlfp                   10021c6a f   libucrt:fpctrl.obj
 0001:00020c96       __set_statfp               10021c96 f   libucrt:fpctrl.obj
 0001:00020cf1       __statfp                   10021cf1 f   libucrt:fpctrl.obj
 0001:00020e4e       ___acrt_AreFileApisANSI@0  10021e4e f   libucrt:winapi_thunks.obj
 0001:00020e9c       ___acrt_FlsAlloc@4         10021e9c f   libucrt:winapi_thunks.obj
 0001:00020ef2       ___acrt_FlsFree@4          10021ef2 f   libucrt:winapi_thunks.obj
 0001:00020f48       ___acrt_FlsGetValue@4      10021f48 f   libucrt:winapi_thunks.obj
 0001:00020f9e       ___acrt_FlsSetValue@8      10021f9e f   libucrt:winapi_thunks.obj
 0001:00020ff9       ___acrt_InitializeCriticalSectionEx@12 10021ff9 f   libucrt:winapi_thunks.obj
 0001:0002105b       ___acrt_LCMapStringEx@36   1002205b f   libucrt:winapi_thunks.obj
 0001:000210e3       ___acrt_LocaleNameToLCID@8 100220e3 f   libucrt:winapi_thunks.obj
 0001:0002113f       ___acrt_MessageBoxW@16     1002213f f   libucrt:winapi_thunks.obj
 0001:00021188       ___acrt_can_show_message_box 10022188 f   libucrt:winapi_thunks.obj
 0001:000211a1       ___acrt_get_parent_window  100221a1 f   libucrt:winapi_thunks.obj
 0001:00021220       ___acrt_initialize_winapi_thunks 10022220 f   libucrt:winapi_thunks.obj
 0001:00021246       ___acrt_is_interactive     10022246 f   libucrt:winapi_thunks.obj
 0001:000212ec       ___acrt_is_packaged_app    100222ec f   libucrt:winapi_thunks.obj
 0001:00021373       ___acrt_uninitialize_winapi_thunks 10022373 f   libucrt:winapi_thunks.obj
 0001:000213a9       __fcloseall                100223a9 f   libucrt:closeall.obj
 0001:00021449       ___acrt_stdio_free_buffer_nolock 10022449 f   libucrt:_freebuf.obj
 0001:000215f3       ___acrt_initialize_lowio   100225f3 f   libucrt:ioinit.obj
 0001:00021649       ___acrt_uninitialize_lowio 10022649 f   libucrt:ioinit.obj
 0001:00021675       _strtol                    10022675 f   libucrt:strtox.obj
 0001:000216a1       _wcstol                    100226a1 f   libucrt:strtox.obj
 0001:000216cd       __mbtowc_l                 100226cd f   libucrt:mbtowc.obj
 0001:000217c7       _mbtowc                    100227c7 f   libucrt:mbtowc.obj
 0001:000217e1       __wctomb_s_l               100227e1 f   libucrt:wctomb.obj
 0001:00021902       _wctomb_s                  10022902 f   libucrt:wctomb.obj
 0001:0002191f       ___acrt_update_locale_info 1002291f f   libucrt:locale_update.obj
 0001:0002194c       ___acrt_update_multibyte_info 1002294c f   libucrt:locale_update.obj
 0001:00021979       ?__acrt_fp_classify@@YA?AW4__acrt_fp_class@@ABN@Z 10022979 f i libucrt:cvt.obj
 0001:000219e5       ?__acrt_fp_is_negative@@YA_NABN@Z 100229e5 f i libucrt:cvt.obj
 0001:00022244       ___acrt_fp_format          10023244 f   libucrt:cvt.obj
 0001:000223c0       __fputwc_nolock            100233c0 f   libucrt:fputwc.obj
 0001:000224e6       __fileno                   100234e6 f   libucrt:fileno.obj
 0001:0002250c       __fputc_nolock             1002350c f   libucrt:fputc.obj
 0001:00022535       __get_printf_count_output  10023535 f   libucrt:printf_count_output.obj
 0001:0002254a       ___acrt_stdio_begin_temporary_buffering_nolock 1002354a f   libucrt:_sftbuf.obj
 0001:000225ff       ___acrt_stdio_end_temporary_buffering_nolock 100235ff f   libucrt:_sftbuf.obj
 0001:00022638       ___acrt_set_locale_changed 10023638 f   libucrt:wsetlocale.obj
 0001:00022643       ___acrt_uninitialize_locale 10023643 f   libucrt:wsetlocale.obj
 0001:00022818       __lseeki64                 10023818 f   libucrt:lseek.obj
 0001:00022833       __lseeki64_nolock          10023833 f   libucrt:lseek.obj
 0001:00022d36       __read                     10023d36 f   libucrt:read.obj
 0001:00022e49       __read_nolock              10023e49 f   libucrt:read.obj
 0001:000231fe       ?__acrt_stdio_allocate_stream@@YA?AV__crt_stdio_stream@@XZ 100241fe f   libucrt:stream.obj
 0001:0002325d       ?__acrt_stdio_free_stream@@YAXV__crt_stdio_stream@@@Z 1002425d f   libucrt:stream.obj
 0001:0002335b       ??$__acrt_stdio_parse_mode@D@@YA?AU__acrt_stdio_stream_mode@@QBD@Z 1002435b f i libucrt:openfile.obj
 0001:00023612       ?__acrt_stdio_parse_mode_D@@YA_NAAU__acrt_stdio_stream_mode@@@Z 10024612 f i libucrt:openfile.obj
 0001:0002362d       ?__acrt_stdio_parse_mode_T@@YA_NAAU__acrt_stdio_stream_mode@@@Z 1002462d f i libucrt:openfile.obj
 0001:0002364c       ?__acrt_stdio_parse_mode_b@@YA_NAAU__acrt_stdio_stream_mode@@@Z 1002464c f i libucrt:openfile.obj
 0001:0002366c       ?__acrt_stdio_parse_mode_c@@YA_NAAU__acrt_stdio_stream_mode@@AA_N@Z 1002466c f i libucrt:openfile.obj
 0001:0002368e       ?__acrt_stdio_parse_mode_n@@YA_NAAU__acrt_stdio_stream_mode@@AA_N@Z 1002468e f i libucrt:openfile.obj
 0001:000236b0       ?__acrt_stdio_parse_mode_plus@@YA_NAAU__acrt_stdio_stream_mode@@AA_N@Z 100246b0 f i libucrt:openfile.obj
 0001:000236e5       ?__acrt_stdio_parse_mode_t@@YA_NAAU__acrt_stdio_stream_mode@@@Z 100246e5 f i libucrt:openfile.obj
 0001:00023705       __openfile                 10024705 f   libucrt:openfile.obj
 0001:00023710       ??$?RV<lambda_123407a5e2ac06da108355a851863b7a>@@AAV<lambda_2fe9b910cf3cbf4a0ab98a02ba45b3ec>@@V<lambda_ae55bdf541ad94d75914d381c370e64d>@@@?$__crt_seh_guarded_call@H@@QAEH$$QAV<lambda_123407a5e2ac06da108355a851863b7a>@@AAV<lambda_2fe9b910cf3cbf4a0ab98a02ba45b3ec>@@$$QAV<lambda_ae55bdf541ad94d75914d381c370e64d>@@@Z 10024710 f i libucrt:close.obj
 0001:00023792       ??$__acrt_lowio_lock_fh_and_call@V<lambda_2fe9b910cf3cbf4a0ab98a02ba45b3ec>@@@@YAHH$$QAV<lambda_2fe9b910cf3cbf4a0ab98a02ba45b3ec>@@@Z 10024792 f i libucrt:close.obj
 0001:000237ba       __close                    100247ba f   libucrt:close.obj
 0001:00023839       __close_nolock             10024839 f   libucrt:close.obj
 0001:00023a56       ___acrt_stdio_refill_and_read_narrow_nolock 10024a56 f   libucrt:_filbuf.obj
 0001:00023a61       __query_new_mode           10024a61 f   libucrt:new_mode.obj
 0001:00023a67       ___acrt_initialize_heap    10024a67 f   libucrt:heap_handle.obj
 0001:00023a78       ___acrt_uninitialize_heap  10024a78 f   libucrt:heap_handle.obj
 0001:00023a82       __isctype_l                10024a82 f   libucrt:isctype.obj
 0001:00023b54       ___acrt_GetStringTypeA     10024b54 f   libucrt:getstringtypea.obj
 0001:00023e8e       ___acrt_LCMapStringA       10024e8e f   libucrt:lcmapstringa.obj
 0001:00023ed9       _iswctype                  10024ed9 f   libucrt:iswctype.obj
 0001:00023f38       ___acrt_initialize_sse2    10024f38 f   libucrt:mathfcns.obj
 0001:00023f50       __CIpow_pentium4           10024f50 f   libucrt:pow_pentium4.obj
 0001:00023f69       __pow_pentium4             10024f69     libucrt:pow_pentium4.obj
 0001:00024a81       __fFEXP                    10025a81     libucrt:87tran.obj
 0001:00024ad8       __rtinfpopse               10025ad8     libucrt:87tran.obj
 0001:00024ada       __rtinfnpopse              10025ada     libucrt:87tran.obj
 0001:00024aea       __fFLN                     10025aea     libucrt:87tran.obj
 0001:00024b9f       __rtinfpop                 10025b9f     libucrt:87tran.obj
 0001:00024ba1       __rtinfnpop                10025ba1     libucrt:87tran.obj
 0001:00024bbe       __ffexpm1                  10025bbe     libucrt:87tran.obj
 0001:00024c70       __trandisp1                10025c70 f   libucrt:87disp.obj
 0001:00024cd7       __trandisp2                10025cd7 f   libucrt:87disp.obj
 0001:00024d63       __rttospopde               10025d63     libucrt:87disp.obj
 0001:00024d68       __rttospop                 10025d68     libucrt:87disp.obj
 0001:00024d6a       __rtnospop                 10025d6a     libucrt:87disp.obj
 0001:00024d6c       __rttosnpop                10025d6c     libucrt:87disp.obj
 0001:00024d6d       __rtnospopde               10025d6d     libucrt:87disp.obj
 0001:00024d74       __rtzeropop                10025d74     libucrt:87disp.obj
 0001:00024d76       __rtzeronpop               10025d76     libucrt:87disp.obj
 0001:00024d7b       __rtzerospop               10025d7b     libucrt:87disp.obj
 0001:00024d88       __rtonepop                 10025d88     libucrt:87disp.obj
 0001:00024d8a       __rtonenpop                10025d8a     libucrt:87disp.obj
 0001:00024d8f       __tosnan1                  10025d8f     libucrt:87disp.obj
 0001:00024dba       __nosnan2                  10025dba     libucrt:87disp.obj
 0001:00024dbc       __tosnan2                  10025dbc     libucrt:87disp.obj
 0001:00024de4       __nan2                     10025de4     libucrt:87disp.obj
 0001:00024e23       __rtindfpop                10025e23     libucrt:87disp.obj
 0001:00024e25       __rtindfnpop               10025e25     libucrt:87disp.obj
 0001:00024e36       __rttosnpopde              10025e36     libucrt:87disp.obj
 0001:00024e40       __rtatan2inf               10025e40     libucrt:87disp.obj
 0001:00024e5d       __rtchsifneg               10025e5d     libucrt:87disp.obj
 0001:00024e70       __startTwoArgErrorHandling 10025e70 f   libucrt:genexcep.obj
 0001:00024e87       __startOneArgErrorHandling 10025e87 f   libucrt:genexcep.obj
 0001:00024ed0       __twoToTOS                 10025ed0 f   libucrt:common.obj
 0001:00024ee5       __load_CW                  10025ee5 f   libucrt:common.obj
 0001:00024efc       __convertTOStoQNaN         10025efc f   libucrt:common.obj
 0001:00024f15       __fload_withFB             10025f15 f   libucrt:common.obj
 0001:00024f58       __checkTOS_withFB          10025f58 f   libucrt:common.obj
 0001:00024f6e       __fast_exit                10025f6e f   libucrt:common.obj
 0001:00024f7b       __math_exit                10025f7b f   libucrt:common.obj
 0001:00024fa5       __check_overflow_exit      10025fa5 f   libucrt:common.obj
 0001:00024fb9       __check_range_exit         10025fb9 f   libucrt:common.obj
 0001:0002505c       __d_inttype                1002605c f   libucrt:powhlp.obj
 0001:000250c6       __powhlp                   100260c6 f   libucrt:powhlp.obj
 0001:000251f1       ?initialize@?$dual_state_global@P6AXPB_W00II@Z@__crt_state_management@@QAEXQ6AXPB_W00II@Z@Z 100261f1 f i libucrt:invalid_parameter.obj
 0001:000251f1       ?initialize@?$dual_state_global@J@__crt_state_management@@QAEXJ@Z 100261f1 f i libucrt:timeset.obj
 0001:000251f1       ?initialize@?$dual_state_global@P6AHI@Z@__crt_state_management@@QAEXQ6AHI@Z@Z 100261f1 f i libucrt:new_handler.obj
 0001:000251f1       ?initialize@?$dual_state_global@H@__crt_state_management@@QAEXH@Z 100261f1 f i libucrt:timeset.obj
 0001:000251f1       ?initialize@?$dual_state_global@P6AXH@Z@__crt_state_management@@QAEXQ6AXH@Z@Z 100261f1 f i libucrt:signal.obj
 0001:000251f1       ?initialize@?$dual_state_global@PAU__crt_locale_data@@@__crt_state_management@@QAEXQAU__crt_locale_data@@@Z 100261f1 f i libucrt:initialization.obj
 0001:000251f1       ?initialize@?$dual_state_global@PAPAD@__crt_state_management@@QAEXQAPAD@Z 100261f1 f i libucrt:environment_initialization.obj
 0001:000251f1       ?initialize@?$dual_state_global@P6AHPAU_exception@@@Z@__crt_state_management@@QAEXQ6AHPAU_exception@@@Z@Z 100261f1 f i libucrt:matherr.obj
 0001:00025222       ___acrt_initialize_timeset 10026222 f   libucrt:timeset.obj
 0001:00025259       __isleadbyte_l             10026259 f i libucrt:_wctype.obj
 0001:00025654       ??1?$argument_list@D@?A0xb0e4b824@@QAE@XZ 10026654 f i libucrt:argv_wildcards.obj
 0001:00025679       ?append@?$argument_list@D@?A0xb0e4b824@@QAEHQAD@Z 10026679 f i libucrt:argv_wildcards.obj
 0001:000256ae       ?expand_if_necessary@?$argument_list@D@?A0xb0e4b824@@AAEHXZ 100266ae f i libucrt:argv_wildcards.obj
 0001:00025735       ___acrt_expand_narrow_argv_wildcards 10026735 f   libucrt:argv_wildcards.obj
 0001:00025740       ??$?RV<lambda_978dc153c237d78434369da87b74ff60>@@AAV<lambda_ad1ced32f4ac17aa236e5ef05d6b3b7c>@@V<lambda_4a8533e2866a575feecb8298ce776b0d>@@@?$__crt_seh_guarded_call@X@@QAEX$$QAV<lambda_978dc153c237d78434369da87b74ff60>@@AAV<lambda_ad1ced32f4ac17aa236e5ef05d6b3b7c>@@$$QAV<lambda_4a8533e2866a575feecb8298ce776b0d>@@@Z 10026740 f i libucrt:mbctype.obj
 0001:00025783       ??$__acrt_lock_and_call@V<lambda_ad1ced32f4ac17aa236e5ef05d6b3b7c>@@@@YAXW4__acrt_lock_id@@$$QAV<lambda_ad1ced32f4ac17aa236e5ef05d6b3b7c>@@@Z 10026783 f i libucrt:mbctype.obj
 0001:00025c1a       ___acrt_initialize_multibyte 10026c1a f   libucrt:mbctype.obj
 0001:00025c38       ___acrt_update_thread_multibyte_data 10026c38 f   libucrt:mbctype.obj
 0001:00025cda       __setmbcp_nolock           10026cda f   libucrt:mbctype.obj
 0001:00025ecb       ___acrt_initialize_command_line 10026ecb f   libucrt:argv_data.obj
 0001:00025f1b       ___dcrt_get_narrow_environment_from_os 10026f1b f   libucrt:get_environment_from_os.obj
 0001:00025f9e       __recalloc                 10026f9e f   libucrt:recalloc.obj
 0001:00025fa9       __recalloc_base            10026fa9 f   libucrt:recalloc.obj
 0001:00026016       ___acrt_execute_initializers 10027016 f   libucrt:shared_initialization.obj
 0001:00026099       ___acrt_execute_uninitializers 10027099 f   libucrt:shared_initialization.obj
 0001:000260e6       ___acrt_has_user_matherr   100270e6 f   libucrt:matherr.obj
 0001:000260ff       ___acrt_initialize_user_matherr 100270ff f   libucrt:matherr.obj
 0001:00026113       ___acrt_invoke_user_matherr 10027113 f   libucrt:matherr.obj
 0001:0002615c       ___acrt_add_locale_ref     1002715c f   libucrt:locale_refcounting.obj
 0001:000261d9       ___acrt_free_locale        100271d9 f   libucrt:locale_refcounting.obj
 0001:00026323       ___acrt_locale_add_lc_time_reference 10027323 f   libucrt:locale_refcounting.obj
 0001:0002634c       ___acrt_locale_free_lc_time_if_unreferenced 1002734c f   libucrt:locale_refcounting.obj
 0001:0002637c       ___acrt_locale_release_lc_time_reference 1002737c f   libucrt:locale_refcounting.obj
 0001:000263a5       ___acrt_release_locale_ref 100273a5 f   libucrt:locale_refcounting.obj
 0001:00026426       ___acrt_update_thread_locale_data 10027426 f   libucrt:locale_refcounting.obj
 0001:0002649d       __updatetlocinfoEx_nolock  1002749d f   libucrt:locale_refcounting.obj
 0001:000264ed       ??$?RV<lambda_61cee617f5178ae960314fd4d05640a0>@@AAV<lambda_6978c1fb23f02e42e1d9e99668cc68aa>@@V<lambda_9cd88cf8ad10232537feb2133f08c833>@@@?$__crt_seh_guarded_call@H@@QAEH$$QAV<lambda_61cee617f5178ae960314fd4d05640a0>@@AAV<lambda_6978c1fb23f02e42e1d9e99668cc68aa>@@$$QAV<lambda_9cd88cf8ad10232537feb2133f08c833>@@@Z 100274ed f i libucrt:commit.obj
 0001:00026585       ??$__acrt_lowio_lock_fh_and_call@V<lambda_6978c1fb23f02e42e1d9e99668cc68aa>@@@@YAHH$$QAV<lambda_6978c1fb23f02e42e1d9e99668cc68aa>@@@Z 10027585 f i libucrt:commit.obj
 0001:000265ad       __commit                   100275ad f   libucrt:commit.obj
 0001:00026bac       __write                    10027bac f   libucrt:write.obj
 0001:00026c97       __write_nolock             10027c97 f   libucrt:write.obj
 0001:00026f5f       ___acrt_DownlevelLocaleNameToLCID 10027f5f f   libucrt:lcidtoname_downlevel.obj
 0001:00026f8b       ___acrt_lowio_create_handle_array 10027f8b f   libucrt:osfinfo.obj
 0001:00027005       ___acrt_lowio_destroy_handle_array 10028005 f   libucrt:osfinfo.obj
 0001:0002703a       ___acrt_lowio_ensure_fh_exists 1002803a f   libucrt:osfinfo.obj
 0001:000270d2       ___acrt_lowio_lock_fh      100280d2 f   libucrt:osfinfo.obj
 0001:000270f5       ___acrt_lowio_set_os_handle 100280f5 f   libucrt:osfinfo.obj
 0001:00027189       ___acrt_lowio_unlock_fh    10028189 f   libucrt:osfinfo.obj
 0001:000271ac       __alloc_osfhnd             100281ac f   libucrt:osfinfo.obj
 0001:000272be       __free_osfhnd              100282be f   libucrt:osfinfo.obj
 0001:0002734f       __get_osfhandle            1002834f f   libucrt:osfinfo.obj
 0001:000273b9       ___acrt_fp_strflt_to_string 100283b9 f   libucrt:_fptostr.obj
 0001:00027475       ??0scoped_fp_state_reset@?A0x48fbfdd4@@QAE@XZ 10028475 f i libucrt:cfout.obj
 0001:0002749f       ___acrt_fltout             1002849f f   libucrt:cfout.obj
 0001:00028c01       ___acrt_stdio_flush_and_write_narrow_nolock 10029c01 f   libucrt:_flsbuf.obj
 0001:00028c0c       ___acrt_stdio_flush_and_write_wide_nolock 10029c0c f   libucrt:_flsbuf.obj
 0001:00028c17       __isatty                   10029c17 f   libucrt:isatty.obj
 0001:00028c6d       ___acrt_locale_free_monetary 10029c6d f   libucrt:initmon.obj
 0001:00028d6b       ___acrt_locale_free_numeric 10029d6b f   libucrt:initnum.obj
 0001:00028e10       ___acrt_locale_free_time   10029e10 f   libucrt:inittime.obj
 0001:00028f00       _strncmp                   10029f00 f   libucrt:strncmp.obj
 0001:00028f78       __strnicmp                 10029f78 f   libucrt:strnicmp.obj
 0001:00028fe4       __strnicmp_l               10029fe4 f   libucrt:strnicmp.obj
 0001:00029675       __sopen_nolock             1002a675 f   libucrt:open.obj
 0001:000296c6       __sopen_s                  1002a6c6 f   libucrt:open.obj
 0001:000296e6       __wsopen_nolock            1002a6e6 f   libucrt:open.obj
 0001:00029a0f       ___acrt_stdio_allocate_buffer_nolock 1002aa0f f   libucrt:_getbuf.obj
 0001:00029b1d       _strncpy_s                 1002ab1d f   libucrt:strncpy_s.obj
 0001:00029dcb       __getfpcontrolword         1002adcb f   libucrt:_fenvutils.obj
 0001:00029e0e       __getfpstatusword          1002ae0e f   libucrt:_fenvutils.obj
 0001:00029eb6       __setfpcontrolword         1002aeb6 f   libucrt:_fenvutils.obj
 0001:00029f36       __setfpstatusword          1002af36 f   libucrt:_fenvutils.obj
 0001:00029fb6       ___libm_error_support      1002afb6 f   libucrt:libm_error.obj
 0001:0002a1ce       __87except                 1002b1ce f   libucrt:87except.obj
 0001:0002a2d9       __frnd                     1002b2d9 f   libucrt:frnd.obj
 0001:0002a3d0       _qsort                     1002b3d0 f   libucrt:qsort.obj
 0001:0002a770       _strpbrk                   1002b770 f   libucrt:strpbrk.obj
 0001:0002a7b0       __mbsdec                   1002b7b0 f   libucrt:mbsdec.obj
 0001:0002a7c7       __mbsdec_l                 1002b7c7 f   libucrt:mbsdec.obj
 0001:0002a863       __msize                    1002b863 f   libucrt:msize.obj
 0001:0002a896       __putwch_nolock            1002b896 f   libucrt:putwch.obj
 0001:0002a8db       _fegetenv                  1002b8db f   libucrt:fegetenv.obj
 0001:0002a8f8       _fesetenv                  1002b8f8 f   libucrt:fesetenv.obj
 0001:0002a941       _feholdexcept              1002b941 f   libucrt:feholdexcept.obj
 0001:0002a990       _log10                     1002b990 f   libucrt:log10.obj
 0001:0002a9d0       __CIlog10                  1002b9d0 f   libucrt:log10.obj
 0001:0002aa0b       __CIlog10_default          1002ba0b f   libucrt:log10.obj
 0001:0002aa1f       __log10_default            1002ba1f     libucrt:log10.obj
 0001:0002aae0       _ceil                      1002bae0 f   libucrt:ceil_pentium4.obj
 0001:0002ab20       __ceil_pentium4            1002bb20 f   libucrt:ceil_pentium4.obj
 0001:0002ac00       ___ascii_strnicmp          1002bc00 f   libucrt:_strnicm.obj
 0001:0002ac61       __get_fmode                1002bc61 f   libucrt:setmode.obj
 0001:0002ac8d       __setmode_nolock           1002bc8d f   libucrt:setmode.obj
 0001:0002ad5e       ___acrt_copy_path_to_wide_string 1002bd5e f   libucrt:string_utilities.obj
 0001:0002ae25       __chsize_nolock            1002be25 f   libucrt:chsize.obj
 0001:0002afb6       ___dcrt_lowio_initialize_console_output 1002bfb6 f   libucrt:initcon.obj
 0001:0002afd5       ___dcrt_terminate_console_output 1002bfd5 f   libucrt:initcon.obj
 0001:0002afec       __clearfp                  1002bfec f   libucrt:ieee87.obj
 0001:0002b0d0       __CIlog10_pentium4         1002c0d0 f   libucrt:log10_pentium4.obj
 0001:0002b0e8       __log10_pentium4           1002c0e8     libucrt:log10_pentium4.obj
 0001:0002b360       __ceil_default             1002c360 f   libucrt:ceil.obj
 0001:0002b41a       _IsProcessorFeaturePresent@4 1002c41a f   kernel32:KERNEL32.dll
 0001:0002b420       _RtlUnwind@16              1002c420 f   kernel32:KERNEL32.dll
 0001:0002b426       ?DloadAcquireSectionWriteAccess@@YGXXZ 1002c426 f i DelayImp:delayhlp.obj
 0001:0002b459       ?DloadGetSRWLockFunctionPointers@@YGEXZ 1002c459 f i DelayImp:delayhlp.obj
 0001:0002b4d4       ?DloadLock@@YGXXZ          1002c4d4 f i DelayImp:delayhlp.obj
 0001:0002b531       ?DloadMakePermanentImageCommit@@YGXPAXK@Z 1002c531 f i DelayImp:delayhlp.obj
 0001:0002b5a3       ?DloadObtainSection@@YGPAXPAK0@Z 1002c5a3 f i DelayImp:delayhlp.obj
 0001:0002b626       ?DloadProtectSection@@YGXKPAK@Z 1002c626 f i DelayImp:delayhlp.obj
 0001:0002b696       ?DloadReleaseSectionWriteAccess@@YGXXZ 1002c696 f i DelayImp:delayhlp.obj
 0001:0002b6ce       ?DloadUnlock@@YGXXZ        1002c6ce f i DelayImp:delayhlp.obj
 0001:0002b718       ___delayLoadHelper2@8      1002c718 f   DelayImp:delayhlp.obj
 0001:0002b9a0       __FindPESection            1002c9a0 f   LIBCMT:pesect.obj
 0001:0002b9f0       __IsNonwritableInCurrentImage 1002c9f0 f   LIBCMT:pesect.obj
 0001:0002bab0       __ValidateImageBase        1002cab0 f   LIBCMT:pesect.obj
 0001:0002baf0       __aulldvrm                 1002caf0 f   LIBCMT:ulldvrm.obj
 0001:0002bb90       __alldiv                   1002cb90 f   LIBCMT:lldiv.obj
 0001:0002bc40       __allshl                   1002cc40 f   LIBCMT:llshl.obj
 0001:0002bc60       __aullshr                  1002cc60 f   LIBCMT:ullshr.obj
 0001:0002bc80       __SEH_prolog4_GS           1002cc80 f   LIBCMT:_sehprolg4gs_.obj
 0001:0002bcc9       __SEH_epilog4_GS           1002ccc9 f   LIBCMT:_sehprolg4gs_.obj
 0001:0002bce0       __alldvrm                  1002cce0 f   LIBCMT:lldvrm.obj
 0001:0002bdc0       __ftol2_sse                1002cdc0 f   LIBCMT:_ftol2_.obj
 0001:0002bdc9       __ftol2_pentium4           1002cdc9 f   LIBCMT:_ftol2_.obj
 0001:0002bddc       __ftol2_sse_excpt          1002cddc f   LIBCMT:_ftol2_.obj
 0001:0002be00       __ftol2                    1002ce00 f   LIBCMT:_ftol2_.obj
 0001:0002be80       _strrchr                   1002ce80 f   libvcruntime:strrchr.obj
 0001:0002bfc0       __setjmp3                  1002cfc0 f   libvcruntime:_setjmp3_.obj
 0001:0002c040       _fmod                      1002d040 f   libucrt:87fmod.obj
 0001:0002c04a       __CIfmod                   1002d04a f   libucrt:87fmod.obj
 0001:0002c070       __libm_sse2_acos_precise   1002d070 f   libucrt:acos_sse2_precise.obj
 0001:0002c590       __libm_sse2_sqrt_precise   1002d590 f   libucrt:sqrt_sse2_precise.obj
 0001:0002c690       __libm_sse2_tan_precise    1002d690 f   libucrt:tan_sse2_precise.obj
 0001:0002c900       _floor                     1002d900 f   libucrt:floor_pentium4.obj
 0001:0002c940       __floor_pentium4           1002d940 f   libucrt:floor_pentium4.obj
 0001:0002ca00       __cintrindisp2             1002da00 f   libucrt:87cdisp.obj
 0001:0002ca44       __cintrindisp1             1002da44 f   libucrt:87cdisp.obj
 0001:0002ca87       __ctrandisp2               1002da87 f   libucrt:87cdisp.obj
 0001:0002cc16       __ctrandisp1               1002dc16 f   libucrt:87cdisp.obj
 0001:0002cc49       __fload                    1002dc49 f   libucrt:87cdisp.obj
 0001:0002cc90       _acos                      1002dc90 f   libucrt:acos.obj
 0001:0002ccd0       __CIacos                   1002dcd0 f   libucrt:acos.obj
 0001:0002cd0b       __CIacos_default           1002dd0b f   libucrt:acos.obj
 0001:0002cd1f       __acos_default             1002dd1f     libucrt:acos.obj
 0001:0002cde0       __CIsqrt                   1002dde0 f   libucrt:sqrt.obj
 0001:0002cdf4       _sqrt                      1002ddf4     libucrt:sqrt.obj
 0001:0002cea0       _tan                       1002dea0 f   libucrt:tan.obj
 0001:0002cee0       __CItan                    1002dee0 f   libucrt:tan.obj
 0001:0002cf1b       __CItan_default            1002df1b f   libucrt:tan.obj
 0001:0002cf2f       __tan_default              1002df2f     libucrt:tan.obj
 0001:0002cfc6       __floor_default            1002dfc6 f   libucrt:floor.obj
 0001:0002d080       __CIacos_pentium4          1002e080 f   libucrt:acos_pentium4.obj
 0001:0002d098       __acos_pentium4            1002e098     libucrt:acos_pentium4.obj
 0001:0002d5e0       __CItan_pentium4           1002e5e0 f   libucrt:tan_pentium4.obj
 0001:0002d5f8       __tan_pentium4             1002e5f8     libucrt:tan_pentium4.obj
 0002:00000000       __imp__AddFontResourceExA@12 10030000     gdi32:GDI32.dll
 0002:00000004       \177GDI32_NULL_THUNK_DATA  10030004     gdi32:GDI32.dll
 0002:00000008       __imp__GetModuleHandleA@4  10030008     kernel32:KERNEL32.dll
 0002:0000000c       __imp__VirtualQuery@12     1003000c     kernel32:KERNEL32.dll
 0002:00000010       __imp__VirtualProtect@16   10030010     kernel32:KERNEL32.dll
 0002:00000014       __imp__GetSystemInfo@4     10030014     kernel32:KERNEL32.dll
 0002:00000018       __imp__SetEndOfFile@4      10030018     kernel32:KERNEL32.dll
 0002:0000001c       __imp__HeapSize@12         1003001c     kernel32:KERNEL32.dll
 0002:00000020       __imp__CreateFileW@28      10030020     kernel32:KERNEL32.dll
 0002:00000024       __imp__SetStdHandle@8      10030024     kernel32:KERNEL32.dll
 0002:00000028       __imp__GetConsoleCP@0      10030028     kernel32:KERNEL32.dll
 0002:0000002c       __imp__FlushFileBuffers@4  1003002c     kernel32:KERNEL32.dll
 0002:00000030       __imp__FreeEnvironmentStringsW@4 10030030     kernel32:KERNEL32.dll
 0002:00000034       __imp__GetEnvironmentStringsW@0 10030034     kernel32:KERNEL32.dll
 0002:00000038       __imp__GetCommandLineW@0   10030038     kernel32:KERNEL32.dll
 0002:0000003c       __imp__GetCommandLineA@0   1003003c     kernel32:KERNEL32.dll
 0002:00000040       __imp__GetOEMCP@0          10030040     kernel32:KERNEL32.dll
 0002:00000044       __imp__IsValidCodePage@4   10030044     kernel32:KERNEL32.dll
 0002:00000048       __imp__FindNextFileA@8     10030048     kernel32:KERNEL32.dll
 0002:0000004c       __imp__FindFirstFileExA@24 1003004c     kernel32:KERNEL32.dll
 0002:00000050       __imp__FindClose@4         10030050     kernel32:KERNEL32.dll
 0002:00000054       __imp__GetProcessHeap@0    10030054     kernel32:KERNEL32.dll
 0002:00000058       __imp__ReadConsoleW@20     10030058     kernel32:KERNEL32.dll
 0002:0000005c       __imp__GetConsoleMode@8    1003005c     kernel32:KERNEL32.dll
 0002:00000060       __imp__SetFilePointerEx@20 10030060     kernel32:KERNEL32.dll
 0002:00000064       __imp__GetACP@0            10030064     kernel32:KERNEL32.dll
 0002:00000068       __imp__CreateThread@24     10030068     kernel32:KERNEL32.dll
 0002:0000006c       __imp__OutputDebugStringW@4 1003006c     kernel32:KERNEL32.dll
 0002:00000070       __imp__WriteFile@20        10030070     kernel32:KERNEL32.dll
 0002:00000074       __imp__ExitProcess@4       10030074     kernel32:KERNEL32.dll
 0002:00000078       __imp__HeapFree@12         10030078     kernel32:KERNEL32.dll
 0002:0000007c       __imp__HeapReAlloc@16      1003007c     kernel32:KERNEL32.dll
 0002:00000080       __imp__HeapAlloc@12        10030080     kernel32:KERNEL32.dll
 0002:00000084       __imp__ReadFile@20         10030084     kernel32:KERNEL32.dll
 0002:00000088       __imp__WriteConsoleW@20    10030088     kernel32:KERNEL32.dll
 0002:0000008c       __imp__GetModuleHandleExW@12 1003008c     kernel32:KERNEL32.dll
 0002:00000090       __imp__GetModuleFileNameW@12 10030090     kernel32:KERNEL32.dll
 0002:00000094       __imp__GetModuleFileNameA@12 10030094     kernel32:KERNEL32.dll
 0002:00000098       __imp__GetFileType@4       10030098     kernel32:KERNEL32.dll
 0002:0000009c       __imp__GetStdHandle@4      1003009c     kernel32:KERNEL32.dll
 0002:000000a0       __imp__InterlockedFlushSList@4 100300a0     kernel32:KERNEL32.dll
 0002:000000a4       __imp__LoadLibraryExW@12   100300a4     kernel32:KERNEL32.dll
 0002:000000a8       __imp__FreeLibrary@4       100300a8     kernel32:KERNEL32.dll
 0002:000000ac       __imp__GetLastError@0      100300ac     kernel32:KERNEL32.dll
 0002:000000b0       __imp__RaiseException@16   100300b0     kernel32:KERNEL32.dll
 0002:000000b4       __imp__RtlUnwind@16        100300b4     kernel32:KERNEL32.dll
 0002:000000b8       __imp__InitializeSListHead@4 100300b8     kernel32:KERNEL32.dll
 0002:000000bc       __imp__GetCurrentThreadId@0 100300bc     kernel32:KERNEL32.dll
 0002:000000c0       __imp__GetCurrentProcessId@0 100300c0     kernel32:KERNEL32.dll
 0002:000000c4       __imp__QueryPerformanceCounter@4 100300c4     kernel32:KERNEL32.dll
 0002:000000c8       __imp__GetStartupInfoW@4   100300c8     kernel32:KERNEL32.dll
 0002:000000cc       __imp__IsDebuggerPresent@0 100300cc     kernel32:KERNEL32.dll
 0002:000000d0       __imp__IsProcessorFeaturePresent@4 100300d0     kernel32:KERNEL32.dll
 0002:000000d4       __imp__TerminateProcess@8  100300d4     kernel32:KERNEL32.dll
 0002:000000d8       __imp__GetCurrentProcess@0 100300d8     kernel32:KERNEL32.dll
 0002:000000dc       __imp__SetUnhandledExceptionFilter@4 100300dc     kernel32:KERNEL32.dll
 0002:000000e0       __imp__UnhandledExceptionFilter@4 100300e0     kernel32:KERNEL32.dll
 0002:000000e4       __imp__WaitForSingleObjectEx@12 100300e4     kernel32:KERNEL32.dll
 0002:000000e8       __imp__CloseHandle@4       100300e8     kernel32:KERNEL32.dll
 0002:000000ec       __imp__GetCPInfo@8         100300ec     kernel32:KERNEL32.dll
 0002:000000f0       __imp__GetStringTypeW@16   100300f0     kernel32:KERNEL32.dll
 0002:000000f4       __imp__LCMapStringW@24     100300f4     kernel32:KERNEL32.dll
 0002:000000f8       __imp__GetProcAddress@8    100300f8     kernel32:KERNEL32.dll
 0002:000000fc       __imp__GetModuleHandleW@4  100300fc     kernel32:KERNEL32.dll
 0002:00000100       __imp__GetSystemTimeAsFileTime@4 10030100     kernel32:KERNEL32.dll
 0002:00000104       __imp__TlsFree@4           10030104     kernel32:KERNEL32.dll
 0002:00000108       __imp__TlsSetValue@8       10030108     kernel32:KERNEL32.dll
 0002:0000010c       __imp__TlsGetValue@4       1003010c     kernel32:KERNEL32.dll
 0002:00000110       __imp__TlsAlloc@0          10030110     kernel32:KERNEL32.dll
 0002:00000114       __imp__CreateEventW@16     10030114     kernel32:KERNEL32.dll
 0002:00000118       __imp__InitializeCriticalSectionAndSpinCount@8 10030118     kernel32:KERNEL32.dll
 0002:0000011c       __imp__SetLastError@4      1003011c     kernel32:KERNEL32.dll
 0002:00000120       __imp__MultiByteToWideChar@24 10030120     kernel32:KERNEL32.dll
 0002:00000124       __imp__DecodePointer@4     10030124     kernel32:KERNEL32.dll
 0002:00000128       __imp__EncodePointer@4     10030128     kernel32:KERNEL32.dll
 0002:0000012c       __imp__DeleteCriticalSection@4 1003012c     kernel32:KERNEL32.dll
 0002:00000130       __imp__LeaveCriticalSection@4 10030130     kernel32:KERNEL32.dll
 0002:00000134       __imp__EnterCriticalSection@4 10030134     kernel32:KERNEL32.dll
 0002:00000138       __imp__WideCharToMultiByte@32 10030138     kernel32:KERNEL32.dll
 0002:0000013c       __imp__LoadLibraryExA@12   1003013c     kernel32:KERNEL32.dll
 0002:00000140       \177KERNEL32_NULL_THUNK_DATA 10030140     kernel32:KERNEL32.dll
 0002:00000144       __imp__FT_Get_Sfnt_Table   10030144     freetype:freetype6.dll
 0002:00000148       __imp__FT_Done_FreeType    10030148     freetype:freetype6.dll
 0002:0000014c       __imp__FT_Done_Face        1003014c     freetype:freetype6.dll
 0002:00000150       __imp__FT_Get_Sfnt_Name_Count 10030150     freetype:freetype6.dll
 0002:00000154       __imp__FT_Init_FreeType    10030154     freetype:freetype6.dll
 0002:00000158       __imp__FT_Get_Sfnt_Name    10030158     freetype:freetype6.dll
 0002:0000015c       __imp__FT_New_Face         1003015c     freetype:freetype6.dll
 0002:00000160       \177freetype6_NULL_THUNK_DATA 10030160     freetype:freetype6.dll
 0002:00000164       __imp__jpeg_CreateDecompress 10030164     jpeg:jpeg62.dll
 0002:00000168       __imp__jpeg_start_compress 10030168     jpeg:jpeg62.dll
 0002:0000016c       __imp__jpeg_write_scanlines 1003016c     jpeg:jpeg62.dll
 0002:00000170       __imp__jpeg_finish_compress 10030170     jpeg:jpeg62.dll
 0002:00000174       __imp__jpeg_destroy_decompress 10030174     jpeg:jpeg62.dll
 0002:00000178       __imp__jpeg_destroy_compress 10030178     jpeg:jpeg62.dll
 0002:0000017c       __imp__jpeg_std_error      1003017c     jpeg:jpeg62.dll
 0002:00000180       __imp__jpeg_CreateCompress 10030180     jpeg:jpeg62.dll
 0002:00000184       __imp__jpeg_set_quality    10030184     jpeg:jpeg62.dll
 0002:00000188       __imp__jpeg_simple_progression 10030188     jpeg:jpeg62.dll
 0002:0000018c       __imp__jpeg_read_header    1003018c     jpeg:jpeg62.dll
 0002:00000190       __imp__jpeg_start_decompress 10030190     jpeg:jpeg62.dll
 0002:00000194       __imp__jpeg_finish_decompress 10030194     jpeg:jpeg62.dll
 0002:00000198       __imp__jpeg_abort_decompress 10030198     jpeg:jpeg62.dll
 0002:0000019c       __imp__jpeg_read_scanlines 1003019c     jpeg:jpeg62.dll
 0002:000001a0       __imp__jpeg_resync_to_restart 100301a0     jpeg:jpeg62.dll
 0002:000001a4       __imp__jpeg_set_defaults   100301a4     jpeg:jpeg62.dll
 0002:000001a8       \177jpeg62_NULL_THUNK_DATA 100301a8     jpeg:jpeg62.dll
 0002:000001ac       __imp__cairo_path_destroy  100301ac     cairo:libcairo-2.dll
 0002:000001b0       __imp__cairo_in_fill       100301b0     cairo:libcairo-2.dll
 0002:000001b4       __imp__cairo_set_operator  100301b4     cairo:libcairo-2.dll
 0002:000001b8       __imp__cairo_pattern_get_linear_points 100301b8     cairo:libcairo-2.dll
 0002:000001bc       __imp__cairo_surface_mark_dirty_rectangle 100301bc     cairo:libcairo-2.dll
 0002:000001c0       __imp__cairo_save          100301c0     cairo:libcairo-2.dll
 0002:000001c4       __imp__cairo_get_matrix    100301c4     cairo:libcairo-2.dll
 0002:000001c8       __imp__cairo_arc_negative  100301c8     cairo:libcairo-2.dll
 0002:000001cc       __imp__cairo_stroke_preserve 100301cc     cairo:libcairo-2.dll
 0002:000001d0       __imp__cairo_rectangle     100301d0     cairo:libcairo-2.dll
 0002:000001d4       __imp__cairo_set_line_join 100301d4     cairo:libcairo-2.dll
 0002:000001d8       __imp__cairo_pattern_get_filter 100301d8     cairo:libcairo-2.dll
 0002:000001dc       __imp__cairo_set_source_surface 100301dc     cairo:libcairo-2.dll
 0002:000001e0       __imp__cairo_status        100301e0     cairo:libcairo-2.dll
 0002:000001e4       __imp__cairo_fill          100301e4     cairo:libcairo-2.dll
 0002:000001e8       __imp__cairo_set_line_cap  100301e8     cairo:libcairo-2.dll
 0002:000001ec       __imp__cairo_get_source    100301ec     cairo:libcairo-2.dll
 0002:000001f0       __imp__cairo_mask_surface  100301f0     cairo:libcairo-2.dll
 0002:000001f4       __imp__cairo_pattern_set_filter 100301f4     cairo:libcairo-2.dll
 0002:000001f8       __imp__cairo_fill_extents  100301f8     cairo:libcairo-2.dll
 0002:000001fc       __imp__cairo_show_page     100301fc     cairo:libcairo-2.dll
 0002:00000200       __imp__cairo_restore       10030200     cairo:libcairo-2.dll
 0002:00000204       __imp__cairo_line_to       10030204     cairo:libcairo-2.dll
 0002:00000208       __imp__cairo_set_fill_rule 10030208     cairo:libcairo-2.dll
 0002:0000020c       __imp__cairo_paint         1003020c     cairo:libcairo-2.dll
 0002:00000210       __imp__cairo_push_group    10030210     cairo:libcairo-2.dll
 0002:00000214       __imp__cairo_image_surface_create_for_data 10030214     cairo:libcairo-2.dll
 0002:00000218       __imp__cairo_stroke        10030218     cairo:libcairo-2.dll
 0002:0000021c       __imp__cairo_pattern_create_for_surface 1003021c     cairo:libcairo-2.dll
 0002:00000220       __imp__cairo_get_line_cap  10030220     cairo:libcairo-2.dll
 0002:00000224       __imp__cairo_pattern_set_extend 10030224     cairo:libcairo-2.dll
 0002:00000228       __imp__cairo_get_operator  10030228     cairo:libcairo-2.dll
 0002:0000022c       __imp__cairo_clip          1003022c     cairo:libcairo-2.dll
 0002:00000230       __imp__cairo_pattern_get_user_data 10030230     cairo:libcairo-2.dll
 0002:00000234       __imp__cairo_pattern_set_user_data 10030234     cairo:libcairo-2.dll
 0002:00000238       __imp__cairo_pattern_destroy 10030238     cairo:libcairo-2.dll
 0002:0000023c       __imp__cairo_pattern_create_linear 1003023c     cairo:libcairo-2.dll
 0002:00000240       __imp__cairo_pattern_create_radial 10030240     cairo:libcairo-2.dll
 0002:00000244       __imp__cairo_pattern_add_color_stop_rgba 10030244     cairo:libcairo-2.dll
 0002:00000248       __imp__cairo_create        10030248     cairo:libcairo-2.dll
 0002:0000024c       __imp__cairo_set_line_width 1003024c     cairo:libcairo-2.dll
 0002:00000250       __imp__cairo_get_antialias 10030250     cairo:libcairo-2.dll
 0002:00000254       __imp__cairo_set_source_rgba 10030254     cairo:libcairo-2.dll
 0002:00000258       __imp__cairo_copy_path_flat 10030258     cairo:libcairo-2.dll
 0002:0000025c       __imp__cairo_set_source    1003025c     cairo:libcairo-2.dll
 0002:00000260       __imp__cairo_scale         10030260     cairo:libcairo-2.dll
 0002:00000264       __imp__cairo_user_to_device_distance 10030264     cairo:libcairo-2.dll
 0002:00000268       __imp__cairo_pattern_get_color_stop_count 10030268     cairo:libcairo-2.dll
 0002:0000026c       __imp__cairo_set_matrix    1003026c     cairo:libcairo-2.dll
 0002:00000270       __imp__cairo_surface_mark_dirty 10030270     cairo:libcairo-2.dll
 0002:00000274       __imp__cairo_fill_preserve 10030274     cairo:libcairo-2.dll
 0002:00000278       __imp__cairo_pattern_get_surface 10030278     cairo:libcairo-2.dll
 0002:0000027c       __imp__cairo_rotate        1003027c     cairo:libcairo-2.dll
 0002:00000280       __imp__cairo_stroke_extents 10030280     cairo:libcairo-2.dll
 0002:00000284       __imp__cairo_matrix_init   10030284     cairo:libcairo-2.dll
 0002:00000288       __imp__cairo_pop_group_to_source 10030288     cairo:libcairo-2.dll
 0002:0000028c       __imp__cairo_get_dash      1003028c     cairo:libcairo-2.dll
 0002:00000290       __imp__cairo_get_miter_limit 10030290     cairo:libcairo-2.dll
 0002:00000294       __imp__cairo_pattern_get_color_stop_rgba 10030294     cairo:libcairo-2.dll
 0002:00000298       __imp__cairo_append_path   10030298     cairo:libcairo-2.dll
 0002:0000029c       __imp__cairo_new_path      1003029c     cairo:libcairo-2.dll
 0002:000002a0       __imp__cairo_identity_matrix 100302a0     cairo:libcairo-2.dll
 0002:000002a4       __imp__cairo_get_line_join 100302a4     cairo:libcairo-2.dll
 0002:000002a8       __imp__cairo_in_stroke     100302a8     cairo:libcairo-2.dll
 0002:000002ac       __imp__cairo_surface_status 100302ac     cairo:libcairo-2.dll
 0002:000002b0       __imp__cairo_surface_flush 100302b0     cairo:libcairo-2.dll
 0002:000002b4       __imp__cairo_status_to_string 100302b4     cairo:libcairo-2.dll
 0002:000002b8       __imp__cairo_image_surface_get_data 100302b8     cairo:libcairo-2.dll
 0002:000002bc       __imp__cairo_destroy       100302bc     cairo:libcairo-2.dll
 0002:000002c0       __imp__cairo_image_surface_get_format 100302c0     cairo:libcairo-2.dll
 0002:000002c4       __imp__cairo_image_surface_get_stride 100302c4     cairo:libcairo-2.dll
 0002:000002c8       __imp__cairo_svg_surface_create_for_stream 100302c8     cairo:libcairo-2.dll
 0002:000002cc       __imp__cairo_pdf_surface_create_for_stream 100302cc     cairo:libcairo-2.dll
 0002:000002d0       __imp__cairo_pdf_surface_set_size 100302d0     cairo:libcairo-2.dll
 0002:000002d4       __imp__cairo_surface_finish 100302d4     cairo:libcairo-2.dll
 0002:000002d8       __imp__cairo_image_surface_get_width 100302d8     cairo:libcairo-2.dll
 0002:000002dc       __imp__cairo_image_surface_create 100302dc     cairo:libcairo-2.dll
 0002:000002e0       __imp__cairo_surface_set_mime_data 100302e0     cairo:libcairo-2.dll
 0002:000002e4       __imp__cairo_image_surface_get_height 100302e4     cairo:libcairo-2.dll
 0002:000002e8       __imp__cairo_surface_destroy 100302e8     cairo:libcairo-2.dll
 0002:000002ec       __imp__cairo_version_string 100302ec     cairo:libcairo-2.dll
 0002:000002f0       __imp__cairo_move_to       100302f0     cairo:libcairo-2.dll
 0002:000002f4       __imp__cairo_image_surface_create_from_png_stream 100302f4     cairo:libcairo-2.dll
 0002:000002f8       __imp__cairo_image_surface_create_from_png 100302f8     cairo:libcairo-2.dll
 0002:000002fc       __imp__cairo_format_stride_for_width 100302fc     cairo:libcairo-2.dll
 0002:00000300       __imp__cairo_curve_to      10030300     cairo:libcairo-2.dll
 0002:00000304       __imp__cairo_pattern_get_radial_circles 10030304     cairo:libcairo-2.dll
 0002:00000308       __imp__cairo_translate     10030308     cairo:libcairo-2.dll
 0002:0000030c       __imp__cairo_get_current_point 1003030c     cairo:libcairo-2.dll
 0002:00000310       __imp__cairo_set_miter_limit 10030310     cairo:libcairo-2.dll
 0002:00000314       __imp__cairo_clip_preserve 10030314     cairo:libcairo-2.dll
 0002:00000318       __imp__cairo_pattern_get_type 10030318     cairo:libcairo-2.dll
 0002:0000031c       __imp__cairo_get_line_width 1003031c     cairo:libcairo-2.dll
 0002:00000320       __imp__cairo_arc           10030320     cairo:libcairo-2.dll
 0002:00000324       __imp__cairo_close_path    10030324     cairo:libcairo-2.dll
 0002:00000328       __imp__cairo_transform     10030328     cairo:libcairo-2.dll
 0002:0000032c       __imp__cairo_set_dash      1003032c     cairo:libcairo-2.dll
 0002:00000330       __imp__cairo_get_dash_count 10030330     cairo:libcairo-2.dll
 0002:00000334       __imp__cairo_set_antialias 10030334     cairo:libcairo-2.dll
 0002:00000338       __imp__cairo_paint_with_alpha 10030338     cairo:libcairo-2.dll
 0002:0000033c       \177libcairo-2_NULL_THUNK_DATA 1003033c     cairo:libcairo-2.dll
 0002:00000340       __imp__g_hash_table_lookup 10030340     glib-2.0:libglib-2.0-0.dll
 0002:00000344       __imp__g_string_new        10030344     glib-2.0:libglib-2.0-0.dll
 0002:00000348       __imp__g_list_free         10030348     glib-2.0:libglib-2.0-0.dll
 0002:0000034c       __imp__g_list_insert_sorted 1003034c     glib-2.0:libglib-2.0-0.dll
 0002:00000350       __imp__g_iconv             10030350     glib-2.0:libglib-2.0-0.dll
 0002:00000354       __imp__g_iconv_open        10030354     glib-2.0:libglib-2.0-0.dll
 0002:00000358       __imp__g_list_first        10030358     glib-2.0:libglib-2.0-0.dll
 0002:0000035c       __imp__g_list_foreach      1003035c     glib-2.0:libglib-2.0-0.dll
 0002:00000360       __imp__g_hash_table_new    10030360     glib-2.0:libglib-2.0-0.dll
 0002:00000364       __imp__g_strdup            10030364     glib-2.0:libglib-2.0-0.dll
 0002:00000368       __imp__g_string_free       10030368     glib-2.0:libglib-2.0-0.dll
 0002:0000036c       __imp__g_str_equal         1003036c     glib-2.0:libglib-2.0-0.dll
 0002:00000370       __imp__g_strfreev          10030370     glib-2.0:libglib-2.0-0.dll
 0002:00000374       __imp__g_hash_table_replace 10030374     glib-2.0:libglib-2.0-0.dll
 0002:00000378       __imp__g_free              10030378     glib-2.0:libglib-2.0-0.dll
 0002:0000037c       __imp__g_strsplit          1003037c     glib-2.0:libglib-2.0-0.dll
 0002:00000380       __imp__g_ascii_strcasecmp  10030380     glib-2.0:libglib-2.0-0.dll
 0002:00000384       __imp__g_str_hash          10030384     glib-2.0:libglib-2.0-0.dll
 0002:00000388       __imp__g_string_append     10030388     glib-2.0:libglib-2.0-0.dll
 0002:0000038c       __imp__g_hash_table_destroy 1003038c     glib-2.0:libglib-2.0-0.dll
 0002:00000390       \177libglib-2.0-0_NULL_THUNK_DATA 10030390     glib-2.0:libglib-2.0-0.dll
 0002:00000394       __imp__g_object_unref      10030394     gobject-2.0:libgobject-2.0-0.dll
 0002:00000398       \177libgobject-2.0-0_NULL_THUNK_DATA 10030398     gobject-2.0:libgobject-2.0-0.dll
 0002:0000039c       __imp__pango_font_description_set_stretch 1003039c     pango-1.0:libpango-1.0-0.dll
 0002:000003a0       __imp__pango_font_metrics_get_ascent 100303a0     pango-1.0:libpango-1.0-0.dll
 0002:000003a4       __imp__pango_layout_get_line 100303a4     pango-1.0:libpango-1.0-0.dll
 0002:000003a8       __imp__pango_layout_set_text 100303a8     pango-1.0:libpango-1.0-0.dll
 0002:000003ac       __imp__pango_layout_get_baseline 100303ac     pango-1.0:libpango-1.0-0.dll
 0002:000003b0       __imp__pango_context_get_language 100303b0     pango-1.0:libpango-1.0-0.dll
 0002:000003b4       __imp__pango_font_description_set_absolute_size 100303b4     pango-1.0:libpango-1.0-0.dll
 0002:000003b8       __imp__pango_layout_get_pixel_extents 100303b8     pango-1.0:libpango-1.0-0.dll
 0002:000003bc       __imp__pango_font_description_from_string 100303bc     pango-1.0:libpango-1.0-0.dll
 0002:000003c0       __imp__pango_layout_line_get_extents 100303c0     pango-1.0:libpango-1.0-0.dll
 0002:000003c4       __imp__pango_layout_get_extents 100303c4     pango-1.0:libpango-1.0-0.dll
 0002:000003c8       __imp__pango_layout_get_context 100303c8     pango-1.0:libpango-1.0-0.dll
 0002:000003cc       __imp__pango_layout_set_font_description 100303cc     pango-1.0:libpango-1.0-0.dll
 0002:000003d0       __imp__pango_context_get_metrics 100303d0     pango-1.0:libpango-1.0-0.dll
 0002:000003d4       __imp__pango_layout_get_font_description 100303d4     pango-1.0:libpango-1.0-0.dll
 0002:000003d8       __imp__pango_font_description_copy 100303d8     pango-1.0:libpango-1.0-0.dll
 0002:000003dc       __imp__pango_font_description_set_family_static 100303dc     pango-1.0:libpango-1.0-0.dll
 0002:000003e0       __imp__pango_font_description_set_family 100303e0     pango-1.0:libpango-1.0-0.dll
 0002:000003e4       __imp__pango_font_description_get_family 100303e4     pango-1.0:libpango-1.0-0.dll
 0002:000003e8       __imp__pango_font_description_free 100303e8     pango-1.0:libpango-1.0-0.dll
 0002:000003ec       __imp__pango_font_description_new 100303ec     pango-1.0:libpango-1.0-0.dll
 0002:000003f0       __imp__pango_font_description_equal 100303f0     pango-1.0:libpango-1.0-0.dll
 0002:000003f4       __imp__pango_font_description_set_weight 100303f4     pango-1.0:libpango-1.0-0.dll
 0002:000003f8       __imp__pango_font_description_set_style 100303f8     pango-1.0:libpango-1.0-0.dll
 0002:000003fc       __imp__pango_font_description_better_match 100303fc     pango-1.0:libpango-1.0-0.dll
 0002:00000400       __imp__pango_font_metrics_unref 10030400     pango-1.0:libpango-1.0-0.dll
 0002:00000404       \177libpango-1.0-0_NULL_THUNK_DATA 10030404     pango-1.0:libpango-1.0-0.dll
 0002:00000408       __imp__pango_cairo_font_map_set_default 10030408     pangocairo-1.0:libpangocairo-1.0-0.dll
 0002:0000040c       __imp__pango_cairo_create_layout 1003040c     pangocairo-1.0:libpangocairo-1.0-0.dll
 0002:00000410       __imp__pango_cairo_layout_path 10030410     pangocairo-1.0:libpangocairo-1.0-0.dll
 0002:00000414       __imp__pango_cairo_update_layout 10030414     pangocairo-1.0:libpangocairo-1.0-0.dll
 0002:00000418       __imp__pango_cairo_show_layout 10030418     pangocairo-1.0:libpangocairo-1.0-0.dll
 0002:0000041c       \177libpangocairo-1.0-0_NULL_THUNK_DATA 1003041c     pangocairo-1.0:libpangocairo-1.0-0.dll
 0002:00000420       __imp__png_create_write_struct_2 10030420     libpng:libpng14-14.dll
 0002:00000424       __imp__png_error           10030424     libpng:libpng14-14.dll
 0002:00000428       __imp__png_write_end       10030428     libpng:libpng14-14.dll
 0002:0000042c       __imp__png_set_filler      1003042c     libpng:libpng14-14.dll
 0002:00000430       __imp__png_create_info_struct 10030430     libpng:libpng14-14.dll
 0002:00000434       __imp__png_set_write_fn    10030434     libpng:libpng14-14.dll
 0002:00000438       __imp__png_set_IHDR        10030438     libpng:libpng14-14.dll
 0002:0000043c       __imp__png_set_compression_level 1003043c     libpng:libpng14-14.dll
 0002:00000440       __imp__png_set_filter      10030440     libpng:libpng14-14.dll
 0002:00000444       __imp__png_set_PLTE        10030444     libpng:libpng14-14.dll
 0002:00000448       __imp__png_set_packing     10030448     libpng:libpng14-14.dll
 0002:0000044c       __imp__png_get_error_ptr   1003044c     libpng:libpng14-14.dll
 0002:00000450       __imp__png_write_image     10030450     libpng:libpng14-14.dll
 0002:00000454       __imp__png_set_packswap    10030454     libpng:libpng14-14.dll
 0002:00000458       __imp__png_write_info      10030458     libpng:libpng14-14.dll
 0002:0000045c       __imp__png_get_io_ptr      1003045c     libpng:libpng14-14.dll
 0002:00000460       __imp__png_malloc          10030460     libpng:libpng14-14.dll
 0002:00000464       __imp__png_set_longjmp_fn  10030464     libpng:libpng14-14.dll
 0002:00000468       __imp__png_set_tRNS        10030468     libpng:libpng14-14.dll
 0002:0000046c       __imp__png_set_write_user_transform_fn 1003046c     libpng:libpng14-14.dll
 0002:00000470       __imp__png_set_bKGD        10030470     libpng:libpng14-14.dll
 0002:00000474       __imp__png_destroy_write_struct 10030474     libpng:libpng14-14.dll
 0002:00000478       __imp__png_data_freer      10030478     libpng:libpng14-14.dll
 0002:0000047c       \177libpng14-14_NULL_THUNK_DATA 1003047c     libpng:libpng14-14.dll
 0002:00000480       ___guard_check_icall_fptr  10030480     LIBCMT:guard_support.obj
 0002:00000484       ___xc_a                    10030484     LIBCMT:initializers.obj
 0002:000004c4       __register_canvas_         100304c4     init.obj
 0002:000004c8       ___xc_z                    100304c8     LIBCMT:initializers.obj
 0002:000004cc       ___xi_a                    100304cc     LIBCMT:initializers.obj
 0002:000004d8       ___acrt_stdio_initializer  100304d8     libucrt:stdio_initializer.obj
 0002:000004dc       ___acrt_tran_sse2_initializer 100304dc     libucrt:sse2_initializer.obj
 0002:000004e0       ___acrt_timeset_initializer 100304e0     libucrt:timeset_initializer.obj
 0002:000004e4       ___acrt_multibyte_initializer 100304e4     libucrt:multibyte_initializer.obj
 0002:000004e8       ___xi_z                    100304e8     LIBCMT:initializers.obj
 0002:000004ec       ___xl_a                    100304ec     LIBCMT:tlssup.obj
 0002:000004f0       ___xl_z                    100304f0     LIBCMT:tlssup.obj
 0002:000004f4       ___xp_a                    100304f4     LIBCMT:initializers.obj
 0002:000004f8       ___acrt_locale_terminator  100304f8     libucrt:locale_initializer.obj
 0002:000004fc       ___dcrt_console_output_terminator 100304fc     libucrt:console_output_initializer.obj
 0002:00000500       ___acrt_stdio_terminator   10030500     libucrt:stdio_initializer.obj
 0002:00000504       ___xp_z                    10030504     LIBCMT:initializers.obj
 0002:00000508       ___xt_a                    10030508     LIBCMT:initializers.obj
 0002:0000050c       ___xt_z                    1003050c     LIBCMT:initializers.obj
 0002:00000510       __sz_node_exe              10030510     node:node.exe
 0002:0000051c       ??_C@_01NBENCBCI@?$CK?$AA@ 1003051c     libcpmt:locale0.obj
 0002:00000524       ??_7exception@std@@6B@     10030524     libcpmt:xthrow.obj
 0002:0000052c       ??_C@_0BC@EOODALEL@Unknown?5exception?$AA@ 1003052c     libcpmt:xthrow.obj
 0002:00000544       ??_7bad_alloc@std@@6B@     10030544     libcpmt:xthrow.obj
 0002:0000054c       ??_C@_0P@GHFPNOJB@bad?5allocation?$AA@ 1003054c     libcpmt:xthrow.obj
 0002:00000560       ??_7logic_error@std@@6B@   10030560     libcpmt:xthrow.obj
 0002:0000056c       ??_7length_error@std@@6B@  1003056c     libcpmt:xthrow.obj
 0002:00000578       ??_7out_of_range@std@@6B@  10030578     libcpmt:xthrow.obj
 0002:00000580       ?_BADOFF@std@@3_JB         10030580     libcpmt:ios.obj
 0002:00000588       ??_C@_0BD@JPHBMONG@identifier?5removed?$AA@ 10030588     libcpmt:syserror.obj
 0002:0000059c       ??_C@_0BG@CDNPAGJK@illegal?5byte?5sequence?$AA@ 1003059c     libcpmt:syserror.obj
 0002:000005b4       ??_C@_0CD@BNPLBMNA@inappropriate?5io?5control?5operati@ 100305b4     libcpmt:syserror.obj
 0002:000005d8       ??_C@_0M@EGEKIIMP@interrupted?$AA@ 100305d8     libcpmt:syserror.obj
 0002:000005e4       ??_C@_0BB@FCMFBGOM@invalid?5argument?$AA@ 100305e4     libcpmt:syserror.obj
 0002:000005f8       ??_C@_0N@OHAFKDEK@invalid?5seek?$AA@ 100305f8     libcpmt:syserror.obj
 0002:00000608       ??_C@_08GLNPIFBN@io?5error?$AA@ 10030608     libcpmt:syserror.obj
 0002:00000614       ??_C@_0P@FLLDBIDK@is?5a?5directory?$AA@ 10030614     libcpmt:syserror.obj
 0002:00000624       ??_C@_0N@IFLPBIOP@message?5size?$AA@ 10030624     libcpmt:syserror.obj
 0002:00000634       ??_C@_0N@KIIEAAIO@network?5down?$AA@ 10030634     libcpmt:syserror.obj
 0002:00000644       ??_C@_0O@FNPDBHEE@network?5reset?$AA@ 10030644     libcpmt:syserror.obj
 0002:00000654       ??_C@_0BE@IFNCKGE@network?5unreachable?$AA@ 10030654     libcpmt:syserror.obj
 0002:00000668       ??_C@_0BA@PFFCAOFK@no?5buffer?5space?$AA@ 10030668     libcpmt:syserror.obj
 0002:00000678       ??_C@_0BB@IEPBLJHK@no?5child?5process?$AA@ 10030678     libcpmt:syserror.obj
 0002:0000068c       ??_C@_07PLECNNKG@no?5link?$AA@ 1003068c     libcpmt:syserror.obj
 0002:00000694       ??_C@_0BC@NJECKMKE@no?5lock?5available?$AA@ 10030694     libcpmt:syserror.obj
 0002:000006a8       ??_C@_0BF@PBGGPKKE@no?5message?5available?$AA@ 100306a8     libcpmt:syserror.obj
 0002:000006c0       ??_C@_0L@EDOLMPAK@no?5message?$AA@ 100306c0     libcpmt:syserror.obj
 0002:000006cc       ??_C@_0BD@EAMBFIDF@no?5protocol?5option?$AA@ 100306cc     libcpmt:syserror.obj
 0002:000006e0       ??_C@_0BD@IJDJKDEA@no?5space?5on?5device?$AA@ 100306e0     libcpmt:syserror.obj
 0002:000006f4       ??_C@_0BE@MKFDAFMP@no?5stream?5resources?$AA@ 100306f4     libcpmt:syserror.obj
 0002:00000708       ??_C@_0BK@IMCPHCBI@no?5such?5device?5or?5address?$AA@ 10030708     libcpmt:syserror.obj
 0002:00000724       ??_C@_0P@FDINDDOK@no?5such?5device?$AA@ 10030724     libcpmt:syserror.obj
 0002:00000734       ??_C@_0BK@NDOCBPGE@no?5such?5file?5or?5directory?$AA@ 10030734     libcpmt:syserror.obj
 0002:00000750       ??_C@_0BA@ENLPPKBN@no?5such?5process?$AA@ 10030750     libcpmt:syserror.obj
 0002:00000760       ??_C@_0BA@DOCPFFJG@not?5a?5directory?$AA@ 10030760     libcpmt:syserror.obj
 0002:00000770       ??_C@_0N@POEIPGGF@not?5a?5socket?$AA@ 10030770     libcpmt:syserror.obj
 0002:00000780       ??_C@_0N@LGAPMMPI@not?5a?5stream?$AA@ 10030780     libcpmt:syserror.obj
 0002:00000790       ??_C@_0O@GLMIBBEG@not?5connected?$AA@ 10030790     libcpmt:syserror.obj
 0002:000007a0       ??_C@_0BC@ENOOLCNF@not?5enough?5memory?$AA@ 100307a0     libcpmt:syserror.obj
 0002:000007b4       ??_C@_0O@NHEDABJP@not?5supported?$AA@ 100307b4     libcpmt:syserror.obj
 0002:000007c4       ??_C@_0BD@MOLBPMEA@operation?5canceled?$AA@ 100307c4     libcpmt:syserror.obj
 0002:000007d8       ??_C@_0BG@KDKHOPCO@operation?5in?5progress?$AA@ 100307d8     libcpmt:syserror.obj
 0002:000007f0       ??_C@_0BI@OHIEJAAB@operation?5not?5permitted?$AA@ 100307f0     libcpmt:syserror.obj
 0002:00000808       ??_C@_0BI@LNEGIFLN@operation?5not?5supported?$AA@ 10030808     libcpmt:syserror.obj
 0002:00000820       ??_C@_0BG@OEMDKMEE@operation?5would?5block?$AA@ 10030820     libcpmt:syserror.obj
 0002:00000838       ??_C@_0L@BLPOFLNJ@owner?5dead?$AA@ 10030838     libcpmt:syserror.obj
 0002:00000844       ??_C@_0BC@CIJDGCDI@permission?5denied?$AA@ 10030844     libcpmt:syserror.obj
 0002:00000858       ??_C@_0P@FNPOCJBE@protocol?5error?$AA@ 10030858     libcpmt:syserror.obj
 0002:00000868       ??_C@_0BH@JPPPLHJB@protocol?5not?5supported?$AA@ 10030868     libcpmt:syserror.obj
 0002:00000880       ??_C@_0BG@EICBIHDP@read?5only?5file?5system?$AA@ 10030880     libcpmt:syserror.obj
 0002:00000898       ??_C@_0BO@BJBOMOEJ@resource?5deadlock?5would?5occur?$AA@ 10030898     libcpmt:syserror.obj
 0002:000008b8       ??_C@_0BP@LKNGHENJ@resource?5unavailable?5try?5again?$AA@ 100308b8     libcpmt:syserror.obj
 0002:000008d8       ??_C@_0BE@GOIPJJHG@result?5out?5of?5range?$AA@ 100308d8     libcpmt:syserror.obj
 0002:000008ec       ??_C@_0BG@MPLKFPAE@state?5not?5recoverable?$AA@ 100308ec     libcpmt:syserror.obj
 0002:00000904       ??_C@_0P@DIIFGFCG@stream?5timeout?$AA@ 10030904     libcpmt:syserror.obj
 0002:00000914       ??_C@_0P@IPFDMIFL@text?5file?5busy?$AA@ 10030914     libcpmt:syserror.obj
 0002:00000924       ??_C@_09KJPPMAOI@timed?5out?$AA@ 10030924     libcpmt:syserror.obj
 0002:00000930       ??_C@_0BO@HACHBEKI@too?5many?5files?5open?5in?5system?$AA@ 10030930     libcpmt:syserror.obj
 0002:00000950       ??_C@_0BE@GHAFMPAH@too?5many?5files?5open?$AA@ 10030950     libcpmt:syserror.obj
 0002:00000964       ??_C@_0P@HCOMKFCC@too?5many?5links?$AA@ 10030964     libcpmt:syserror.obj
 0002:00000974       ??_C@_0BO@EFGOJEF@too?5many?5symbolic?5link?5levels?$AA@ 10030974     libcpmt:syserror.obj
 0002:00000994       ??_C@_0BA@KGKGOOJA@value?5too?5large?$AA@ 10030994     libcpmt:syserror.obj
 0002:000009a4       ??_C@_0BE@MIEJDDNH@wrong?5protocol?5type?$AA@ 100309a4     libcpmt:syserror.obj
 0002:00000e78       ??_C@_0BN@LKKBCCDB@address?5family?5not?5supported?$AA@ 10030e78     libcpmt:syserror.obj
 0002:00000e98       ??_C@_0P@LDMLAFHI@address?5in?5use?$AA@ 10030e98     libcpmt:syserror.obj
 0002:00000ea8       ??_C@_0BG@DHPCNBJB@address?5not?5available?$AA@ 10030ea8     libcpmt:syserror.obj
 0002:00000ec0       ??_C@_0BC@DFIBIBIL@already?5connected?$AA@ 10030ec0     libcpmt:syserror.obj
 0002:00000ed4       ??_C@_0BH@CAKOHOMI@argument?5list?5too?5long?$AA@ 10030ed4     libcpmt:syserror.obj
 0002:00000eec       ??_C@_0BH@CGIMPKIM@argument?5out?5of?5domain?$AA@ 10030eec     libcpmt:syserror.obj
 0002:00000f04       ??_C@_0M@KGHGGJGL@bad?5address?$AA@ 10030f04     libcpmt:syserror.obj
 0002:00000f10       ??_C@_0BE@MPJPGCEO@bad?5file?5descriptor?$AA@ 10030f10     libcpmt:syserror.obj
 0002:00000f24       ??_C@_0M@PMMIEFCP@bad?5message?$AA@ 10030f24     libcpmt:syserror.obj
 0002:00000f30       ??_C@_0M@KPHOFDBE@broken?5pipe?$AA@ 10030f30     libcpmt:syserror.obj
 0002:00000f3c       ??_C@_0BD@MGNDDEGM@connection?5aborted?$AA@ 10030f3c     libcpmt:syserror.obj
 0002:00000f50       ??_C@_0BP@KAIHPOGN@connection?5already?5in?5progress?$AA@ 10030f50     libcpmt:syserror.obj
 0002:00000f70       ??_C@_0BD@PJLIIJEL@connection?5refused?$AA@ 10030f70     libcpmt:syserror.obj
 0002:00000f84       ??_C@_0BB@IECNJNOI@connection?5reset?$AA@ 10030f84     libcpmt:syserror.obj
 0002:00000f98       ??_C@_0BC@PPHBOELF@cross?5device?5link?$AA@ 10030f98     libcpmt:syserror.obj
 0002:00000fac       ??_C@_0BN@KDMIFEIP@destination?5address?5required?$AA@ 10030fac     libcpmt:syserror.obj
 0002:00000fcc       ??_C@_0BI@NGCEHDD@device?5or?5resource?5busy?$AA@ 10030fcc     libcpmt:syserror.obj
 0002:00000fe4       ??_C@_0BE@JIDOCPHM@directory?5not?5empty?$AA@ 10030fe4     libcpmt:syserror.obj
 0002:00000ff8       ??_C@_0BI@BNCLIGPB@executable?5format?5error?$AA@ 10030ff8     libcpmt:syserror.obj
 0002:00001010       ??_C@_0M@MIDIAGJP@file?5exists?$AA@ 10031010     libcpmt:syserror.obj
 0002:0000101c       ??_C@_0P@DNAJLBJK@file?5too?5large?$AA@ 1003101c     libcpmt:syserror.obj
 0002:0000102c       ??_C@_0BC@EJHOMAAK@filename?5too?5long?$AA@ 1003102c     libcpmt:syserror.obj
 0002:00001040       ??_C@_0BH@KEFGLDAF@function?5not?5supported?$AA@ 10031040     libcpmt:syserror.obj
 0002:00001058       ??_C@_0BB@DHFDFGDM@host?5unreachable?$AA@ 10031058     libcpmt:syserror.obj
 0002:0000106c       ??_C@_1BK@MGMFAEKH@?$AAk?$AAe?$AAr?$AAn?$AAe?$AAl?$AA3?$AA2?$AA?4?$AAd?$AAl?$AAl?$AA?$AA@ 1003106c     libcpmt:winapisupp.obj
 0002:00001088       ??_C@_08KNHFBNJ@FlsAlloc?$AA@ 10031088     libcpmt:winapisupp.obj
 0002:00001094       ??_C@_07PEJMOBNF@FlsFree?$AA@ 10031094     libcpmt:winapisupp.obj
 0002:0000109c       ??_C@_0M@GDNOONDI@FlsGetValue?$AA@ 1003109c     libcpmt:winapisupp.obj
 0002:000010a8       ??_C@_0M@JCPCPOEF@FlsSetValue?$AA@ 100310a8     libcpmt:winapisupp.obj
 0002:000010b4       ??_C@_0BM@HCFOFFN@InitializeCriticalSectionEx?$AA@ 100310b4     libcpmt:winapisupp.obj
 0002:000010d0       ??_C@_0BE@GPLMMCMH@InitOnceExecuteOnce?$AA@ 100310d0     libcpmt:winapisupp.obj
 0002:000010e4       ??_C@_0P@DLHPPCNH@CreateEventExW?$AA@ 100310e4     libcpmt:winapisupp.obj
 0002:000010f4       ??_C@_0BB@MEFPJLHN@CreateSemaphoreW?$AA@ 100310f4     libcpmt:winapisupp.obj
 0002:00001108       ??_C@_0BD@KIEEOEEH@CreateSemaphoreExW?$AA@ 10031108     libcpmt:winapisupp.obj
 0002:0000111c       ??_C@_0BG@OGFAJCKC@CreateThreadpoolTimer?$AA@ 1003111c     libcpmt:winapisupp.obj
 0002:00001134       ??_C@_0BD@LPLEMMDI@SetThreadpoolTimer?$AA@ 10031134     libcpmt:winapisupp.obj
 0002:00001148       ??_C@_0CA@FMNJENH@WaitForThreadpoolTimerCallbacks?$AA@ 10031148     libcpmt:winapisupp.obj
 0002:00001168       ??_C@_0BF@DCFCCNOC@CloseThreadpoolTimer?$AA@ 10031168     libcpmt:winapisupp.obj
 0002:00001180       ??_C@_0BF@FLABGKKM@CreateThreadpoolWait?$AA@ 10031180     libcpmt:winapisupp.obj
 0002:00001198       ??_C@_0BC@MGCOHNA@SetThreadpoolWait?$AA@ 10031198     libcpmt:winapisupp.obj
 0002:000011ac       ??_C@_0BE@OCIOMIMP@CloseThreadpoolWait?$AA@ 100311ac     libcpmt:winapisupp.obj
 0002:000011c0       ??_C@_0BJ@LKGHFHBO@FlushProcessWriteBuffers?$AA@ 100311c0     libcpmt:winapisupp.obj
 0002:000011dc       ??_C@_0BP@KALKKPMO@FreeLibraryWhenCallbackReturns?$AA@ 100311dc     libcpmt:winapisupp.obj
 0002:000011fc       ??_C@_0BK@DFNBACLA@GetCurrentProcessorNumber?$AA@ 100311fc     libcpmt:winapisupp.obj
 0002:00001218       ??_C@_0BE@FKKLLFLM@CreateSymbolicLinkW?$AA@ 10031218     libcpmt:winapisupp.obj
 0002:0000122c       ??_C@_0BE@JOGNEJCI@GetCurrentPackageId?$AA@ 1003122c     libcpmt:winapisupp.obj
 0002:00001240       ??_C@_0P@CDHHOHKP@GetTickCount64?$AA@ 10031240     libcpmt:winapisupp.obj
 0002:00001250       ??_C@_0BN@NEEHBBPO@GetFileInformationByHandleEx?$AA@ 10031250     libcpmt:winapisupp.obj
 0002:00001270       ??_C@_0BL@KBBHGKCM@SetFileInformationByHandle?$AA@ 10031270     libcpmt:winapisupp.obj
 0002:0000128c       ??_C@_0BP@FPNJPEJC@GetSystemTimePreciseAsFileTime?$AA@ 1003128c     libcpmt:winapisupp.obj
 0002:000012ac       ??_C@_0BM@HLJJNPAH@InitializeConditionVariable?$AA@ 100312ac     libcpmt:winapisupp.obj
 0002:000012c8       ??_C@_0BG@BFNILBLN@WakeConditionVariable?$AA@ 100312c8     libcpmt:winapisupp.obj
 0002:000012e0       ??_C@_0BJ@PGPPEPCC@WakeAllConditionVariable?$AA@ 100312e0     libcpmt:winapisupp.obj
 0002:000012fc       ??_C@_0BJ@JEBJOJFJ@SleepConditionVariableCS?$AA@ 100312fc     libcpmt:winapisupp.obj
 0002:00001318       ??_C@_0BC@MMLHEBPB@InitializeSRWLock?$AA@ 10031318     libcpmt:winapisupp.obj
 0002:0000132c       ??_C@_0BI@OMNLIJDB@AcquireSRWLockExclusive?$AA@ 1003132c     libcpmt:winapisupp.obj
 0002:00001344       ??_C@_0BL@OGHFEMNA@TryAcquireSRWLockExclusive?$AA@ 10031344     libcpmt:winapisupp.obj
 0002:00001360       ??_C@_0BI@HMIEPCNJ@ReleaseSRWLockExclusive?$AA@ 10031360     libcpmt:winapisupp.obj
 0002:00001378       ??_C@_0BK@LGACAGIC@SleepConditionVariableSRW?$AA@ 10031378     libcpmt:winapisupp.obj
 0002:00001394       ??_C@_0BF@GGPHFPJA@CreateThreadpoolWork?$AA@ 10031394     libcpmt:winapisupp.obj
 0002:000013ac       ??_C@_0BF@NHDAIMMO@SubmitThreadpoolWork?$AA@ 100313ac     libcpmt:winapisupp.obj
 0002:000013c4       ??_C@_0BE@NPHIPNPD@CloseThreadpoolWork?$AA@ 100313c4     libcpmt:winapisupp.obj
 0002:000013d8       ??_C@_0BA@IHGNDAEB@CompareStringEx?$AA@ 100313d8     libcpmt:winapisupp.obj
 0002:000013e8       ??_C@_0BA@ONOKGCMP@GetLocaleInfoEx?$AA@ 100313e8     libcpmt:winapisupp.obj
 0002:000013f8       ??_C@_0O@KKBNKAPF@LCMapStringEx?$AA@ 100313f8     libcpmt:winapisupp.obj
 0002:00001408       ??_C@_11LOCGONAA@?$AA?$AA@ 10031408     libcpmt:wlocale.obj
 0002:0000140c       ??_C@_01JOAMLHOP@?9?$AA@   1003140c     libcpmt:wlocale.obj
 0002:000022f0       ??_C@_15EMKDOKLE@?$AAa?$AAr?$AA?$AA@ 100322f0     libcpmt:winapinls.obj
 0002:000022f8       ??_C@_15KNPADPLH@?$AAb?$AAg?$AA?$AA@ 100322f8     libcpmt:winapinls.obj
 0002:00002300       ??_C@_15EDMHLDMO@?$AAc?$AAa?$AA?$AA@ 10032300     libcpmt:winapinls.obj
 0002:00002308       ??_C@_1O@BPEAJADD@?$AAz?$AAh?$AA?9?$AAC?$AAH?$AAS?$AA?$AA@ 10032308     libcpmt:winapinls.obj
 0002:00002318       ??_C@_15LJNHCMNK@?$AAc?$AAs?$AA?$AA@ 10032318     libcpmt:winapinls.obj
 0002:00002320       ??_C@_15FOMCIDHG@?$AAd?$AAa?$AA?$AA@ 10032320     libcpmt:winapinls.obj
 0002:00002328       ??_C@_15NBKABECB@?$AAd?$AAe?$AA?$AA@ 10032328     libcpmt:winapinls.obj
 0002:00002330       ??_C@_15GHPEIIAO@?$AAe?$AAl?$AA?$AA@ 10032330     libcpmt:winapinls.obj
 0002:00002338       ??_C@_15MNPNEAIF@?$AAe?$AAn?$AA?$AA@ 10032338     libcpmt:winapinls.obj
 0002:00002340       ??_C@_15GPIOMPMH@?$AAe?$AAs?$AA?$AA@ 10032340     libcpmt:winapinls.obj
 0002:00002348       ??_C@_15NGLOAKJC@?$AAf?$AAi?$AA?$AA@ 10032348     libcpmt:winapinls.obj
 0002:00002350       ??_C@_15FBKGNKAM@?$AAf?$AAr?$AA?$AA@ 10032350     libcpmt:winapinls.obj
 0002:00002358       ??_C@_15KGGCNEFK@?$AAh?$AAe?$AA?$AA@ 10032358     libcpmt:winapinls.obj
 0002:00002360       ??_C@_15PGHLIDMF@?$AAh?$AAu?$AA?$AA@ 10032360     libcpmt:winapinls.obj
 0002:00002368       ??_C@_15BIEMAPLM@?$AAi?$AAs?$AA?$AA@ 10032368     libcpmt:winapinls.obj
 0002:00002370       ??_C@_15IFJLDHAF@?$AAi?$AAt?$AA?$AA@ 10032370     libcpmt:winapinls.obj
 0002:00002378       ??_C@_15GEMIOCAG@?$AAj?$AAa?$AA?$AA@ 10032378     libcpmt:winapinls.obj
 0002:00002380       ??_C@_15EPELEGJA@?$AAk?$AAo?$AA?$AA@ 10032380     libcpmt:winapinls.obj
 0002:00002388       ??_C@_15NDDHIMN@?$AAn?$AAl?$AA?$AA@ 10032388     libcpmt:winapinls.obj
 0002:00002390       ??_C@_15BPIGNHCD@?$AAn?$AAo?$AA?$AA@ 10032390     libcpmt:winapinls.obj
 0002:00002398       ??_C@_15DEOPBLCG@?$AAp?$AAl?$AA?$AA@ 10032398     libcpmt:winapinls.obj
 0002:000023a0       ??_C@_15KBECGEFG@?$AAp?$AAt?$AA?$AA@ 100323a0     libcpmt:winapinls.obj
 0002:000023a8       ??_C@_15GLJCBFMD@?$AAr?$AAo?$AA?$AA@ 100323a8     libcpmt:winapinls.obj
 0002:000023b0       ??_C@_15FEDGKCDI@?$AAr?$AAu?$AA?$AA@ 100323b0     libcpmt:winapinls.obj
 0002:000023b8       ??_C@_15GLKMLLHM@?$AAh?$AAr?$AA?$AA@ 100323b8     libcpmt:winapinls.obj
 0002:000023c0       ??_C@_15CPKMFBDB@?$AAs?$AAk?$AA?$AA@ 100323c0     libcpmt:winapinls.obj
 0002:000023c8       ??_C@_15BAAIOGMK@?$AAs?$AAq?$AA?$AA@ 100323c8     libcpmt:winapinls.obj
 0002:000023d0       ??_C@_15INNPNOHD@?$AAs?$AAv?$AA?$AA@ 100323d0     libcpmt:winapinls.obj
 0002:000023d8       ??_C@_15CABMMOGH@?$AAt?$AAh?$AA?$AA@ 100323d8     libcpmt:winapinls.obj
 0002:000023e0       ??_C@_15BPLIHJJM@?$AAt?$AAr?$AA?$AA@ 100323e0     libcpmt:winapinls.obj
 0002:000023e8       ??_C@_15NEOEKKDJ@?$AAu?$AAr?$AA?$AA@ 100323e8     libcpmt:winapinls.obj
 0002:000023f0       ??_C@_15NFICGAJK@?$AAi?$AAd?$AA?$AA@ 100323f0     libcpmt:winapinls.obj
 0002:000023f8       ??_C@_15PJPFLCCM@?$AAu?$AAk?$AA?$AA@ 100323f8     libcpmt:winapinls.obj
 0002:00002400       ??_C@_15HPJPHDM@?$AAb?$AAe?$AA?$AA@ 10032400     libcpmt:winapinls.obj
 0002:00002408       ??_C@_15LCHLGJII@?$AAs?$AAl?$AA?$AA@ 10032408     libcpmt:winapinls.obj
 0002:00002410       ??_C@_15PCFJPHHO@?$AAe?$AAt?$AA?$AA@ 10032410     libcpmt:winapinls.obj
 0002:00002418       ??_C@_15HPFPGODN@?$AAl?$AAv?$AA?$AA@ 10032418     libcpmt:winapinls.obj
 0002:00002420       ??_C@_15NFFGKGLG@?$AAl?$AAt?$AA?$AA@ 10032420     libcpmt:winapinls.obj
 0002:00002428       ??_C@_15BDAKCCHN@?$AAf?$AAa?$AA?$AA@ 10032428     libcpmt:winapinls.obj
 0002:00002430       ??_C@_15NFGIAIAJ@?$AAv?$AAi?$AA?$AA@ 10032430     libcpmt:winapinls.obj
 0002:00002438       ??_C@_15LMKNDMHN@?$AAh?$AAy?$AA?$AA@ 10032438     libcpmt:winapinls.obj
 0002:00002440       ??_C@_15IJBHMCFL@?$AAa?$AAz?$AA?$AA@ 10032440     libcpmt:winapinls.obj
 0002:00002448       ??_C@_15EKOFJABL@?$AAe?$AAu?$AA?$AA@ 10032448     libcpmt:winapinls.obj
 0002:00002450       ??_C@_15BGHADCNK@?$AAm?$AAk?$AA?$AA@ 10032450     libcpmt:winapinls.obj
 0002:00002458       ??_C@_15JDNICKHM@?$AAa?$AAf?$AA?$AA@ 10032458     libcpmt:winapinls.obj
 0002:00002460       ??_C@_15KPJEDBKD@?$AAk?$AAa?$AA?$AA@ 10032460     libcpmt:winapinls.obj
 0002:00002468       ??_C@_15PDNFFFEO@?$AAf?$AAo?$AA?$AA@ 10032468     libcpmt:winapinls.obj
 0002:00002470       ??_C@_15OMLEGLOC@?$AAh?$AAi?$AA?$AA@ 10032470     libcpmt:winapinls.obj
 0002:00002478       ??_C@_15IDNNENKK@?$AAm?$AAs?$AA?$AA@ 10032478     libcpmt:winapinls.obj
 0002:00002480       ??_C@_15MACJNBMH@?$AAk?$AAk?$AA?$AA@ 10032480     libcpmt:winapinls.obj
 0002:00002488       ??_C@_15DKDJEOND@?$AAk?$AAy?$AA?$AA@ 10032488     libcpmt:winapinls.obj
 0002:00002490       ??_C@_15DFGDLJBG@?$AAs?$AAw?$AA?$AA@ 10032490     libcpmt:winapinls.obj
 0002:00002498       ??_C@_15BBFAICNG@?$AAu?$AAz?$AA?$AA@ 10032498     libcpmt:winapinls.obj
 0002:000024a0       ??_C@_15DKNDCGEA@?$AAt?$AAt?$AA?$AA@ 100324a0     libcpmt:winapinls.obj
 0002:000024a8       ??_C@_15MGIFMDPL@?$AAp?$AAa?$AA?$AA@ 100324a8     libcpmt:winapinls.obj
 0002:000024b0       ??_C@_15HCNDBBA@?$AAg?$AAu?$AA?$AA@ 100324b0     libcpmt:winapinls.obj
 0002:000024b8       ??_C@_15FNBEIBON@?$AAt?$AAa?$AA?$AA@ 100324b8     libcpmt:winapinls.obj
 0002:000024c0       ??_C@_15NCHGBGLK@?$AAt?$AAe?$AA?$AA@ 100324c0     libcpmt:winapinls.obj
 0002:000024c8       ??_C@_15PHPHCBPF@?$AAk?$AAn?$AA?$AA@ 100324c8     libcpmt:winapinls.obj
 0002:000024d0       ??_C@_15DLGBCKMP@?$AAm?$AAr?$AA?$AA@ 100324d0     libcpmt:winapinls.obj
 0002:000024d8       ??_C@_15EABBLBFF@?$AAs?$AAa?$AA?$AA@ 100324d8     libcpmt:winapinls.obj
 0002:000024e0       ??_C@_15CBKOMCOI@?$AAm?$AAn?$AA?$AA@ 100324e0     libcpmt:winapinls.obj
 0002:000024e8       ??_C@_15CKDMCJAF@?$AAg?$AAl?$AA?$AA@ 100324e8     libcpmt:winapinls.obj
 0002:000024f0       ??_C@_17CNJFBPG@?$AAk?$AAo?$AAk?$AA?$AA@ 100324f0     libcpmt:winapinls.obj
 0002:000024f8       ??_C@_17FFBJICPL@?$AAs?$AAy?$AAr?$AA?$AA@ 100324f8     libcpmt:winapinls.obj
 0002:00002500       ??_C@_17KPNDCPAF@?$AAd?$AAi?$AAv?$AA?$AA@ 10032500     libcpmt:winapinls.obj
 0002:00002508       ??_C@_1M@OKAHONE@?$AAa?$AAr?$AA?9?$AAS?$AAA?$AA?$AA@ 10032508     libcpmt:winapinls.obj
 0002:00002514       ??_C@_1M@FFFIGIGK@?$AAb?$AAg?$AA?9?$AAB?$AAG?$AA?$AA@ 10032514     libcpmt:winapinls.obj
 0002:00002520       ??_C@_1M@BJNKEDC@?$AAc?$AAa?$AA?9?$AAE?$AAS?$AA?$AA@ 10032520     libcpmt:winapinls.obj
 0002:0000252c       ??_C@_1M@CLNBBOPM@?$AAz?$AAh?$AA?9?$AAT?$AAW?$AA?$AA@ 1003252c     libcpmt:winapinls.obj
 0002:00002538       ??_C@_1M@IJJHFJHA@?$AAc?$AAs?$AA?9?$AAC?$AAZ?$AA?$AA@ 10032538     libcpmt:winapinls.obj
 0002:00002544       ??_C@_1M@CLPEOBGI@?$AAd?$AAa?$AA?9?$AAD?$AAK?$AA?$AA@ 10032544     libcpmt:winapinls.obj
 0002:00002550       ??_C@_1M@MCMADGCB@?$AAd?$AAe?$AA?9?$AAD?$AAE?$AA?$AA@ 10032550     libcpmt:winapinls.obj
 0002:0000255c       ??_C@_1M@OOCKEMAM@?$AAe?$AAl?$AA?9?$AAG?$AAR?$AA?$AA@ 1003255c     libcpmt:winapinls.obj
 0002:00002568       ??_C@_1M@BMHNFIME@?$AAe?$AAn?$AA?9?$AAU?$AAS?$AA?$AA@ 10032568     libcpmt:winapinls.obj
 0002:00002574       ??_C@_1M@DDNJFGID@?$AAf?$AAi?$AA?9?$AAF?$AAI?$AA?$AA@ 10032574     libcpmt:winapinls.obj
 0002:00002580       ??_C@_1M@GLIPPMAC@?$AAf?$AAr?$AA?9?$AAF?$AAR?$AA?$AA@ 10032580     libcpmt:winapinls.obj
 0002:0000258c       ??_C@_1M@GFMCHPE@?$AAh?$AAe?$AA?9?$AAI?$AAL?$AA?$AA@ 1003258c     libcpmt:winapinls.obj
 0002:00002598       ??_C@_1M@MHLPGNKM@?$AAh?$AAu?$AA?9?$AAH?$AAU?$AA?$AA@ 10032598     libcpmt:winapinls.obj
 0002:000025a4       ??_C@_1M@LPDDNNPN@?$AAi?$AAs?$AA?9?$AAI?$AAS?$AA?$AA@ 100325a4     libcpmt:winapinls.obj
 0002:000025b0       ??_C@_1M@MADIPODN@?$AAi?$AAt?$AA?9?$AAI?$AAT?$AA?$AA@ 100325b0     libcpmt:winapinls.obj
 0002:000025bc       ??_C@_1M@HPNHIDJI@?$AAj?$AAa?$AA?9?$AAJ?$AAP?$AA?$AA@ 100325bc     libcpmt:winapinls.obj
 0002:000025c8       ??_C@_1M@JLOOOEGK@?$AAk?$AAo?$AA?9?$AAK?$AAR?$AA?$AA@ 100325c8     libcpmt:winapinls.obj
 0002:000025d4       ??_C@_1M@IHBJJGG@?$AAn?$AAl?$AA?9?$AAN?$AAL?$AA?$AA@ 100325d4     libcpmt:winapinls.obj
 0002:000025e0       ??_C@_1M@EANAGDL@?$AAn?$AAb?$AA?9?$AAN?$AAO?$AA?$AA@ 100325e0     libcpmt:winapinls.obj
 0002:000025ec       ??_C@_1M@NEIEMEGP@?$AAp?$AAl?$AA?9?$AAP?$AAL?$AA?$AA@ 100325ec     libcpmt:winapinls.obj
 0002:000025f8       ??_C@_1M@BOCFIGEP@?$AAp?$AAt?$AA?9?$AAB?$AAR?$AA?$AA@ 100325f8     libcpmt:winapinls.obj
 0002:00002604       ??_C@_1M@IMPFOPBG@?$AAr?$AAo?$AA?9?$AAR?$AAO?$AA?$AA@ 10032604     libcpmt:winapinls.obj
 0002:00002610       ??_C@_1M@IDNNEJMM@?$AAr?$AAu?$AA?9?$AAR?$AAU?$AA?$AA@ 10032610     libcpmt:winapinls.obj
 0002:0000261c       ??_C@_1M@LILEEOGM@?$AAh?$AAr?$AA?9?$AAH?$AAR?$AA?$AA@ 1003261c     libcpmt:winapinls.obj
 0002:00002628       ??_C@_1M@FKIFEHPB@?$AAs?$AAk?$AA?9?$AAS?$AAK?$AA?$AA@ 10032628     libcpmt:winapinls.obj
 0002:00002634       ??_C@_1M@LJMAMNPJ@?$AAs?$AAq?$AA?9?$AAA?$AAL?$AA?$AA@ 10032634     libcpmt:winapinls.obj
 0002:00002640       ??_C@_1M@GIAKDKJK@?$AAs?$AAv?$AA?9?$AAS?$AAE?$AA?$AA@ 10032640     libcpmt:winapinls.obj
 0002:0000264c       ??_C@_1M@MKJKIKCL@?$AAt?$AAh?$AA?9?$AAT?$AAH?$AA?$AA@ 1003264c     libcpmt:winapinls.obj
 0002:00002658       ??_C@_1M@MFLCCMPB@?$AAt?$AAr?$AA?9?$AAT?$AAR?$AA?$AA@ 10032658     libcpmt:winapinls.obj
 0002:00002664       ??_C@_1M@OIJHDKJN@?$AAu?$AAr?$AA?9?$AAP?$AAK?$AA?$AA@ 10032664     libcpmt:winapinls.obj
 0002:00002670       ??_C@_1M@LHIPCIEK@?$AAi?$AAd?$AA?9?$AAI?$AAD?$AA?$AA@ 10032670     libcpmt:winapinls.obj
 0002:0000267c       ??_C@_1M@MFMOBGI@?$AAu?$AAk?$AA?9?$AAU?$AAA?$AA?$AA@ 1003267c     libcpmt:winapinls.obj
 0002:00002688       ??_C@_1M@OBGLJIPL@?$AAb?$AAe?$AA?9?$AAB?$AAY?$AA?$AA@ 10032688     libcpmt:winapinls.obj
 0002:00002694       ??_C@_1M@BCFAJEAD@?$AAs?$AAl?$AA?9?$AAS?$AAI?$AA?$AA@ 10032694     libcpmt:winapinls.obj
 0002:000026a0       ??_C@_1M@FKFFEDDN@?$AAe?$AAt?$AA?9?$AAE?$AAE?$AA?$AA@ 100326a0     libcpmt:winapinls.obj
 0002:000026ac       ??_C@_1M@KGKKAACI@?$AAl?$AAv?$AA?9?$AAL?$AAV?$AA?$AA@ 100326ac     libcpmt:winapinls.obj
 0002:000026b8       ??_C@_1M@IFGBIJO@?$AAl?$AAt?$AA?9?$AAL?$AAT?$AA?$AA@ 100326b8     libcpmt:winapinls.obj
 0002:000026c4       ??_C@_1M@FGEAHEDM@?$AAf?$AAa?$AA?9?$AAI?$AAR?$AA?$AA@ 100326c4     libcpmt:winapinls.obj
 0002:000026d0       ??_C@_1M@KBMAIBFN@?$AAv?$AAi?$AA?9?$AAV?$AAN?$AA?$AA@ 100326d0     libcpmt:winapinls.obj
 0002:000026dc       ??_C@_1M@GPCBKDJK@?$AAh?$AAy?$AA?9?$AAA?$AAM?$AA?$AA@ 100326dc     libcpmt:winapinls.obj
 0002:000026e8       ??_C@_1BG@BECMDDJB@?$AAa?$AAz?$AA?9?$AAA?$AAZ?$AA?9?$AAL?$AAa?$AAt?$AAn?$AA?$AA@ 100326e8     libcpmt:winapinls.obj
 0002:00002700       ??_C@_1M@MAOFCAEA@?$AAe?$AAu?$AA?9?$AAE?$AAS?$AA?$AA@ 10032700     libcpmt:winapinls.obj
 0002:0000270c       ??_C@_1M@IGHABKPI@?$AAm?$AAk?$AA?9?$AAM?$AAK?$AA?$AA@ 1003270c     libcpmt:winapinls.obj
 0002:00002718       ??_C@_1M@IAIGNEJG@?$AAt?$AAn?$AA?9?$AAZ?$AAA?$AA?$AA@ 10032718     libcpmt:winapinls.obj
 0002:00002724       ??_C@_1M@IIJCOJFA@?$AAx?$AAh?$AA?9?$AAZ?$AAA?$AA?$AA@ 10032724     libcpmt:winapinls.obj
 0002:00002730       ??_C@_1M@LGPJHNJH@?$AAz?$AAu?$AA?9?$AAZ?$AAA?$AA?$AA@ 10032730     libcpmt:winapinls.obj
 0002:0000273c       ??_C@_1M@HOKAOIO@?$AAa?$AAf?$AA?9?$AAZ?$AAA?$AA?$AA@ 1003273c     libcpmt:winapinls.obj
 0002:00002748       ??_C@_1M@DPCLHLIE@?$AAk?$AAa?$AA?9?$AAG?$AAE?$AA?$AA@ 10032748     libcpmt:winapinls.obj
 0002:00002754       ??_C@_1M@BLKMHJBI@?$AAf?$AAo?$AA?9?$AAF?$AAO?$AA?$AA@ 10032754     libcpmt:winapinls.obj
 0002:00002760       ??_C@_1M@LGGJAPPB@?$AAh?$AAi?$AA?9?$AAI?$AAN?$AA?$AA@ 10032760     libcpmt:winapinls.obj
 0002:0000276c       ??_C@_1M@FIKPIHFE@?$AAm?$AAt?$AA?9?$AAM?$AAT?$AA?$AA@ 1003276c     libcpmt:winapinls.obj
 0002:00002778       ??_C@_1M@HEGGPBFA@?$AAs?$AAe?$AA?9?$AAN?$AAO?$AA?$AA@ 10032778     libcpmt:winapinls.obj
 0002:00002784       ??_C@_1M@EIBJEEPA@?$AAm?$AAs?$AA?9?$AAM?$AAY?$AA?$AA@ 10032784     libcpmt:winapinls.obj
 0002:00002790       ??_C@_1M@FHLBGMPP@?$AAk?$AAk?$AA?9?$AAK?$AAZ?$AA?$AA@ 10032790     libcpmt:winapinls.obj
 0002:0000279c       ??_C@_1M@NGJJLCGI@?$AAk?$AAy?$AA?9?$AAK?$AAG?$AA?$AA@ 1003279c     libcpmt:winapinls.obj
 0002:000027a8       ??_C@_1M@GIENNBFC@?$AAs?$AAw?$AA?9?$AAK?$AAE?$AA?$AA@ 100327a8     libcpmt:winapinls.obj
 0002:000027b4       ??_C@_1BG@NDGMJIMJ@?$AAu?$AAz?$AA?9?$AAU?$AAZ?$AA?9?$AAL?$AAa?$AAt?$AAn?$AA?$AA@ 100327b4     libcpmt:winapinls.obj
 0002:000027cc       ??_C@_1M@IDCCIHBC@?$AAt?$AAt?$AA?9?$AAR?$AAU?$AA?$AA@ 100327cc     libcpmt:winapinls.obj
 0002:000027d8       ??_C@_1M@LOICPMOJ@?$AAb?$AAn?$AA?9?$AAI?$AAN?$AA?$AA@ 100327d8     libcpmt:winapinls.obj
 0002:000027e4       ??_C@_1M@KPKKNEAH@?$AAp?$AAa?$AA?9?$AAI?$AAN?$AA?$AA@ 100327e4     libcpmt:winapinls.obj
 0002:000027f0       ??_C@_1M@PJGPPBOG@?$AAg?$AAu?$AA?9?$AAI?$AAN?$AA?$AA@ 100327f0     libcpmt:winapinls.obj
 0002:000027fc       ??_C@_1M@KMKMOPHI@?$AAt?$AAa?$AA?9?$AAI?$AAN?$AA?$AA@ 100327fc     libcpmt:winapinls.obj
 0002:00002808       ??_C@_1M@KFEHEPAC@?$AAt?$AAe?$AA?9?$AAI?$AAN?$AA?$AA@ 10032808     libcpmt:winapinls.obj
 0002:00002814       ??_C@_1M@CDCLMGHI@?$AAk?$AAn?$AA?9?$AAI?$AAN?$AA?$AA@ 10032814     libcpmt:winapinls.obj
 0002:00002820       ??_C@_1M@MIODLDKF@?$AAm?$AAl?$AA?9?$AAI?$AAN?$AA?$AA@ 10032820     libcpmt:winapinls.obj
 0002:0000282c       ??_C@_1M@PBIEACPO@?$AAm?$AAr?$AA?9?$AAI?$AAN?$AA?$AA@ 1003282c     libcpmt:winapinls.obj
 0002:00002838       ??_C@_1M@NIDEAGPH@?$AAs?$AAa?$AA?9?$AAI?$AAN?$AA?$AA@ 10032838     libcpmt:winapinls.obj
 0002:00002844       ??_C@_1M@FHIHCBIO@?$AAm?$AAn?$AA?9?$AAM?$AAN?$AA?$AA@ 10032844     libcpmt:winapinls.obj
 0002:00002850       ??_C@_1M@JAIJPENP@?$AAc?$AAy?$AA?9?$AAG?$AAB?$AA?$AA@ 10032850     libcpmt:winapinls.obj
 0002:0000285c       ??_C@_1M@PHGFBEPN@?$AAg?$AAl?$AA?9?$AAE?$AAS?$AA?$AA@ 1003285c     libcpmt:winapinls.obj
 0002:00002868       ??_C@_1O@KPIPDNCP@?$AAk?$AAo?$AAk?$AA?9?$AAI?$AAN?$AA?$AA@ 10032868     libcpmt:winapinls.obj
 0002:00002878       ??_C@_1O@KNHJLDJA@?$AAs?$AAy?$AAr?$AA?9?$AAS?$AAY?$AA?$AA@ 10032878     libcpmt:winapinls.obj
 0002:00002888       ??_C@_1O@MKEKBLAH@?$AAd?$AAi?$AAv?$AA?9?$AAM?$AAV?$AA?$AA@ 10032888     libcpmt:winapinls.obj
 0002:00002898       ??_C@_1O@OHDCKDDF@?$AAq?$AAu?$AAz?$AA?9?$AAB?$AAO?$AA?$AA@ 10032898     libcpmt:winapinls.obj
 0002:000028a8       ??_C@_1M@LEPJNLFD@?$AAn?$AAs?$AA?9?$AAZ?$AAA?$AA?$AA@ 100328a8     libcpmt:winapinls.obj
 0002:000028b4       ??_C@_1M@OMLEIIJB@?$AAm?$AAi?$AA?9?$AAN?$AAZ?$AA?$AA@ 100328b4     libcpmt:winapinls.obj
 0002:000028c0       ??_C@_1M@PMPEAILG@?$AAa?$AAr?$AA?9?$AAI?$AAQ?$AA?$AA@ 100328c0     libcpmt:winapinls.obj
 0002:000028cc       ??_C@_1M@BIBDDEMK@?$AAz?$AAh?$AA?9?$AAC?$AAN?$AA?$AA@ 100328cc     libcpmt:winapinls.obj
 0002:000028d8       ??_C@_1M@CNKPNOEE@?$AAd?$AAe?$AA?9?$AAC?$AAH?$AA?$AA@ 100328d8     libcpmt:winapinls.obj
 0002:000028e4       ??_C@_1M@LKMGMLKO@?$AAe?$AAn?$AA?9?$AAG?$AAB?$AA?$AA@ 100328e4     libcpmt:winapinls.obj
 0002:000028f0       ??_C@_1M@PGKJFFGL@?$AAe?$AAs?$AA?9?$AAM?$AAX?$AA?$AA@ 100328f0     libcpmt:winapinls.obj
 0002:000028fc       ??_C@_1M@DNNANBDC@?$AAf?$AAr?$AA?9?$AAB?$AAE?$AA?$AA@ 100328fc     libcpmt:winapinls.obj
 0002:00002908       ??_C@_1M@HLGMDFHM@?$AAi?$AAt?$AA?9?$AAC?$AAH?$AA?$AA@ 10032908     libcpmt:winapinls.obj
 0002:00002914       ??_C@_1M@CLLBGJH@?$AAn?$AAl?$AA?9?$AAB?$AAE?$AA?$AA@ 10032914     libcpmt:winapinls.obj
 0002:00002920       ??_C@_1M@BODBOGLF@?$AAn?$AAn?$AA?9?$AAN?$AAO?$AA?$AA@ 10032920     libcpmt:winapinls.obj
 0002:0000292c       ??_C@_1M@HFFAHKAD@?$AAp?$AAt?$AA?9?$AAP?$AAT?$AA?$AA@ 1003292c     libcpmt:winapinls.obj
 0002:00002938       ??_C@_1BG@LNOAKHIE@?$AAs?$AAr?$AA?9?$AAS?$AAP?$AA?9?$AAL?$AAa?$AAt?$AAn?$AA?$AA@ 10032938     libcpmt:winapinls.obj
 0002:00002950       ??_C@_1M@HBMHBGAK@?$AAs?$AAv?$AA?9?$AAF?$AAI?$AA?$AA@ 10032950     libcpmt:winapinls.obj
 0002:0000295c       ??_C@_1BG@DGCJGJBE@?$AAa?$AAz?$AA?9?$AAA?$AAZ?$AA?9?$AAC?$AAy?$AAr?$AAl?$AA?$AA@ 1003295c     libcpmt:winapinls.obj
 0002:00002974       ??_C@_1M@KEJDAAHB@?$AAs?$AAe?$AA?9?$AAS?$AAE?$AA?$AA@ 10032974     libcpmt:winapinls.obj
 0002:00002980       ??_C@_1M@HEIBJJAD@?$AAm?$AAs?$AA?9?$AAB?$AAN?$AA?$AA@ 10032980     libcpmt:winapinls.obj
 0002:0000298c       ??_C@_1BG@PBGJMCEM@?$AAu?$AAz?$AA?9?$AAU?$AAZ?$AA?9?$AAC?$AAy?$AAr?$AAl?$AA?$AA@ 1003298c     libcpmt:winapinls.obj
 0002:000029a4       ??_C@_1O@LAOBCMDF@?$AAq?$AAu?$AAz?$AA?9?$AAE?$AAC?$AA?$AA@ 100329a4     libcpmt:winapinls.obj
 0002:000029b4       ??_C@_1M@POEEMAIO@?$AAa?$AAr?$AA?9?$AAE?$AAG?$AA?$AA@ 100329b4     libcpmt:winapinls.obj
 0002:000029c0       ??_C@_1M@EFAKDEDL@?$AAz?$AAh?$AA?9?$AAH?$AAK?$AA?$AA@ 100329c0     libcpmt:winapinls.obj
 0002:000029cc       ??_C@_1M@HKKIJHGI@?$AAd?$AAe?$AA?9?$AAA?$AAT?$AA?$AA@ 100329cc     libcpmt:winapinls.obj
 0002:000029d8       ??_C@_1M@KBFBEHJF@?$AAe?$AAn?$AA?9?$AAA?$AAU?$AA?$AA@ 100329d8     libcpmt:winapinls.obj
 0002:000029e4       ??_C@_1M@MNPLFAAH@?$AAe?$AAs?$AA?9?$AAE?$AAS?$AA?$AA@ 100329e4     libcpmt:winapinls.obj
 0002:000029f0       ??_C@_1M@HJOOJFMA@?$AAf?$AAr?$AA?9?$AAC?$AAA?$AA?$AA@ 100329f0     libcpmt:winapinls.obj
 0002:000029fc       ??_C@_1BG@JPOFPNAB@?$AAs?$AAr?$AA?9?$AAS?$AAP?$AA?9?$AAC?$AAy?$AAr?$AAl?$AA?$AA@ 100329fc     libcpmt:winapinls.obj
 0002:00002a14       ??_C@_1M@LNFOCMOB@?$AAs?$AAe?$AA?9?$AAF?$AAI?$AA?$AA@ 10032a14     libcpmt:winapinls.obj
 0002:00002a20       ??_C@_1O@MGJBOAMB@?$AAq?$AAu?$AAz?$AA?9?$AAP?$AAE?$AA?$AA@ 10032a20     libcpmt:winapinls.obj
 0002:00002a30       ??_C@_1M@GJINLBOK@?$AAa?$AAr?$AA?9?$AAL?$AAY?$AA?$AA@ 10032a30     libcpmt:winapinls.obj
 0002:00002a3c       ??_C@_1M@GGMNHJNL@?$AAz?$AAh?$AA?9?$AAS?$AAG?$AA?$AA@ 10032a3c     libcpmt:winapinls.obj
 0002:00002a48       ??_C@_1M@HOIKODND@?$AAd?$AAe?$AA?9?$AAL?$AAU?$AA?$AA@ 10032a48     libcpmt:winapinls.obj
 0002:00002a54       ??_C@_1M@DDOCCGFG@?$AAe?$AAn?$AA?9?$AAC?$AAA?$AA?$AA@ 10032a54     libcpmt:winapinls.obj
 0002:00002a60       ??_C@_1M@BNOEMJLF@?$AAe?$AAs?$AA?9?$AAG?$AAT?$AA?$AA@ 10032a60     libcpmt:winapinls.obj
 0002:00002a6c       ??_C@_1M@EOGNKEK@?$AAf?$AAr?$AA?9?$AAC?$AAH?$AA?$AA@ 10032a6c     libcpmt:winapinls.obj
 0002:00002a78       ??_C@_1M@FLIDJFHL@?$AAh?$AAr?$AA?9?$AAB?$AAA?$AA?$AA@ 10032a78     libcpmt:winapinls.obj
 0002:00002a84       ??_C@_1O@FMCELNAJ@?$AAs?$AAm?$AAj?$AA?9?$AAN?$AAO?$AA?$AA@ 10032a84     libcpmt:winapinls.obj
 0002:00002a94       ??_C@_1M@JHGLJMGJ@?$AAa?$AAr?$AA?9?$AAD?$AAZ?$AA?$AA@ 10032a94     libcpmt:winapinls.obj
 0002:00002aa0       ??_C@_1M@JKKFDCNP@?$AAz?$AAh?$AA?9?$AAM?$AAO?$AA?$AA@ 10032aa0     libcpmt:winapinls.obj
 0002:00002aac       ??_C@_1M@GEEFALPE@?$AAd?$AAe?$AA?9?$AAL?$AAI?$AA?$AA@ 10032aac     libcpmt:winapinls.obj
 0002:00002ab8       ??_C@_1M@IGEOFBG@?$AAe?$AAn?$AA?9?$AAN?$AAZ?$AA?$AA@ 10032ab8     libcpmt:winapinls.obj
 0002:00002ac4       ??_C@_1M@KDBONEHP@?$AAe?$AAs?$AA?9?$AAC?$AAR?$AA?$AA@ 10032ac4     libcpmt:winapinls.obj
 0002:00002ad0       ??_C@_1M@FHMDOHNN@?$AAf?$AAr?$AA?9?$AAL?$AAU?$AA?$AA@ 10032ad0     libcpmt:winapinls.obj
 0002:00002adc       ??_C@_1BG@NFKKMAFG@?$AAb?$AAs?$AA?9?$AAB?$AAA?$AA?9?$AAL?$AAa?$AAt?$AAn?$AA?$AA@ 10032adc     libcpmt:winapinls.obj
 0002:00002af4       ??_C@_1O@IMNBEMCI@?$AAs?$AAm?$AAj?$AA?9?$AAS?$AAE?$AA?$AA@ 10032af4     libcpmt:winapinls.obj
 0002:00002b04       ??_C@_1M@DHHMBNDP@?$AAa?$AAr?$AA?9?$AAM?$AAA?$AA?$AA@ 10032b04     libcpmt:winapinls.obj
 0002:00002b10       ??_C@_1M@BNBLJCGH@?$AAe?$AAn?$AA?9?$AAI?$AAE?$AA?$AA@ 10032b10     libcpmt:winapinls.obj
 0002:00002b1c       ??_C@_1M@GEPAFMDL@?$AAe?$AAs?$AA?9?$AAP?$AAA?$AA?$AA@ 10032b1c     libcpmt:winapinls.obj
 0002:00002b28       ??_C@_1M@OJONDMDL@?$AAf?$AAr?$AA?9?$AAM?$AAC?$AA?$AA@ 10032b28     libcpmt:winapinls.obj
 0002:00002b34       ??_C@_1BG@OBCNFJB@?$AAs?$AAr?$AA?9?$AAB?$AAA?$AA?9?$AAL?$AAa?$AAt?$AAn?$AA?$AA@ 10032b34     libcpmt:winapinls.obj
 0002:00002b4c       ??_C@_1O@KEMEEGPO@?$AAs?$AAm?$AAa?$AA?9?$AAN?$AAO?$AA?$AA@ 10032b4c     libcpmt:winapinls.obj
 0002:00002b5c       ??_C@_1M@ELMGFODK@?$AAa?$AAr?$AA?9?$AAT?$AAN?$AA?$AA@ 10032b5c     libcpmt:winapinls.obj
 0002:00002b68       ??_C@_1M@BHDLHFAF@?$AAe?$AAn?$AA?9?$AAZ?$AAA?$AA?$AA@ 10032b68     libcpmt:winapinls.obj
 0002:00002b74       ??_C@_1M@BMGIGLIF@?$AAe?$AAs?$AA?9?$AAD?$AAO?$AA?$AA@ 10032b74     libcpmt:winapinls.obj
 0002:00002b80       ??_C@_1BG@CMBHIPBE@?$AAs?$AAr?$AA?9?$AAB?$AAA?$AA?9?$AAC?$AAy?$AAr?$AAl?$AA?$AA@ 10032b80     libcpmt:winapinls.obj
 0002:00002b98       ??_C@_1O@HEDBLHNP@?$AAs?$AAm?$AAa?$AA?9?$AAS?$AAE?$AA?$AA@ 10032b98     libcpmt:winapinls.obj
 0002:00002ba8       ??_C@_1M@DAGCADIM@?$AAa?$AAr?$AA?9?$AAO?$AAM?$AA?$AA@ 10032ba8     libcpmt:winapinls.obj
 0002:00002bb4       ??_C@_1M@FODLMICG@?$AAe?$AAn?$AA?9?$AAJ?$AAM?$AA?$AA@ 10032bb4     libcpmt:winapinls.obj
 0002:00002bc0       ??_C@_1M@DNMLCIHB@?$AAe?$AAs?$AA?9?$AAV?$AAE?$AA?$AA@ 10032bc0     libcpmt:winapinls.obj
 0002:00002bcc       ??_C@_1O@EOKHMKJK@?$AAs?$AAm?$AAs?$AA?9?$AAF?$AAI?$AA?$AA@ 10032bcc     libcpmt:winapinls.obj
 0002:00002bdc       ??_C@_1M@CAFJMKOF@?$AAa?$AAr?$AA?9?$AAY?$AAE?$AA?$AA@ 10032bdc     libcpmt:winapinls.obj
 0002:00002be8       ??_C@_1M@CBFHIJLI@?$AAe?$AAn?$AA?9?$AAC?$AAB?$AA?$AA@ 10032be8     libcpmt:winapinls.obj
 0002:00002bf4       ??_C@_1M@BGNFLDN@?$AAe?$AAs?$AA?9?$AAC?$AAO?$AA?$AA@ 10032bf4     libcpmt:winapinls.obj
 0002:00002c00       ??_C@_1O@JMPHMAMC@?$AAs?$AAm?$AAn?$AA?9?$AAF?$AAI?$AA?$AA@ 10032c00     libcpmt:winapinls.obj
 0002:00002c10       ??_C@_1M@JLANABKE@?$AAa?$AAr?$AA?9?$AAS?$AAY?$AA?$AA@ 10032c10     libcpmt:winapinls.obj
 0002:00002c1c       ??_C@_1M@HPKGCFGN@?$AAe?$AAn?$AA?9?$AAB?$AAZ?$AA?$AA@ 10032c1c     libcpmt:winapinls.obj
 0002:00002c28       ??_C@_1M@OLJCMLGM@?$AAe?$AAs?$AA?9?$AAP?$AAE?$AA?$AA@ 10032c28     libcpmt:winapinls.obj
 0002:00002c34       ??_C@_1M@MKKGFKLE@?$AAa?$AAr?$AA?9?$AAJ?$AAO?$AA?$AA@ 10032c34     libcpmt:winapinls.obj
 0002:00002c40       ??_C@_1M@EKPGLDNI@?$AAe?$AAn?$AA?9?$AAT?$AAT?$AA?$AA@ 10032c40     libcpmt:winapinls.obj
 0002:00002c4c       ??_C@_1M@OONGHFHE@?$AAe?$AAs?$AA?9?$AAA?$AAR?$AA?$AA@ 10032c4c     libcpmt:winapinls.obj
 0002:00002c58       ??_C@_1M@OOJFGBHE@?$AAa?$AAr?$AA?9?$AAL?$AAB?$AA?$AA@ 10032c58     libcpmt:winapinls.obj
 0002:00002c64       ??_C@_1M@GCEJHNEG@?$AAe?$AAn?$AA?9?$AAZ?$AAW?$AA?$AA@ 10032c64     libcpmt:winapinls.obj
 0002:00002c70       ??_C@_1M@JNOCAHJI@?$AAe?$AAs?$AA?9?$AAE?$AAC?$AA?$AA@ 10032c70     libcpmt:winapinls.obj
 0002:00002c7c       ??_C@_1M@JEFHPGGB@?$AAa?$AAr?$AA?9?$AAK?$AAW?$AA?$AA@ 10032c7c     libcpmt:winapinls.obj
 0002:00002c88       ??_C@_1M@MLKIBJOJ@?$AAe?$AAn?$AA?9?$AAP?$AAH?$AA?$AA@ 10032c88     libcpmt:winapinls.obj
 0002:00002c94       ??_C@_1M@BDNIPEND@?$AAe?$AAs?$AA?9?$AAC?$AAL?$AA?$AA@ 10032c94     libcpmt:winapinls.obj
 0002:00002ca0       ??_C@_1M@MPNMEKBD@?$AAa?$AAr?$AA?9?$AAA?$AAE?$AA?$AA@ 10032ca0     libcpmt:winapinls.obj
 0002:00002cac       ??_C@_1M@KBJALCPI@?$AAe?$AAs?$AA?9?$AAU?$AAY?$AA?$AA@ 10032cac     libcpmt:winapinls.obj
 0002:00002cb8       ??_C@_1M@LLCCOAGA@?$AAa?$AAr?$AA?9?$AAB?$AAH?$AA?$AA@ 10032cb8     libcpmt:winapinls.obj
 0002:00002cc4       ??_C@_1M@PBFNCDEL@?$AAe?$AAs?$AA?9?$AAP?$AAY?$AA?$AA@ 10032cc4     libcpmt:winapinls.obj
 0002:00002cd0       ??_C@_1M@EDGINPNP@?$AAa?$AAr?$AA?9?$AAQ?$AAA?$AA?$AA@ 10032cd0     libcpmt:winapinls.obj
 0002:00002cdc       ??_C@_1M@MKDBIIJI@?$AAe?$AAs?$AA?9?$AAB?$AAO?$AA?$AA@ 10032cdc     libcpmt:winapinls.obj
 0002:00002ce8       ??_C@_1M@CPKKEBLD@?$AAe?$AAs?$AA?9?$AAS?$AAV?$AA?$AA@ 10032ce8     libcpmt:winapinls.obj
 0002:00002cf4       ??_C@_1M@NDBGMMJL@?$AAe?$AAs?$AA?9?$AAH?$AAN?$AA?$AA@ 10032cf4     libcpmt:winapinls.obj
 0002:00002d00       ??_C@_1M@JIJIBHDP@?$AAe?$AAs?$AA?9?$AAN?$AAI?$AA?$AA@ 10032d00     libcpmt:winapinls.obj
 0002:00002d0c       ??_C@_1M@CGFMKEEK@?$AAe?$AAs?$AA?9?$AAP?$AAR?$AA?$AA@ 10032d0c     libcpmt:winapinls.obj
 0002:00002d18       ??_C@_1O@ICJHKIIK@?$AAz?$AAh?$AA?9?$AAC?$AAH?$AAT?$AA?$AA@ 10032d18     libcpmt:winapinls.obj
 0002:00002d28       ??_C@_15CLNEJCE@?$AAs?$AAr?$AA?$AA@ 10032d28     libcpmt:winapinls.obj
 0002:00002d30       ??_C@_1M@KAHEKEIG@?$AAa?$AAf?$AA?9?$AAz?$AAa?$AA?$AA@ 10032d30     libcpmt:winapinls.obj
 0002:00002d3c       ??_C@_1M@GIECOABL@?$AAa?$AAr?$AA?9?$AAa?$AAe?$AA?$AA@ 10032d3c     libcpmt:winapinls.obj
 0002:00002d48       ??_C@_1M@BMLMEKGI@?$AAa?$AAr?$AA?9?$AAb?$AAh?$AA?$AA@ 10032d48     libcpmt:winapinls.obj
 0002:00002d54       ??_C@_1M@DAPFDGGB@?$AAa?$AAr?$AA?9?$AAd?$AAz?$AA?$AA@ 10032d54     libcpmt:winapinls.obj
 0002:00002d60       ??_C@_1M@FJNKGKIG@?$AAa?$AAr?$AA?9?$AAe?$AAg?$AA?$AA@ 10032d60     libcpmt:winapinls.obj
 0002:00002d6c       ??_C@_1M@FLGKKCLO@?$AAa?$AAr?$AA?9?$AAi?$AAq?$AA?$AA@ 10032d6c     libcpmt:winapinls.obj
 0002:00002d78       ??_C@_1M@GNDIPALM@?$AAa?$AAr?$AA?9?$AAj?$AAo?$AA?$AA@ 10032d78     libcpmt:winapinls.obj
 0002:00002d84       ??_C@_1M@DDMJFMGJ@?$AAa?$AAr?$AA?9?$AAk?$AAw?$AA?$AA@ 10032d84     libcpmt:winapinls.obj
 0002:00002d90       ??_C@_1M@EJALMLHM@?$AAa?$AAr?$AA?9?$AAl?$AAb?$AA?$AA@ 10032d90     libcpmt:winapinls.obj
 0002:00002d9c       ??_C@_1M@MOBDBLOC@?$AAa?$AAr?$AA?9?$AAl?$AAy?$AA?$AA@ 10032d9c     libcpmt:winapinls.obj
 0002:00002da8       ??_C@_1M@JAOCLHDH@?$AAa?$AAr?$AA?9?$AAm?$AAa?$AA?$AA@ 10032da8     libcpmt:winapinls.obj
 0002:00002db4       ??_C@_1M@JHPMKJIE@?$AAa?$AAr?$AA?9?$AAo?$AAm?$AA?$AA@ 10032db4     libcpmt:winapinls.obj
 0002:00002dc0       ??_C@_1M@OEPGHFNH@?$AAa?$AAr?$AA?9?$AAq?$AAa?$AA?$AA@ 10032dc0     libcpmt:winapinls.obj
 0002:00002dcc       ??_C@_1M@KJDONENM@?$AAa?$AAr?$AA?9?$AAs?$AAa?$AA?$AA@ 10032dcc     libcpmt:winapinls.obj
 0002:00002dd8       ??_C@_1M@DMJDKLKM@?$AAa?$AAr?$AA?9?$AAs?$AAy?$AA?$AA@ 10032dd8     libcpmt:winapinls.obj
 0002:00002de4       ??_C@_1M@OMFIPEDC@?$AAa?$AAr?$AA?9?$AAt?$AAn?$AA?$AA@ 10032de4     libcpmt:winapinls.obj
 0002:00002df0       ??_C@_1M@IHMHGAON@?$AAa?$AAr?$AA?9?$AAy?$AAe?$AA?$AA@ 10032df0     libcpmt:winapinls.obj
 0002:00002dfc       ??_C@_1BG@KDCPGJGB@?$AAa?$AAz?$AA?9?$AAa?$AAz?$AA?9?$AAc?$AAy?$AAr?$AAl?$AA?$AA@ 10032dfc     libcpmt:winapinls.obj
 0002:00002e14       ??_C@_1BG@IBCKDDOE@?$AAa?$AAz?$AA?9?$AAa?$AAz?$AA?9?$AAl?$AAa?$AAt?$AAn?$AA?$AA@ 10032e14     libcpmt:winapinls.obj
 0002:00002e2c       ??_C@_1M@EGPFDCPD@?$AAb?$AAe?$AA?9?$AAb?$AAy?$AA?$AA@ 10032e2c     libcpmt:winapinls.obj
 0002:00002e38       ??_C@_1M@PCMGMCGC@?$AAb?$AAg?$AA?9?$AAb?$AAg?$AA?$AA@ 10032e38     libcpmt:winapinls.obj
 0002:00002e44       ??_C@_1M@BJBMFGOB@?$AAb?$AAn?$AA?9?$AAi?$AAn?$AA?$AA@ 10032e44     libcpmt:winapinls.obj
 0002:00002e50       ??_C@_1BG@EAKMMACD@?$AAb?$AAs?$AA?9?$AAb?$AAa?$AA?9?$AAl?$AAa?$AAt?$AAn?$AA?$AA@ 10032e50     libcpmt:winapinls.obj
 0002:00002e68       ??_C@_1M@KGADAODK@?$AAc?$AAa?$AA?9?$AAe?$AAs?$AA?$AA@ 10032e68     libcpmt:winapinls.obj
 0002:00002e74       ??_C@_1M@COAJPDHI@?$AAc?$AAs?$AA?9?$AAc?$AAz?$AA?$AA@ 10032e74     libcpmt:winapinls.obj
 0002:00002e80       ??_C@_1M@DHBHFONH@?$AAc?$AAy?$AA?9?$AAg?$AAb?$AA?$AA@ 10032e80     libcpmt:winapinls.obj
 0002:00002e8c       ??_C@_1M@IMGKELGA@?$AAd?$AAa?$AA?9?$AAd?$AAk?$AA?$AA@ 10032e8c     libcpmt:winapinls.obj
 0002:00002e98       ??_C@_1M@NNDGDNGA@?$AAd?$AAe?$AA?9?$AAa?$AAt?$AA?$AA@ 10032e98     libcpmt:winapinls.obj
 0002:00002ea4       ??_C@_1M@IKDBHEEM@?$AAd?$AAe?$AA?9?$AAc?$AAh?$AA?$AA@ 10032ea4     libcpmt:winapinls.obj
 0002:00002eb0       ??_C@_1M@GFFOJMCJ@?$AAd?$AAe?$AA?9?$AAd?$AAe?$AA?$AA@ 10032eb0     libcpmt:winapinls.obj
 0002:00002ebc       ??_C@_1M@MDNLKBPM@?$AAd?$AAe?$AA?9?$AAl?$AAi?$AA?$AA@ 10032ebc     libcpmt:winapinls.obj
 0002:00002ec8       ??_C@_1M@NJBEEJNL@?$AAd?$AAe?$AA?9?$AAl?$AAu?$AA?$AA@ 10032ec8     libcpmt:winapinls.obj
 0002:00002ed4       ??_C@_1O@GNNELBAP@?$AAd?$AAi?$AAv?$AA?9?$AAm?$AAv?$AA?$AA@ 10032ed4     libcpmt:winapinls.obj
 0002:00002ee4       ??_C@_1M@EJLEOGAE@?$AAe?$AAl?$AA?9?$AAg?$AAr?$AA?$AA@ 10032ee4     libcpmt:winapinls.obj
 0002:00002ef0       ??_C@_1M@GMPONJN@?$AAe?$AAn?$AA?9?$AAa?$AAu?$AA?$AA@ 10032ef0     libcpmt:winapinls.obj
 0002:00002efc       ??_C@_1M@NIDIIPGF@?$AAe?$AAn?$AA?9?$AAb?$AAz?$AA?$AA@ 10032efc     libcpmt:winapinls.obj
 0002:00002f08       ??_C@_1M@JEHMIMFO@?$AAe?$AAn?$AA?9?$AAc?$AAa?$AA?$AA@ 10032f08     libcpmt:winapinls.obj
 0002:00002f14       ??_C@_1M@IGMJCDLA@?$AAe?$AAn?$AA?9?$AAc?$AAb?$AA?$AA@ 10032f14     libcpmt:winapinls.obj
 0002:00002f20       ??_C@_1M@BNFIGBKG@?$AAe?$AAn?$AA?9?$AAg?$AAb?$AA?$AA@ 10032f20     libcpmt:winapinls.obj
 0002:00002f2c       ??_C@_1M@LKIFDIGP@?$AAe?$AAn?$AA?9?$AAi?$AAe?$AA?$AA@ 10032f2c     libcpmt:winapinls.obj
 0002:00002f38       ??_C@_1M@PJKFGCCO@?$AAe?$AAn?$AA?9?$AAj?$AAm?$AA?$AA@ 10032f38     libcpmt:winapinls.obj
 0002:00002f44       ??_C@_1M@KPPKEPBO@?$AAe?$AAn?$AA?9?$AAn?$AAz?$AA?$AA@ 10032f44     libcpmt:winapinls.obj
 0002:00002f50       ??_C@_1M@GMDGLDOB@?$AAe?$AAn?$AA?9?$AAp?$AAh?$AA?$AA@ 10032f50     libcpmt:winapinls.obj
 0002:00002f5c       ??_C@_1M@ONGIBJNA@?$AAe?$AAn?$AA?9?$AAt?$AAt?$AA?$AA@ 10032f5c     libcpmt:winapinls.obj
 0002:00002f68       ??_C@_1M@LLODPCMM@?$AAe?$AAn?$AA?9?$AAu?$AAs?$AA?$AA@ 10032f68     libcpmt:winapinls.obj
 0002:00002f74       ??_C@_1M@LAKFNPAN@?$AAe?$AAn?$AA?9?$AAz?$AAa?$AA?$AA@ 10032f74     libcpmt:winapinls.obj
 0002:00002f80       ??_C@_1M@MFNHNHEO@?$AAe?$AAn?$AA?9?$AAz?$AAw?$AA?$AA@ 10032f80     libcpmt:winapinls.obj
 0002:00002f8c       ??_C@_1M@EJEINPHM@?$AAe?$AAs?$AA?9?$AAa?$AAr?$AA?$AA@ 10032f8c     libcpmt:winapinls.obj
 0002:00002f98       ??_C@_1M@GNKPCCJA@?$AAe?$AAs?$AA?9?$AAb?$AAo?$AA?$AA@ 10032f98     libcpmt:winapinls.obj
 0002:00002fa4       ??_C@_1M@LEEGFONL@?$AAe?$AAs?$AA?9?$AAc?$AAl?$AA?$AA@ 10032fa4     libcpmt:winapinls.obj
 0002:00002fb0       ??_C@_1M@KGPDPBDF@?$AAe?$AAs?$AA?9?$AAc?$AAo?$AA?$AA@ 10032fb0     libcpmt:winapinls.obj
 0002:00002fbc       ??_C@_1M@EIAHOHH@?$AAe?$AAs?$AA?9?$AAc?$AAr?$AA?$AA@ 10032fbc     libcpmt:winapinls.obj
 0002:00002fc8       ??_C@_1M@LLPGMBIN@?$AAe?$AAs?$AA?9?$AAd?$AAo?$AA?$AA@ 10032fc8     libcpmt:winapinls.obj
 0002:00002fd4       ??_C@_1M@DKHMKNJA@?$AAe?$AAs?$AA?9?$AAe?$AAc?$AA?$AA@ 10032fd4     libcpmt:winapinls.obj
 0002:00002fe0       ??_C@_1M@GKGFPKAP@?$AAe?$AAs?$AA?9?$AAe?$AAs?$AA?$AA@ 10032fe0     libcpmt:winapinls.obj
 0002:00002fec       ??_C@_1M@LKHKGDLN@?$AAe?$AAs?$AA?9?$AAg?$AAt?$AA?$AA@ 10032fec     libcpmt:winapinls.obj
 0002:00002ff8       ??_C@_1M@HEIIGGJD@?$AAe?$AAs?$AA?9?$AAh?$AAn?$AA?$AA@ 10032ff8     libcpmt:winapinls.obj
 0002:00003004       ??_C@_1M@FBDHPPGD@?$AAe?$AAs?$AA?9?$AAm?$AAx?$AA?$AA@ 10033004     libcpmt:winapinls.obj
 0002:00003010       ??_C@_1M@DPAGLNDH@?$AAe?$AAs?$AA?9?$AAn?$AAi?$AA?$AA@ 10033010     libcpmt:winapinls.obj
 0002:0000301c       ??_C@_1M@MDGOPGDD@?$AAe?$AAs?$AA?9?$AAp?$AAa?$AA?$AA@ 1003301c     libcpmt:winapinls.obj
 0002:00003028       ??_C@_1M@EMAMGBGE@?$AAe?$AAs?$AA?9?$AAp?$AAe?$AA?$AA@ 10033028     libcpmt:winapinls.obj
 0002:00003034       ??_C@_1M@IBMCAOEC@?$AAe?$AAs?$AA?9?$AAp?$AAr?$AA?$AA@ 10033034     libcpmt:winapinls.obj
 0002:00003040       ??_C@_1M@FGMDIJED@?$AAe?$AAs?$AA?9?$AAp?$AAy?$AA?$AA@ 10033040     libcpmt:winapinls.obj
 0002:0000304c       ??_C@_1M@IIDEOLLL@?$AAe?$AAs?$AA?9?$AAs?$AAv?$AA?$AA@ 1003304c     libcpmt:winapinls.obj
 0002:00003058       ??_C@_1M@GAOBIPA@?$AAe?$AAs?$AA?9?$AAu?$AAy?$AA?$AA@ 10033058     libcpmt:winapinls.obj
 0002:00003064       ??_C@_1M@JKFFICHJ@?$AAe?$AAs?$AA?9?$AAv?$AAe?$AA?$AA@ 10033064     libcpmt:winapinls.obj
 0002:00003070       ??_C@_1M@PNMLOJDF@?$AAe?$AAt?$AA?9?$AAe?$AAe?$AA?$AA@ 10033070     libcpmt:winapinls.obj
 0002:0000307c       ??_C@_1M@GHHLIKEI@?$AAe?$AAu?$AA?9?$AAe?$AAs?$AA?$AA@ 1003307c     libcpmt:winapinls.obj
 0002:00003088       ??_C@_1M@PBNONODE@?$AAf?$AAa?$AA?9?$AAi?$AAr?$AA?$AA@ 10033088     libcpmt:winapinls.obj
 0002:00003094       ??_C@_1M@JEEHPMIL@?$AAf?$AAi?$AA?9?$AAf?$AAi?$AA?$AA@ 10033094     libcpmt:winapinls.obj
 0002:000030a0       ??_C@_1M@LMDCNDBA@?$AAf?$AAo?$AA?9?$AAf?$AAo?$AA?$AA@ 100330a0     libcpmt:winapinls.obj
 0002:000030ac       ??_C@_1M@JKEOHLDK@?$AAf?$AAr?$AA?9?$AAb?$AAe?$AA?$AA@ 100330ac     libcpmt:winapinls.obj
 0002:000030b8       ??_C@_1M@NOHADPMI@?$AAf?$AAr?$AA?9?$AAc?$AAa?$AA?$AA@ 100330b8     libcpmt:winapinls.obj
 0002:000030c4       ??_C@_1M@KDHIHAEC@?$AAf?$AAr?$AA?9?$AAc?$AAh?$AA?$AA@ 100330c4     libcpmt:winapinls.obj
 0002:000030d0       ??_C@_1M@MMBBFGAK@?$AAf?$AAr?$AA?9?$AAf?$AAr?$AA?$AA@ 100330d0     libcpmt:winapinls.obj
 0002:000030dc       ??_C@_1M@PAFNENNF@?$AAf?$AAr?$AA?9?$AAl?$AAu?$AA?$AA@ 100330dc     libcpmt:winapinls.obj
 0002:000030e8       ??_C@_1M@EOHDJGDD@?$AAf?$AAr?$AA?9?$AAm?$AAc?$AA?$AA@ 100330e8     libcpmt:winapinls.obj
 0002:000030f4       ??_C@_1M@FAPLLOPF@?$AAg?$AAl?$AA?9?$AAe?$AAs?$AA?$AA@ 100330f4     libcpmt:winapinls.obj
 0002:00003100       ??_C@_1M@FOPBFLOO@?$AAg?$AAu?$AA?9?$AAi?$AAn?$AA?$AA@ 10033100     libcpmt:winapinls.obj
 0002:0000310c       ??_C@_1M@KBMCINPM@?$AAh?$AAe?$AA?9?$AAi?$AAl?$AA?$AA@ 1003310c     libcpmt:winapinls.obj
 0002:00003118       ??_C@_1M@BBPHKFPJ@?$AAh?$AAi?$AA?9?$AAi?$AAn?$AA?$AA@ 10033118     libcpmt:winapinls.obj
 0002:00003124       ??_C@_1M@PMBNDPHD@?$AAh?$AAr?$AA?9?$AAb?$AAa?$AA?$AA@ 10033124     libcpmt:winapinls.obj
 0002:00003130       ??_C@_1M@BPCKOEGE@?$AAh?$AAr?$AA?9?$AAh?$AAr?$AA?$AA@ 10033130     libcpmt:winapinls.obj
 0002:0000313c       ??_C@_1M@GACBMHKE@?$AAh?$AAu?$AA?9?$AAh?$AAu?$AA?$AA@ 1003313c     libcpmt:winapinls.obj
 0002:00003148       ??_C@_1M@MILPAJJC@?$AAh?$AAy?$AA?9?$AAa?$AAm?$AA?$AA@ 10033148     libcpmt:winapinls.obj
 0002:00003154       ??_C@_1M@BABBICEC@?$AAi?$AAd?$AA?9?$AAi?$AAd?$AA?$AA@ 10033154     libcpmt:winapinls.obj
 0002:00003160       ??_C@_1M@BIKNHHPF@?$AAi?$AAs?$AA?9?$AAi?$AAs?$AA?$AA@ 10033160     libcpmt:winapinls.obj
 0002:0000316c       ??_C@_1M@NMPCJPHE@?$AAi?$AAt?$AA?9?$AAc?$AAh?$AA?$AA@ 1003316c     libcpmt:winapinls.obj
 0002:00003178       ??_C@_1M@GHKGFEDF@?$AAi?$AAt?$AA?9?$AAi?$AAt?$AA?$AA@ 10033178     libcpmt:winapinls.obj
 0002:00003184       ??_C@_1M@NIEJCJJA@?$AAj?$AAa?$AA?9?$AAj?$AAp?$AA?$AA@ 10033184     libcpmt:winapinls.obj
 0002:00003190       ??_C@_1M@JILFNBIM@?$AAk?$AAa?$AA?9?$AAg?$AAe?$AA?$AA@ 10033190     libcpmt:winapinls.obj
 0002:0000319c       ??_C@_1M@PACPMGPH@?$AAk?$AAk?$AA?9?$AAk?$AAz?$AA?$AA@ 1003319c     libcpmt:winapinls.obj
 0002:000031a8       ??_C@_1M@IELFGMHA@?$AAk?$AAn?$AA?9?$AAi?$AAn?$AA?$AA@ 100331a8     libcpmt:winapinls.obj
 0002:000031b4       ??_C@_1M@DMHAEOGC@?$AAk?$AAo?$AA?9?$AAk?$AAr?$AA?$AA@ 100331b4     libcpmt:winapinls.obj
 0002:000031c0       ??_C@_1O@IBBJHCH@?$AAk?$AAo?$AAk?$AA?9?$AAi?$AAn?$AA?$AA@ 100331c0     libcpmt:winapinls.obj
 0002:000031d0       ??_C@_1M@HBAHBIGA@?$AAk?$AAy?$AA?9?$AAk?$AAg?$AA?$AA@ 100331d0     libcpmt:winapinls.obj
 0002:000031dc       ??_C@_1M@KPMILCJG@?$AAl?$AAt?$AA?9?$AAl?$AAt?$AA?$AA@ 100331dc     libcpmt:winapinls.obj
 0002:000031e8       ??_C@_1M@BDEKKCA@?$AAl?$AAv?$AA?9?$AAl?$AAv?$AA?$AA@ 100331e8     libcpmt:winapinls.obj
 0002:000031f4       ??_C@_1M@ELCKCCJJ@?$AAm?$AAi?$AA?9?$AAn?$AAz?$AA?$AA@ 100331f4     libcpmt:winapinls.obj
 0002:00003200       ??_C@_1M@CBOOLAPA@?$AAm?$AAk?$AA?9?$AAm?$AAk?$AA?$AA@ 10033200     libcpmt:winapinls.obj
 0002:0000320c       ??_C@_1M@GPHNBJKN@?$AAm?$AAl?$AA?9?$AAi?$AAn?$AA?$AA@ 1003320c     libcpmt:winapinls.obj
 0002:00003218       ??_C@_1M@PABJILIG@?$AAm?$AAn?$AA?9?$AAm?$AAn?$AA?$AA@ 10033218     libcpmt:winapinls.obj
 0002:00003224       ??_C@_1M@FGBKKIPG@?$AAm?$AAr?$AA?9?$AAi?$AAn?$AA?$AA@ 10033224     libcpmt:winapinls.obj
 0002:00003230       ??_C@_1M@NDBPDDAL@?$AAm?$AAs?$AA?9?$AAb?$AAn?$AA?$AA@ 10033230     libcpmt:winapinls.obj
 0002:0000323c       ??_C@_1M@OPIHOOPI@?$AAm?$AAs?$AA?9?$AAm?$AAy?$AA?$AA@ 1003323c     libcpmt:winapinls.obj
 0002:00003248       ??_C@_1M@PPDBCNFM@?$AAm?$AAt?$AA?9?$AAm?$AAt?$AA?$AA@ 10033248     libcpmt:winapinls.obj
 0002:00003254       ??_C@_1M@KDJDKMDD@?$AAn?$AAb?$AA?9?$AAn?$AAo?$AA?$AA@ 10033254     libcpmt:winapinls.obj
 0002:00003260       ??_C@_1M@KFCFLMJP@?$AAn?$AAl?$AA?9?$AAb?$AAe?$AA?$AA@ 10033260     libcpmt:winapinls.obj
 0002:0000326c       ??_C@_1M@KPOPDDGO@?$AAn?$AAl?$AA?9?$AAn?$AAl?$AA?$AA@ 1003326c     libcpmt:winapinls.obj
 0002:00003278       ??_C@_1M@LJKPEMLN@?$AAn?$AAn?$AA?9?$AAn?$AAo?$AA?$AA@ 10033278     libcpmt:winapinls.obj
 0002:00003284       ??_C@_1M@BDGHHBFL@?$AAn?$AAs?$AA?9?$AAz?$AAa?$AA?$AA@ 10033284     libcpmt:winapinls.obj
 0002:00003290       ??_C@_1M@IDEHOAP@?$AAp?$AAa?$AA?9?$AAi?$AAn?$AA?$AA@ 10033290     libcpmt:winapinls.obj
 0002:0000329c       ??_C@_1M@HDBKGOGH@?$AAp?$AAl?$AA?9?$AAp?$AAl?$AA?$AA@ 1003329c     libcpmt:winapinls.obj
 0002:000032a8       ??_C@_1M@LJLLCMEH@?$AAp?$AAt?$AA?9?$AAb?$AAr?$AA?$AA@ 100332a8     libcpmt:winapinls.obj
 0002:000032b4       ??_C@_1M@NCMONAAL@?$AAp?$AAt?$AA?9?$AAp?$AAt?$AA?$AA@ 100332b4     libcpmt:winapinls.obj
 0002:000032c0       ??_C@_1O@EAKMAJDN@?$AAq?$AAu?$AAz?$AA?9?$AAb?$AAo?$AA?$AA@ 100332c0     libcpmt:winapinls.obj
 0002:000032d0       ??_C@_1O@BHHPIGDN@?$AAq?$AAu?$AAz?$AA?9?$AAe?$AAc?$AA?$AA@ 100332d0     libcpmt:winapinls.obj
 0002:000032e0       ??_C@_1O@GBAPEKMJ@?$AAq?$AAu?$AAz?$AA?9?$AAp?$AAe?$AA?$AA@ 100332e0     libcpmt:winapinls.obj
 0002:000032f0       ??_C@_1M@CLGLEFBO@?$AAr?$AAo?$AA?9?$AAr?$AAo?$AA?$AA@ 100332f0     libcpmt:winapinls.obj
 0002:000032fc       ??_C@_1M@CEEDODME@?$AAr?$AAu?$AA?9?$AAr?$AAu?$AA?$AA@ 100332fc     libcpmt:winapinls.obj
 0002:00003308       ??_C@_1M@HPKKKMPP@?$AAs?$AAa?$AA?9?$AAi?$AAn?$AA?$AA@ 10033308     libcpmt:winapinls.obj
 0002:00003314       ??_C@_1M@BKMAIGOJ@?$AAs?$AAe?$AA?9?$AAf?$AAi?$AA?$AA@ 10033314     libcpmt:winapinls.obj
 0002:00003320       ??_C@_1M@NDPIFLFI@?$AAs?$AAe?$AA?9?$AAn?$AAo?$AA?$AA@ 10033320     libcpmt:winapinls.obj
 0002:0000332c       ??_C@_1M@DANKKHJ@?$AAs?$AAe?$AA?9?$AAs?$AAe?$AA?$AA@ 1003332c     libcpmt:winapinls.obj
 0002:00003338       ??_C@_1M@PNBLONPJ@?$AAs?$AAk?$AA?9?$AAs?$AAk?$AA?$AA@ 10033338     libcpmt:winapinls.obj
 0002:00003344       ??_C@_1M@LFMODOAL@?$AAs?$AAl?$AA?9?$AAs?$AAi?$AA?$AA@ 10033344     libcpmt:winapinls.obj
 0002:00003350       ??_C@_1O@DFKOMPG@?$AAs?$AAm?$AAa?$AA?9?$AAn?$AAo?$AA?$AA@ 10033350     libcpmt:winapinls.obj
 0002:00003360       ??_C@_1O@NDKPBNNH@?$AAs?$AAm?$AAa?$AA?9?$AAs?$AAe?$AA?$AA@ 10033360     libcpmt:winapinls.obj
 0002:00003370       ??_C@_1O@PLLKBHAB@?$AAs?$AAm?$AAj?$AA?9?$AAn?$AAo?$AA?$AA@ 10033370     libcpmt:winapinls.obj
 0002:00003380       ??_C@_1O@CLEPOGCA@?$AAs?$AAm?$AAj?$AA?9?$AAs?$AAe?$AA?$AA@ 10033380     libcpmt:winapinls.obj
 0002:00003390       ??_C@_1O@DLGJGKMK@?$AAs?$AAm?$AAn?$AA?9?$AAf?$AAi?$AA?$AA@ 10033390     libcpmt:winapinls.obj
 0002:000033a0       ??_C@_1O@OJDJGAJC@?$AAs?$AAm?$AAs?$AA?9?$AAf?$AAi?$AA?$AA@ 100333a0     libcpmt:winapinls.obj
 0002:000033b0       ??_C@_1M@BOFOGHPB@?$AAs?$AAq?$AA?9?$AAa?$AAl?$AA?$AA@ 100333b0     libcpmt:winapinls.obj
 0002:000033bc       ??_C@_1BG@LJBBIPGB@?$AAs?$AAr?$AA?9?$AAb?$AAa?$AA?9?$AAc?$AAy?$AAr?$AAl?$AA?$AA@ 100333bc     libcpmt:winapinls.obj
 0002:000033d4       ??_C@_1BG@JLBENFOE@?$AAs?$AAr?$AA?9?$AAb?$AAa?$AA?9?$AAl?$AAa?$AAt?$AAn?$AA?$AA@ 100333d4     libcpmt:winapinls.obj
 0002:000033ec       ??_C@_1BG@KODPNHE@?$AAs?$AAr?$AA?9?$AAs?$AAp?$AA?9?$AAc?$AAy?$AAr?$AAl?$AA?$AA@ 100333ec     libcpmt:winapinls.obj
 0002:00003404       ??_C@_1BG@CIOGKHPB@?$AAs?$AAr?$AA?9?$AAs?$AAp?$AA?9?$AAl?$AAa?$AAt?$AAn?$AA?$AA@ 10033404     libcpmt:winapinls.obj
 0002:0000341c       ??_C@_1M@NGFJLMAC@?$AAs?$AAv?$AA?9?$AAf?$AAi?$AA?$AA@ 1003341c     libcpmt:winapinls.obj
 0002:00003428       ??_C@_1M@MPJEJAJC@?$AAs?$AAv?$AA?9?$AAs?$AAe?$AA?$AA@ 10033428     libcpmt:winapinls.obj
 0002:00003434       ??_C@_1M@MPNDHLFK@?$AAs?$AAw?$AA?9?$AAk?$AAe?$AA?$AA@ 10033434     libcpmt:winapinls.obj
 0002:00003440       ??_C@_1O@KOHBJJI@?$AAs?$AAy?$AAr?$AA?9?$AAs?$AAy?$AA?$AA@ 10033440     libcpmt:winapinls.obj
 0002:00003450       ??_C@_1M@LDCEFHA@?$AAt?$AAa?$AA?9?$AAi?$AAn?$AA?$AA@ 10033450     libcpmt:winapinls.obj
 0002:0000345c       ??_C@_1M@CNJOFAK@?$AAt?$AAe?$AA?9?$AAi?$AAn?$AA?$AA@ 1003345c     libcpmt:winapinls.obj
 0002:00003468       ??_C@_1M@GNAECACD@?$AAt?$AAh?$AA?9?$AAt?$AAh?$AA?$AA@ 10033468     libcpmt:winapinls.obj
 0002:00003474       ??_C@_1M@CHBIHOJO@?$AAt?$AAn?$AA?9?$AAz?$AAa?$AA?$AA@ 10033474     libcpmt:winapinls.obj
 0002:00003480       ??_C@_1M@GCCMIGPJ@?$AAt?$AAr?$AA?9?$AAt?$AAr?$AA?$AA@ 10033480     libcpmt:winapinls.obj
 0002:0000348c       ??_C@_1M@CELMCNBK@?$AAt?$AAt?$AA?9?$AAr?$AAu?$AA?$AA@ 1003348c     libcpmt:winapinls.obj
 0002:00003498       ??_C@_1M@KLMCELGA@?$AAu?$AAk?$AA?9?$AAu?$AAa?$AA?$AA@ 10033498     libcpmt:winapinls.obj
 0002:000034a4       ??_C@_1M@EPAJJAJF@?$AAu?$AAr?$AA?9?$AAp?$AAk?$AA?$AA@ 100334a4     libcpmt:winapinls.obj
 0002:000034b0       ??_C@_1BG@GEGPMCDJ@?$AAu?$AAz?$AA?9?$AAu?$AAz?$AA?9?$AAc?$AAy?$AAr?$AAl?$AA?$AA@ 100334b0     libcpmt:winapinls.obj
 0002:000034c8       ??_C@_1BG@EGGKJILM@?$AAu?$AAz?$AA?9?$AAu?$AAz?$AA?9?$AAl?$AAa?$AAt?$AAn?$AA?$AA@ 100334c8     libcpmt:winapinls.obj
 0002:000034e0       ??_C@_1M@GFOCLFF@?$AAv?$AAi?$AA?9?$AAv?$AAn?$AA?$AA@ 100334e0     libcpmt:winapinls.obj
 0002:000034ec       ??_C@_1M@CPAMEDFI@?$AAx?$AAh?$AA?9?$AAz?$AAa?$AA?$AA@ 100334ec     libcpmt:winapinls.obj
 0002:000034f8       ??_C@_1O@EBKIFIGN@?$AAz?$AAh?$AA?9?$AAc?$AAh?$AAs?$AA?$AA@ 100334f8     libcpmt:winapinls.obj
 0002:00003508       ??_C@_1O@NMHPGANE@?$AAz?$AAh?$AA?9?$AAc?$AAh?$AAt?$AA?$AA@ 10033508     libcpmt:winapinls.obj
 0002:00003518       ??_C@_1M@LPINJOMC@?$AAz?$AAh?$AA?9?$AAc?$AAn?$AA?$AA@ 10033518     libcpmt:winapinls.obj
 0002:00003524       ??_C@_1M@OCJEJODD@?$AAz?$AAh?$AA?9?$AAh?$AAk?$AA?$AA@ 10033524     libcpmt:winapinls.obj
 0002:00003530       ??_C@_1M@DNDLJINH@?$AAz?$AAh?$AA?9?$AAm?$AAo?$AA?$AA@ 10033530     libcpmt:winapinls.obj
 0002:0000353c       ??_C@_1M@MBFDNDND@?$AAz?$AAh?$AA?9?$AAs?$AAg?$AA?$AA@ 1003353c     libcpmt:winapinls.obj
 0002:00003548       ??_C@_1M@IMEPLEPE@?$AAz?$AAh?$AA?9?$AAt?$AAw?$AA?$AA@ 10033548     libcpmt:winapinls.obj
 0002:00003554       ??_C@_1M@BBGHNHJP@?$AAz?$AAu?$AA?9?$AAz?$AAa?$AA?$AA@ 10033554     libcpmt:winapinls.obj
 0002:00003560       __pDefaultRawDllMain       10033560     LIBCMT:dll_dllmain.obj
 0002:00003560       __pRawDllMain              10033560     LIBCMT:dll_dllmain.obj
 0002:00003568       ??_7type_info@@6B@         10033568     LIBCMT:std_type_info_static.obj
 0002:00003578       ??_7bad_array_new_length@std@@6B@ 10033578     LIBCMT:throw_bad_alloc.obj
 0002:00003580       ??_C@_0BF@KINCDENJ@bad?5array?5new?5length?$AA@ 10033580     LIBCMT:throw_bad_alloc.obj
 0002:00003598       __pDestructExceptionObject 10033598     libvcruntime:frame.obj
 0002:000035a0       ??_7bad_exception@std@@6B@ 100335a0     libvcruntime:frame.obj
 0002:000035a8       ??_C@_0O@DPKOEFFH@bad?5exception?$AA@ 100335a8     libvcruntime:frame.obj
 0002:000035e8       ??_C@_1BC@DNHGCMLG@?$AAa?$AAd?$AAv?$AAa?$AAp?$AAi?$AA3?$AA2?$AA?$AA@ 100335e8     libvcruntime:winapi_downlevel.obj
 0002:000035fc       ??_C@_1DM@KHCHBNEB@?$AAa?$AAp?$AAi?$AA?9?$AAm?$AAs?$AA?9?$AAw?$AAi?$AAn?$AA?9?$AAc?$AAo?$AAr?$AAe?$AA?9?$AAf?$AAi?$AAb?$AAe?$AAr?$AAs?$AA?9?$AAl?$AA1?$AA?9?$AA1?$AA?9?$AA1?$AA?$AA@ 100335fc     libvcruntime:winapi_downlevel.obj
 0002:00003638       ??_C@_1DK@LPPGFMPP@?$AAa?$AAp?$AAi?$AA?9?$AAm?$AAs?$AA?9?$AAw?$AAi?$AAn?$AA?9?$AAc?$AAo?$AAr?$AAe?$AA?9?$AAs?$AAy?$AAn?$AAc?$AAh?$AA?9?$AAl?$AA1?$AA?9?$AA2?$AA?9?$AA0?$AA?$AA@ 10033638     libvcruntime:winapi_downlevel.obj
 0002:00003674       ??_C@_1BC@GDMECMAK@?$AAk?$AAe?$AAr?$AAn?$AAe?$AAl?$AA3?$AA2?$AA?$AA@ 10033674     libvcruntime:winapi_downlevel.obj
 0002:00003840       ??_C@_08EHJDFFNH@__based?$CI?$AA@ 10033840     libvcruntime:undname.obj
 0002:0000384c       ??_C@_07KOLFKCDI@__cdecl?$AA@ 1003384c     libvcruntime:undname.obj
 0002:00003854       ??_C@_08GHMPAG@__pascal?$AA@ 10033854     libvcruntime:undname.obj
 0002:00003860       ??_C@_09IFJBGAPI@__stdcall?$AA@ 10033860     libvcruntime:undname.obj
 0002:0000386c       ??_C@_0L@NPHFGOKO@__thiscall?$AA@ 1003386c     libvcruntime:undname.obj
 0002:00003878       ??_C@_0L@JMKHOMEK@__fastcall?$AA@ 10033878     libvcruntime:undname.obj
 0002:00003884       ??_C@_0N@BCKKPABJ@__vectorcall?$AA@ 10033884     libvcruntime:undname.obj
 0002:00003894       ??_C@_09HIJEGCPM@__clrcall?$AA@ 10033894     libvcruntime:undname.obj
 0002:000038a0       ??_C@_06GHPCKEAG@__eabi?$AA@ 100338a0     libvcruntime:undname.obj
 0002:000038a8       ??_C@_07JOMMBBKO@__ptr64?$AA@ 100338a8     libvcruntime:undname.obj
 0002:000038b0       ??_C@_0L@PILCLIHE@__restrict?$AA@ 100338b0     libvcruntime:undname.obj
 0002:000038bc       ??_C@_0M@GFIIJFMG@__unaligned?$AA@ 100338bc     libvcruntime:undname.obj
 0002:000038c8       ??_C@_09DHDLOLLB@restrict?$CI?$AA@ 100338c8     libvcruntime:undname.obj
 0002:000038d4       ??_C@_04NIHEBCM@?5new?$AA@ 100338d4     libvcruntime:undname.obj
 0002:000038dc       ??_C@_07FPCDHGMM@?5delete?$AA@ 100338dc     libvcruntime:undname.obj
 0002:000038e4       ??_C@_01NEMOKFLO@?$DN?$AA@ 100338e4     libvcruntime:undname.obj
 0002:000038e8       ??_C@_02GPIOPFAK@?$DO?$DO?$AA@ 100338e8     libvcruntime:undname.obj
 0002:000038ec       ??_C@_02FODMEDOG@?$DM?$DM?$AA@ 100338ec     libvcruntime:undname.obj
 0002:000038f0       ??_C@_01DCLJPIOD@?$CB?$AA@ 100338f0     libvcruntime:undname.obj
 0002:000038f4       ??_C@_02EGOFBIJA@?$DN?$DN?$AA@ 100338f4     libvcruntime:undname.obj
 0002:000038f8       ??_C@_02FDNJECIE@?$CB?$DN?$AA@ 100338f8     libvcruntime:undname.obj
 0002:000038fc       ??_C@_02GPECMEKF@?$FL?$FN?$AA@ 100338fc     libvcruntime:undname.obj
 0002:00003900       ??_C@_08LHJFAFGD@operator?$AA@ 10033900     libvcruntime:undname.obj
 0002:0000390c       ??_C@_02HBOOOICD@?9?$DO?$AA@ 1003390c     libvcruntime:undname.obj
 0002:00003910       ??_C@_02ECNGHCIF@?$CL?$CL?$AA@ 10033910     libvcruntime:undname.obj
 0002:00003914       ??_C@_02BAABKJLB@?9?9?$AA@ 10033914     libvcruntime:undname.obj
 0002:00003918       ??_C@_01MIFGBAGJ@?$CL?$AA@ 10033918     libvcruntime:undname.obj
 0002:0000391c       ??_C@_01HNPIGOCE@?$CG?$AA@ 1003391c     libvcruntime:undname.obj
 0002:00003920       ??_C@_03MNHNFDLC@?9?$DO?$CK?$AA@ 10033920     libvcruntime:undname.obj
 0002:00003924       ??_C@_01KMDKNFGN@?1?$AA@   10033924     libvcruntime:undname.obj
 0002:00003928       ??_C@_01FGNFDNOH@?$CF?$AA@ 10033928     libvcruntime:undname.obj
 0002:0000392c       ??_C@_01MNNFJEPP@?$DM?$AA@ 1003392c     libvcruntime:undname.obj
 0002:00003930       ??_C@_02EHCHHCKH@?$DM?$DN?$AA@ 10033930     libvcruntime:undname.obj
 0002:00003934       ??_C@_01PPODPGHN@?$DO?$AA@ 10033934     libvcruntime:undname.obj
 0002:00003938       ??_C@_02EEKDKGMJ@?$DO?$DN?$AA@ 10033938     libvcruntime:undname.obj
 0002:0000393c       ??_C@_02HCKGKOFO@?$CI?$CJ?$AA@ 1003393c     libvcruntime:undname.obj
 0002:00003940       ??_C@_01PJKLJHI@?$HO?$AA@  10033940     libvcruntime:undname.obj
 0002:00003944       ??_C@_01JKBOJNNK@?$FO?$AA@ 10033944     libvcruntime:undname.obj
 0002:00003948       ??_C@_01DNKMNLPK@?$HM?$AA@ 10033948     libvcruntime:undname.obj
 0002:0000394c       ??_C@_02PPKAJPJL@?$CG?$CG?$AA@ 1003394c     libvcruntime:undname.obj
 0002:00003950       ??_C@_02NONPIBCD@?$HM?$HM?$AA@ 10033950     libvcruntime:undname.obj
 0002:00003954       ??_C@_02FPIMKNGF@?$CK?$DN?$AA@ 10033954     libvcruntime:undname.obj
 0002:00003958       ??_C@_02FOEOMHFC@?$CL?$DN?$AA@ 10033958     libvcruntime:undname.obj
 0002:0000395c       ??_C@_02FKMDLLOA@?9?$DN?$AA@ 1003395c     libvcruntime:undname.obj
 0002:00003960       ??_C@_02FJEHGPIO@?1?$DN?$AA@ 10033960     libvcruntime:undname.obj
 0002:00003964       ??_C@_02FENAOKFI@?$CF?$DN?$AA@ 10033964     libvcruntime:undname.obj
 0002:00003968       ??_C@_03IKFCCPFF@?$DO?$DO?$DN?$AA@ 10033968     libvcruntime:undname.obj
 0002:0000396c       ??_C@_03CDNPDDLA@?$DM?$DM?$DN?$AA@ 1003396c     libvcruntime:undname.obj
 0002:00003970       ??_C@_02FGJGFEAB@?$CG?$DN?$AA@ 10033970     libvcruntime:undname.obj
 0002:00003974       ??_C@_02DHLNPPGH@?$HM?$DN?$AA@ 10033974     libvcruntime:undname.obj
 0002:00003978       ??_C@_02MHEGNOJ@?$FO?$DN?$AA@ 10033978     libvcruntime:undname.obj
 0002:0000397c       ??_C@_09IFPLHPGF@?$GAvftable?8?$AA@ 1003397c     libvcruntime:undname.obj
 0002:00003988       ??_C@_09BLBHBJP@?$GAvbtable?8?$AA@ 10033988     libvcruntime:undname.obj
 0002:00003994       ??_C@_07FEEIOKP@?$GAvcall?8?$AA@ 10033994     libvcruntime:undname.obj
 0002:0000399c       ??_C@_08LLFFHHDJ@?$GAtypeof?8?$AA@ 1003399c     libvcruntime:undname.obj
 0002:000039a8       ??_C@_0BF@KDPPACIK@?$GAlocal?5static?5guard?8?$AA@ 100339a8     libvcruntime:undname.obj
 0002:000039c0       ??_C@_08OBABFOLI@?$GAstring?8?$AA@ 100339c0     libvcruntime:undname.obj
 0002:000039cc       ??_C@_0BD@JDLKDPAB@?$GAvbase?5destructor?8?$AA@ 100339cc     libvcruntime:undname.obj
 0002:000039e0       ??_C@_0BN@DEGPLNFK@?$GAvector?5deleting?5destructor?8?$AA@ 100339e0     libvcruntime:undname.obj
 0002:00003a00       ??_C@_0BO@OBMKPJIG@?$GAdefault?5constructor?5closure?8?$AA@ 10033a00     libvcruntime:undname.obj
 0002:00003a20       ??_C@_0BN@IMDCHIKM@?$GAscalar?5deleting?5destructor?8?$AA@ 10033a20     libvcruntime:undname.obj
 0002:00003a40       ??_C@_0BO@PFGOCPJJ@?$GAvector?5constructor?5iterator?8?$AA@ 10033a40     libvcruntime:undname.obj
 0002:00003a60       ??_C@_0BN@LFPFMEDL@?$GAvector?5destructor?5iterator?8?$AA@ 10033a60     libvcruntime:undname.obj
 0002:00003a80       ??_C@_0CE@IKBNEHA@?$GAvector?5vbase?5constructor?5iterat@ 10033a80     libvcruntime:undname.obj
 0002:00003aa4       ??_C@_0BL@NILFHHPC@?$GAvirtual?5displacement?5map?8?$AA@ 10033aa4     libvcruntime:undname.obj
 0002:00003ac0       ??_C@_0CB@JONCMFFK@?$GAeh?5vector?5constructor?5iterator?8@ 10033ac0     libvcruntime:undname.obj
 0002:00003ae4       ??_C@_0CA@GCEOPDGL@?$GAeh?5vector?5destructor?5iterator?8?$AA@ 10033ae4     libvcruntime:undname.obj
 0002:00003b04       ??_C@_0CH@OOJPLCPH@?$GAeh?5vector?5vbase?5constructor?5ite@ 10033b04     libvcruntime:undname.obj
 0002:00003b2c       ??_C@_0BL@LLKPOHJI@?$GAcopy?5constructor?5closure?8?$AA@ 10033b2c     libvcruntime:undname.obj
 0002:00003b48       ??_C@_0BA@KBCDOMBN@?$GAudt?5returning?8?$AA@ 10033b48     libvcruntime:undname.obj
 0002:00003b58       ??_C@_03KLGMFNMG@?$GAEH?$AA@ 10033b58     libvcruntime:undname.obj
 0002:00003b5c       ??_C@_05KHLCHHI@?$GARTTI?$AA@ 10033b5c     libvcruntime:undname.obj
 0002:00003b64       ??_C@_0BA@KKLDJDLB@?$GAlocal?5vftable?8?$AA@ 10033b64     libvcruntime:undname.obj
 0002:00003b74       ??_C@_0CE@IIHCMGGL@?$GAlocal?5vftable?5constructor?5closu@ 10033b74     libvcruntime:undname.obj
 0002:00003b98       ??_C@_06FHBGPFGH@?5new?$FL?$FN?$AA@ 10033b98     libvcruntime:undname.obj
 0002:00003ba0       ??_C@_09LBNFPBCA@?5delete?$FL?$FN?$AA@ 10033ba0     libvcruntime:undname.obj
 0002:00003bac       ??_C@_0P@HJKNJFNN@?$GAomni?5callsig?8?$AA@ 10033bac     libvcruntime:undname.obj
 0002:00003bbc       ??_C@_0BL@CNOONJFP@?$GAplacement?5delete?5closure?8?$AA@ 10033bbc     libvcruntime:undname.obj
 0002:00003bd8       ??_C@_0BN@CKNJLHMB@?$GAplacement?5delete?$FL?$FN?5closure?8?$AA@ 10033bd8     libvcruntime:undname.obj
 0002:00003bf8       ??_C@_0CG@CFDHKGGD@?$GAmanaged?5vector?5constructor?5iter@ 10033bf8     libvcruntime:undname.obj
 0002:00003c20       ??_C@_0CF@IMGKMJNO@?$GAmanaged?5vector?5destructor?5itera@ 10033c20     libvcruntime:undname.obj
 0002:00003c48       ??_C@_0CG@HLDDJMAG@?$GAeh?5vector?5copy?5constructor?5iter@ 10033c48     libvcruntime:undname.obj
 0002:00003c70       ??_C@_0CM@FCBBDIGB@?$GAeh?5vector?5vbase?5copy?5constructo@ 10033c70     libvcruntime:undname.obj
 0002:00003c9c       ??_C@_0BL@CLIPGLGB@?$GAdynamic?5initializer?5for?5?8?$AA@ 10033c9c     libvcruntime:undname.obj
 0002:00003cb8       ??_C@_0CB@PDBIFEP@?$GAdynamic?5atexit?5destructor?5for?5?8@ 10033cb8     libvcruntime:undname.obj
 0002:00003cdc       ??_C@_0CD@CGAJBKEJ@?$GAvector?5copy?5constructor?5iterato@ 10033cdc     libvcruntime:undname.obj
 0002:00003d00       ??_C@_0CJ@GJELGAMM@?$GAvector?5vbase?5copy?5constructor?5i@ 10033d00     libvcruntime:undname.obj
 0002:00003d2c       ??_C@_0CL@FGIJHLCE@?$GAmanaged?5vector?5copy?5constructor@ 10033d2c     libvcruntime:undname.obj
 0002:00003d58       ??_C@_0BM@PMGGMLDN@?$GAlocal?5static?5thread?5guard?8?$AA@ 10033d58     libvcruntime:undname.obj
 0002:00003d74       ??_C@_0N@BDNMDMOL@operator?5?$CC?$CC?5?$AA@ 10033d74     libvcruntime:undname.obj
 0002:00003d84       ??_C@_0BC@DAFEJGAK@?5Type?5Descriptor?8?$AA@ 10033d84     libvcruntime:undname.obj
 0002:00003d98       ??_C@_0BM@LDKODKLH@?5Base?5Class?5Descriptor?5at?5?$CI?$AA@ 10033d98     libvcruntime:undname.obj
 0002:00003db4       ??_C@_0BD@LGICGFMM@?5Base?5Class?5Array?8?$AA@ 10033db4     libvcruntime:undname.obj
 0002:00003dc8       ??_C@_0BN@MECKDCOJ@?5Class?5Hierarchy?5Descriptor?8?$AA@ 10033dc8     libvcruntime:undname.obj
 0002:00003de8       ??_C@_0BK@CFCOFLF@?5Complete?5Object?5Locator?8?$AA@ 10033de8     libvcruntime:undname.obj
 0002:00003e08       ??_C@_1EK@MBDPDCGA@?$AAM?$AAi?$AAc?$AAr?$AAo?$AAs?$AAo?$AAf?$AAt?$AA?5?$AAV?$AAi?$AAs?$AAu?$AAa?$AAl?$AA?5?$AAC?$AA?$CL?$AA?$CL?$AA?5?$AAR?$AAu?$AAn?$AAt?$AAi?$AAm?$AAe?$AA?5?$AAL?$AAi?$AAb@ 10033e08     libucrt:assert.obj
 0002:00003e58       ??_C@_1FE@LHBLIKM@?$AAA?$AAs?$AAs?$AAe?$AAr?$AAt?$AAi?$AAo?$AAn?$AA?5?$AAf?$AAa?$AAi?$AAl?$AAe?$AAd?$AA?3?$AA?5?$AA?$CF?$AAT?$AAs?$AA?0?$AA?5?$AAf?$AAi?$AAl?$AAe?$AA?5?$AA?$CF?$AAT?$AAs?$AA?0@ 10033e58     libucrt:assert.obj
 0002:00003eac       ??_C@_1CE@OJBNHDMO@?$AAA?$AAs?$AAs?$AAe?$AAr?$AAt?$AAi?$AAo?$AAn?$AA?5?$AAf?$AAa?$AAi?$AAl?$AAe?$AAd?$AA?$CB?$AA?$AA@ 10033eac     libucrt:assert.obj
 0002:00003ed0       ??_C@_1BE@PHKBBGE@?$AAP?$AAr?$AAo?$AAg?$AAr?$AAa?$AAm?$AA?3?$AA?5?$AA?$AA@ 10033ed0     libucrt:assert.obj
 0002:00003ee4       ??_C@_1O@HEMHKNDC@?$AAF?$AAi?$AAl?$AAe?$AA?3?$AA?5?$AA?$AA@ 10033ee4     libucrt:assert.obj
 0002:00003ef4       ??_C@_1O@KCAFKHJE@?$AAL?$AAi?$AAn?$AAe?$AA?3?$AA?5?$AA?$AA@ 10033ef4     libucrt:assert.obj
 0002:00003f04       ??_C@_1BK@PEDCIPMA@?$AAE?$AAx?$AAp?$AAr?$AAe?$AAs?$AAs?$AAi?$AAo?$AAn?$AA?3?$AA?5?$AA?$AA@ 10033f04     libucrt:assert.obj
 0002:00003f20       ??_C@_1OA@EGMLFBHJ@?$AAF?$AAo?$AAr?$AA?5?$AAi?$AAn?$AAf?$AAo?$AAr?$AAm?$AAa?$AAt?$AAi?$AAo?$AAn?$AA?5?$AAo?$AAn?$AA?5?$AAh?$AAo?$AAw?$AA?5?$AAy?$AAo?$AAu?$AAr?$AA?5?$AAp?$AAr?$AAo?$AAg@ 10033f20     libucrt:assert.obj
 0002:00004000       ??_C@_1HK@POCJMFGK@?$AA?$CI?$AAP?$AAr?$AAe?$AAs?$AAs?$AA?5?$AAR?$AAe?$AAt?$AAr?$AAy?$AA?5?$AAt?$AAo?$AA?5?$AAd?$AAe?$AAb?$AAu?$AAg?$AA?5?$AAt?$AAh?$AAe?$AA?5?$AAa?$AAp?$AAp?$AAl?$AAi?$AAc@ 10034000     libucrt:assert.obj
 0002:0000407c       ??_C@_17LGKOMLJ@?$AA?4?$AA?4?$AA?4?$AA?$AA@ 1003407c     libucrt:assert.obj
 0002:00004084       ??_C@_13LBAGMAIH@?$AA?6?$AA?$AA@ 10034084     libucrt:assert.obj
 0002:00004088       ??_C@_15IABLJNFO@?$AA?6?$AA?6?$AA?$AA@ 10034088     libucrt:assert.obj
 0002:00004090       ??_C@_1CO@EAEJAADC@?$AA?$DM?$AAp?$AAr?$AAo?$AAg?$AAr?$AAa?$AAm?$AA?5?$AAn?$AAa?$AAm?$AAe?$AA?5?$AAu?$AAn?$AAk?$AAn?$AAo?$AAw?$AAn?$AA?$DO?$AA?$AA@ 10034090     libucrt:assert.obj
 0002:000040c0       _standard_lookup_table     100340c0     libucrt:output.obj
 0002:0000411c       ??_C@_06OJHGLDPL@?$CInull?$CJ?$AA@ 1003411c     libucrt:output.obj
 0002:00004124       ??_C@_1O@CEDCILHN@?$AA?$CI?$AAn?$AAu?$AAl?$AAl?$AA?$CJ?$AA?$AA@ 10034124     libucrt:output.obj
 0002:00004138       __wctype                   10034138     libucrt:ctype.obj
 0002:00004340       ___newctype                10034340     libucrt:ctype.obj
 0002:00004640       ___newclmap                10034640     libucrt:ctype.obj
 0002:000047c0       ___newcumap                100347c0     libucrt:ctype.obj
 0002:00004aa8       ?large_power_data@?1??multiply_by_power_of_ten@__crt_strtox@@YA_NAAUbig_integer@2@I@Z@4QBIB 10034aa8     libucrt:strtod.obj
 0002:000053b0       ?large_power_indices@?1??multiply_by_power_of_ten@__crt_strtox@@YA_NAAUbig_integer@2@I@Z@4QBUunpack_index@?1??12@YA_N0I@Z@B 100353b0     libucrt:strtod.obj
 0002:00005448       ?small_powers_of_ten@?6??multiply_by_power_of_ten@__crt_strtox@@YA_NAAUbig_integer@2@I@Z@4QBIB 10035448     libucrt:strtod.obj
 0002:00005474       __half                     10035474     libucrt:pow.obj
 0002:00005480       ___acrt_exception_action_table 10035480     libucrt:exception_filter.obj
 0002:00005510       ___acrt_signal_action_table_count 10035510     libucrt:exception_filter.obj
 0002:00005514       ___acrt_signal_action_first_fpe_index 10035514     libucrt:exception_filter.obj
 0002:00005518       ___acrt_signal_action_fpe_count 10035518     libucrt:exception_filter.obj
 0002:0000551c       ??_C@_1BI@BGOHAHKC@?$AAm?$AAs?$AAc?$AAo?$AAr?$AAe?$AAe?$AA?4?$AAd?$AAl?$AAl?$AA?$AA@ 1003551c     libucrt:exit.obj
 0002:00005534       ??_C@_0P@MIGLKIOC@CorExitProcess?$AA@ 10035534     libucrt:exit.obj
 0002:000055c0       ??_C@_04FJHINJAO@tanh?$AA@ 100355c0     libucrt:fpexcept.obj
 0002:000055c8       ??_C@_04FIHNOPOL@asin?$AA@ 100355c8     libucrt:fpexcept.obj
 0002:000055d0       ??_C@_04PDIFKINK@acos?$AA@ 100355d0     libucrt:fpexcept.obj
 0002:000055d8       ??_C@_04MLLJIGOK@atan?$AA@ 100355d8     libucrt:fpexcept.obj
 0002:000055e0       ??_C@_05KNGEOGJB@atan2?$AA@ 100355e0     libucrt:fpexcept.obj
 0002:000055e8       ??_C@_04EIAKFFMI@sqrt?$AA@ 100355e8     libucrt:fpexcept.obj
 0002:000055f0       ??_C@_03BLEJJJBH@sin?$AA@  100355f0     libucrt:fpexcept.obj
 0002:000055f4       ??_C@_03LALBNOCG@cos?$AA@  100355f4     libucrt:fpexcept.obj
 0002:000055f8       ??_C@_04GFPJNGEK@ceil?$AA@ 100355f8     libucrt:fpexcept.obj
 0002:00005600       ??_C@_05PBJFFIGL@floor?$AA@ 10035600     libucrt:fpexcept.obj
 0002:00005608       ??_C@_04ODHECPBC@fabs?$AA@ 10035608     libucrt:fpexcept.obj
 0002:00005610       ??_C@_04EHEDPDJG@modf?$AA@ 10035610     libucrt:fpexcept.obj
 0002:00005618       ??_C@_05CEJMAHNP@ldexp?$AA@ 10035618     libucrt:fpexcept.obj
 0002:00005620       ??_C@_05KBKMEMPO@_cabs?$AA@ 10035620     libucrt:fpexcept.obj
 0002:00005628       ??_C@_06MEIMCGCF@_hypot?$AA@ 10035628     libucrt:fpexcept.obj
 0002:00005630       ??_C@_04KEPJIHGP@fmod?$AA@ 10035630     libucrt:fpexcept.obj
 0002:00005638       ??_C@_05GKKHEGJL@frexp?$AA@ 10035638     libucrt:fpexcept.obj
 0002:00005640       ??_C@_03MJLDFKDL@_y0?$AA@  10035640     libucrt:fpexcept.obj
 0002:00005644       ??_C@_03NAKIGLHK@_y1?$AA@  10035644     libucrt:fpexcept.obj
 0002:00005648       ??_C@_03ONILCKOB@_yn?$AA@  10035648     libucrt:fpexcept.obj
 0002:0000564c       ??_C@_05JGDBENOH@_logb?$AA@ 1003564c     libucrt:fpexcept.obj
 0002:00005654       ??_C@_0L@KDOEJCKC@_nextafter?$AA@ 10035654     libucrt:fpexcept.obj
 0002:00005748       ??_C@_03KHJOGHMM@exp?$AA@  10035748     libucrt:fpexcept.obj
 0002:0000574c       ??_C@_03JGHBODFD@pow?$AA@  1003574c     libucrt:fpexcept.obj
 0002:00005750       ??_C@_03MGHMBJCF@log?$AA@  10035750     libucrt:fpexcept.obj
 0002:00005754       ??_C@_05HGHHAHAP@log10?$AA@ 10035754     libucrt:fpexcept.obj
 0002:0000575c       ??_C@_04COOMCNPB@sinh?$AA@ 1003575c     libucrt:fpexcept.obj
 0002:00005764       ??_C@_04HPJJNFIM@cosh?$AA@ 10035764     libucrt:fpexcept.obj
 0002:00005770       __d_inf                    10035770     libucrt:util.obj
 0002:00005778       __d_max                    10035778     libucrt:util.obj
 0002:00005780       __d_mzero                  10035780     libucrt:util.obj
 0002:000057f0       ??_C@_1EG@CNNIPFIM@?$AAa?$AAp?$AAi?$AA?9?$AAm?$AAs?$AA?9?$AAw?$AAi?$AAn?$AA?9?$AAa?$AAp?$AAp?$AAm?$AAo?$AAd?$AAe?$AAl?$AA?9?$AAr?$AAu?$AAn?$AAt?$AAi?$AAm?$AAe?$AA?9?$AAl?$AA1?$AA?9?$AA1@ 100357f0     libucrt:winapi_thunks.obj
 0002:00005838       ??_C@_1EA@JGEFHKEI@?$AAa?$AAp?$AAi?$AA?9?$AAm?$AAs?$AA?9?$AAw?$AAi?$AAn?$AA?9?$AAc?$AAo?$AAr?$AAe?$AA?9?$AAd?$AAa?$AAt?$AAe?$AAt?$AAi?$AAm?$AAe?$AA?9?$AAl?$AA1?$AA?9?$AA1?$AA?9?$AA1?$AA?$AA@ 10035838     libucrt:winapi_thunks.obj
 0002:00005878       ??_C@_1DI@GCIAAENM@?$AAa?$AAp?$AAi?$AA?9?$AAm?$AAs?$AA?9?$AAw?$AAi?$AAn?$AA?9?$AAc?$AAo?$AAr?$AAe?$AA?9?$AAf?$AAi?$AAl?$AAe?$AA?9?$AAl?$AA2?$AA?9?$AA1?$AA?9?$AA1?$AA?$AA@ 10035878     libucrt:winapi_thunks.obj
 0002:000058b0       ??_C@_1EI@MPIAOHOC@?$AAa?$AAp?$AAi?$AA?9?$AAm?$AAs?$AA?9?$AAw?$AAi?$AAn?$AA?9?$AAc?$AAo?$AAr?$AAe?$AA?9?$AAl?$AAo?$AAc?$AAa?$AAl?$AAi?$AAz?$AAa?$AAt?$AAi?$AAo?$AAn?$AA?9?$AAl?$AA1?$AA?9@ 100358b0     libucrt:winapi_thunks.obj
 0002:000058f8       ??_C@_1FK@FPHCKFIE@?$AAa?$AAp?$AAi?$AA?9?$AAm?$AAs?$AA?9?$AAw?$AAi?$AAn?$AA?9?$AAc?$AAo?$AAr?$AAe?$AA?9?$AAl?$AAo?$AAc?$AAa?$AAl?$AAi?$AAz?$AAa?$AAt?$AAi?$AAo?$AAn?$AA?9?$AAo?$AAb?$AAs@ 100358f8     libucrt:winapi_thunks.obj
 0002:00005958       ??_C@_1EM@DILCGIIO@?$AAa?$AAp?$AAi?$AA?9?$AAm?$AAs?$AA?9?$AAw?$AAi?$AAn?$AA?9?$AAc?$AAo?$AAr?$AAe?$AA?9?$AAp?$AAr?$AAo?$AAc?$AAe?$AAs?$AAs?$AAt?$AAh?$AAr?$AAe?$AAa?$AAd?$AAs?$AA?9?$AAl@ 10035958     libucrt:winapi_thunks.obj
 0002:000059a4       ??_C@_1DM@LNCGDDPN@?$AAa?$AAp?$AAi?$AA?9?$AAm?$AAs?$AA?9?$AAw?$AAi?$AAn?$AA?9?$AAc?$AAo?$AAr?$AAe?$AA?9?$AAs?$AAt?$AAr?$AAi?$AAn?$AAg?$AA?9?$AAl?$AA1?$AA?9?$AA1?$AA?9?$AA0?$AA?$AA@ 100359a4     libucrt:winapi_thunks.obj
 0002:000059e0       ??_C@_1DO@FPAPJEMD@?$AAa?$AAp?$AAi?$AA?9?$AAm?$AAs?$AA?9?$AAw?$AAi?$AAn?$AA?9?$AAc?$AAo?$AAr?$AAe?$AA?9?$AAs?$AAy?$AAs?$AAi?$AAn?$AAf?$AAo?$AA?9?$AAl?$AA1?$AA?9?$AA2?$AA?9?$AA1?$AA?$AA@ 100359e0     libucrt:winapi_thunks.obj
 0002:00005a20       ??_C@_1DK@NDHNAHIO@?$AAa?$AAp?$AAi?$AA?9?$AAm?$AAs?$AA?9?$AAw?$AAi?$AAn?$AA?9?$AAc?$AAo?$AAr?$AAe?$AA?9?$AAw?$AAi?$AAn?$AAr?$AAt?$AA?9?$AAl?$AA1?$AA?9?$AA1?$AA?9?$AA0?$AA?$AA@ 10035a20     libucrt:winapi_thunks.obj
 0002:00005a5c       ??_C@_1DM@KGHDGBCM@?$AAa?$AAp?$AAi?$AA?9?$AAm?$AAs?$AA?9?$AAw?$AAi?$AAn?$AA?9?$AAc?$AAo?$AAr?$AAe?$AA?9?$AAx?$AAs?$AAt?$AAa?$AAt?$AAe?$AA?9?$AAl?$AA2?$AA?9?$AA1?$AA?9?$AA0?$AA?$AA@ 10035a5c     libucrt:winapi_thunks.obj
 0002:00005a98       ??_C@_1EO@IJIOEFOH@?$AAa?$AAp?$AAi?$AA?9?$AAm?$AAs?$AA?9?$AAw?$AAi?$AAn?$AA?9?$AAr?$AAt?$AAc?$AAo?$AAr?$AAe?$AA?9?$AAn?$AAt?$AAu?$AAs?$AAe?$AAr?$AA?9?$AAw?$AAi?$AAn?$AAd?$AAo?$AAw?$AA?9@ 10035a98     libucrt:winapi_thunks.obj
 0002:00005ae8       ??_C@_1FG@HHGEKANL@?$AAa?$AAp?$AAi?$AA?9?$AAm?$AAs?$AA?9?$AAw?$AAi?$AAn?$AA?9?$AAs?$AAe?$AAc?$AAu?$AAr?$AAi?$AAt?$AAy?$AA?9?$AAs?$AAy?$AAs?$AAt?$AAe?$AAm?$AAf?$AAu?$AAn?$AAc?$AAt?$AAi@ 10035ae8     libucrt:winapi_thunks.obj
 0002:00005b40       ??_C@_1FG@NCKKOLKO@?$AAe?$AAx?$AAt?$AA?9?$AAm?$AAs?$AA?9?$AAw?$AAi?$AAn?$AA?9?$AAk?$AAe?$AAr?$AAn?$AAe?$AAl?$AA3?$AA2?$AA?9?$AAp?$AAa?$AAc?$AAk?$AAa?$AAg?$AAe?$AA?9?$AAc?$AAu?$AAr?$AAr@ 10035b40     libucrt:winapi_thunks.obj
 0002:00005b98       ??_C@_1EG@DBIOJECG@?$AAe?$AAx?$AAt?$AA?9?$AAm?$AAs?$AA?9?$AAw?$AAi?$AAn?$AA?9?$AAn?$AAt?$AAu?$AAs?$AAe?$AAr?$AA?9?$AAd?$AAi?$AAa?$AAl?$AAo?$AAg?$AAb?$AAo?$AAx?$AA?9?$AAl?$AA1?$AA?9?$AA1@ 10035b98     libucrt:winapi_thunks.obj
 0002:00005be0       ??_C@_1EO@FIHMJCLF@?$AAe?$AAx?$AAt?$AA?9?$AAm?$AAs?$AA?9?$AAw?$AAi?$AAn?$AA?9?$AAn?$AAt?$AAu?$AAs?$AAe?$AAr?$AA?9?$AAw?$AAi?$AAn?$AAd?$AAo?$AAw?$AAs?$AAt?$AAa?$AAt?$AAi?$AAo?$AAn?$AA?9@ 10035be0     libucrt:winapi_thunks.obj
 0002:00005c30       ??_C@_1O@BCCLBEOE@?$AAu?$AAs?$AAe?$AAr?$AA3?$AA2?$AA?$AA@ 10035c30     libucrt:winapi_thunks.obj
 0002:00005c44       ??_C@_0BA@FHFNEAED@AreFileApisANSI?$AA@ 10035c44     libucrt:winapi_thunks.obj
 0002:00005c7c       ??_C@_0BA@HNOPNCHB@GetActiveWindow?$AA@ 10035c7c     libucrt:winapi_thunks.obj
 0002:00005c9c       ??_C@_0BD@HHGDFDBJ@GetLastActivePopup?$AA@ 10035c9c     libucrt:winapi_thunks.obj
 0002:00005cb8       ??_C@_0BI@DFKBFLJE@GetProcessWindowStation?$AA@ 10035cb8     libucrt:winapi_thunks.obj
 0002:00005cd8       ??_C@_0BK@DEKFELLI@GetUserObjectInformationW?$AA@ 10035cd8     libucrt:winapi_thunks.obj
 0002:00005d0c       ??_C@_0BB@HBDEELFH@LocaleNameToLCID?$AA@ 10035d0c     libucrt:winapi_thunks.obj
 0002:00005d28       ??_C@_0M@CHKKJDAI@MessageBoxA?$AA@ 10035d28     libucrt:winapi_thunks.obj
 0002:00005d3c       ??_C@_0M@DLDCCGNP@MessageBoxW?$AA@ 10035d3c     libucrt:winapi_thunks.obj
 0002:00005d48       ??_C@_03OEIAHPBN@INF?$AA@  10035d48     libucrt:cvt.obj
 0002:00005d4c       ??_C@_03OJHLLCGB@inf?$AA@  10035d4c     libucrt:cvt.obj
 0002:00005d50       ??_C@_03LKNCIKJB@NAN?$AA@  10035d50     libucrt:cvt.obj
 0002:00005d54       ??_C@_03LHCJEHON@nan?$AA@  10035d54     libucrt:cvt.obj
 0002:00005d58       ??_C@_09OFJJIMPC@NAN?$CISNAN?$CJ?$AA@ 10035d58     libucrt:cvt.obj
 0002:00005d64       ??_C@_09IPFBKMDL@nan?$CIsnan?$CJ?$AA@ 10035d64     libucrt:cvt.obj
 0002:00005d70       ??_C@_08IKHNHAJ@NAN?$CIIND?$CJ?$AA@ 10035d70     libucrt:cvt.obj
 0002:00005d7c       ??_C@_08OFCDMILK@nan?$CIind?$CJ?$AA@ 10035d7c     libucrt:cvt.obj
 0002:00005d88       ??_C@_05KLBDPFGC@e?$CL000?$AA@ 10035d88     libucrt:cvt.obj
 0002:00005d90       ??_C@_03KOEHGMDN@Sun?$AA@  10035d90     libucrt:nlsdata.obj
 0002:00005d94       ??_C@_03PDAGKDH@Mon?$AA@   10035d94     libucrt:nlsdata.obj
 0002:00005d98       ??_C@_03NAGEINEP@Tue?$AA@  10035d98     libucrt:nlsdata.obj
 0002:00005d9c       ??_C@_03MHOMLAJA@Wed?$AA@  10035d9c     libucrt:nlsdata.obj
 0002:00005da0       ??_C@_03IOFIKPDN@Thu?$AA@  10035da0     libucrt:nlsdata.obj
 0002:00005da4       ??_C@_03IDIOELNC@Fri?$AA@  10035da4     libucrt:nlsdata.obj
 0002:00005da8       ??_C@_03FEFJNEK@Sat?$AA@   10035da8     libucrt:nlsdata.obj
 0002:00005dac       ??_C@_06OOPIFAJ@Sunday?$AA@ 10035dac     libucrt:nlsdata.obj
 0002:00005db4       ??_C@_06JLEDEDGH@Monday?$AA@ 10035db4     libucrt:nlsdata.obj
 0002:00005dbc       ??_C@_07BAAGCFCM@Tuesday?$AA@ 10035dbc     libucrt:nlsdata.obj
 0002:00005dc4       ??_C@_09DLIGFAKA@Wednesday?$AA@ 10035dc4     libucrt:nlsdata.obj
 0002:00005dd0       ??_C@_08HACCIKIA@Thursday?$AA@ 10035dd0     libucrt:nlsdata.obj
 0002:00005ddc       ??_C@_06JECMNKMI@Friday?$AA@ 10035ddc     libucrt:nlsdata.obj
 0002:00005de4       ??_C@_08INBOOONO@Saturday?$AA@ 10035de4     libucrt:nlsdata.obj
 0002:00005df0       ??_C@_03JIHJHPIE@Jan?$AA@  10035df0     libucrt:nlsdata.obj
 0002:00005df4       ??_C@_03HJBDCHOM@Feb?$AA@  10035df4     libucrt:nlsdata.obj
 0002:00005df8       ??_C@_03ODNJBKGA@Mar?$AA@  10035df8     libucrt:nlsdata.obj
 0002:00005dfc       ??_C@_03LEOLGMJP@Apr?$AA@  10035dfc     libucrt:nlsdata.obj
 0002:00005e00       ??_C@_03CNMDKL@May?$AA@    10035e00     libucrt:nlsdata.obj
 0002:00005e04       ??_C@_03IDFGHECI@Jun?$AA@  10035e04     libucrt:nlsdata.obj
 0002:00005e08       ??_C@_03LBGABGKK@Jul?$AA@  10035e08     libucrt:nlsdata.obj
 0002:00005e0c       ??_C@_03IFJFEIGA@Aug?$AA@  10035e0c     libucrt:nlsdata.obj
 0002:00005e10       ??_C@_03GGCAPAJC@Sep?$AA@  10035e10     libucrt:nlsdata.obj
 0002:00005e14       ??_C@_03BMAOKBAD@Oct?$AA@  10035e14     libucrt:nlsdata.obj
 0002:00005e18       ??_C@_03JPJOFNIA@Nov?$AA@  10035e18     libucrt:nlsdata.obj
 0002:00005e1c       ??_C@_03MKABNOCG@Dec?$AA@  10035e1c     libucrt:nlsdata.obj
 0002:00005e20       ??_C@_07CGJPFGJA@January?$AA@ 10035e20     libucrt:nlsdata.obj
 0002:00005e28       ??_C@_08GNJGEPFN@February?$AA@ 10035e28     libucrt:nlsdata.obj
 0002:00005e34       ??_C@_05HPCKOFNC@March?$AA@ 10035e34     libucrt:nlsdata.obj
 0002:00005e3c       ??_C@_05DMJDNLEJ@April?$AA@ 10035e3c     libucrt:nlsdata.obj
 0002:00005e44       ??_C@_04CNLMGBGM@June?$AA@ 10035e44     libucrt:nlsdata.obj
 0002:00005e4c       ??_C@_04MIEPOIFP@July?$AA@ 10035e4c     libucrt:nlsdata.obj
 0002:00005e54       ??_C@_06LBBHFDDG@August?$AA@ 10035e54     libucrt:nlsdata.obj
 0002:00005e5c       ??_C@_09BHHEALKD@September?$AA@ 10035e5c     libucrt:nlsdata.obj
 0002:00005e68       ??_C@_07JJNFCEND@October?$AA@ 10035e68     libucrt:nlsdata.obj
 0002:00005e70       ??_C@_08HCHEGEOA@November?$AA@ 10035e70     libucrt:nlsdata.obj
 0002:00005e7c       ??_C@_08EDHMEBNP@December?$AA@ 10035e7c     libucrt:nlsdata.obj
 0002:00005e88       ??_C@_02DEDBPAFC@AM?$AA@   10035e88     libucrt:nlsdata.obj
 0002:00005e8c       ??_C@_02CJNFDJBF@PM?$AA@   10035e8c     libucrt:nlsdata.obj
 0002:00005e90       ??_C@_08BPBNCDIB@MM?1dd?1yy?$AA@ 10035e90     libucrt:nlsdata.obj
 0002:00005e9c       ??_C@_0BE@CKGJFCPC@dddd?0?5MMMM?5dd?0?5yyyy?$AA@ 10035e9c     libucrt:nlsdata.obj
 0002:00005eb0       ??_C@_08JCCMCCIL@HH?3mm?3ss?$AA@ 10035eb0     libucrt:nlsdata.obj
 0002:00005ebc       ??_C@_17MBGCMIPB@?$AAS?$AAu?$AAn?$AA?$AA@ 10035ebc     libucrt:nlsdata.obj
 0002:00005ec4       ??_C@_17KBOMKBF@?$AAM?$AAo?$AAn?$AA?$AA@ 10035ec4     libucrt:nlsdata.obj
 0002:00005ecc       ??_C@_17BMKGEGOJ@?$AAT?$AAu?$AAe?$AA?$AA@ 10035ecc     libucrt:nlsdata.obj
 0002:00005ed4       ??_C@_17CJEDCEPE@?$AAW?$AAe?$AAd?$AA?$AA@ 10035ed4     libucrt:nlsdata.obj
 0002:00005edc       ??_C@_17PDPHAADD@?$AAT?$AAh?$AAu?$AA?$AA@ 10035edc     libucrt:nlsdata.obj
 0002:00005ee4       ??_C@_17HFOLPPLP@?$AAF?$AAr?$AAi?$AA?$AA@ 10035ee4     libucrt:nlsdata.obj
 0002:00005eec       ??_C@_17GGIBDPIH@?$AAS?$AAa?$AAt?$AA?$AA@ 10035eec     libucrt:nlsdata.obj
 0002:00005ef4       ??_C@_1O@IHNHDHPB@?$AAS?$AAu?$AAn?$AAd?$AAa?$AAy?$AA?$AA@ 10035ef4     libucrt:nlsdata.obj
 0002:00005f04       ??_C@_1O@MMNBFLIA@?$AAM?$AAo?$AAn?$AAd?$AAa?$AAy?$AA?$AA@ 10035f04     libucrt:nlsdata.obj
 0002:00005f14       ??_C@_1BA@ENFBFFEK@?$AAT?$AAu?$AAe?$AAs?$AAd?$AAa?$AAy?$AA?$AA@ 10035f14     libucrt:nlsdata.obj
 0002:00005f24       ??_C@_1BE@EBOGMDOH@?$AAW?$AAe?$AAd?$AAn?$AAe?$AAs?$AAd?$AAa?$AAy?$AA?$AA@ 10035f24     libucrt:nlsdata.obj
 0002:00005f38       ??_C@_1BC@HHMNLIHE@?$AAT?$AAh?$AAu?$AAr?$AAs?$AAd?$AAa?$AAy?$AA?$AA@ 10035f38     libucrt:nlsdata.obj
 0002:00005f4c       ??_C@_1O@PDICJHAG@?$AAF?$AAr?$AAi?$AAd?$AAa?$AAy?$AA?$AA@ 10035f4c     libucrt:nlsdata.obj
 0002:00005f5c       ??_C@_1BC@ENMNNPAJ@?$AAS?$AAa?$AAt?$AAu?$AAr?$AAd?$AAa?$AAy?$AA?$AA@ 10035f5c     libucrt:nlsdata.obj
 0002:00005f70       ??_C@_17DKNBKCHM@?$AAJ?$AAa?$AAn?$AA?$AA@ 10035f70     libucrt:nlsdata.obj
 0002:00005f78       ??_C@_17LMDJEKJN@?$AAF?$AAe?$AAb?$AA?$AA@ 10035f78     libucrt:nlsdata.obj
 0002:00005f80       ??_C@_17CKNLEDEC@?$AAM?$AAa?$AAr?$AA?$AA@ 10035f80     libucrt:nlsdata.obj
 0002:00005f88       ??_C@_17LFPOIHDD@?$AAA?$AAp?$AAr?$AA?$AA@ 10035f88     libucrt:nlsdata.obj
 0002:00005f90       ??_C@_17PNNKMEED@?$AAM?$AAa?$AAy?$AA?$AA@ 10035f90     libucrt:nlsdata.obj
 0002:00005f98       ??_C@_17KCJGOCPB@?$AAJ?$AAu?$AAn?$AA?$AA@ 10035f98     libucrt:nlsdata.obj
 0002:00005fa0       ??_C@_17IJPCKHK@?$AAJ?$AAu?$AAl?$AA?$AA@ 10035fa0     libucrt:nlsdata.obj
 0002:00005fa8       ??_C@_17ICPELBCN@?$AAA?$AAu?$AAg?$AA?$AA@ 10035fa8     libucrt:nlsdata.obj
 0002:00005fb0       ??_C@_17HCHCOKMG@?$AAS?$AAe?$AAp?$AA?$AA@ 10035fb0     libucrt:nlsdata.obj
 0002:00005fb8       ??_C@_17FNLKOI@?$AAO?$AAc?$AAt?$AA?$AA@ 10035fb8     libucrt:nlsdata.obj
 0002:00005fc0       ??_C@_17BBDMLCIG@?$AAN?$AAo?$AAv?$AA?$AA@ 10035fc0     libucrt:nlsdata.obj
 0002:00005fc8       ??_C@_17EGKACKIF@?$AAD?$AAe?$AAc?$AA?$AA@ 10035fc8     libucrt:nlsdata.obj
 0002:00005fd0       ??_C@_1BA@EFMEIEBA@?$AAJ?$AAa?$AAn?$AAu?$AAa?$AAr?$AAy?$AA?$AA@ 10035fd0     libucrt:nlsdata.obj
 0002:00005fe0       ??_C@_1BC@JGDDFFAM@?$AAF?$AAe?$AAb?$AAr?$AAu?$AAa?$AAr?$AAy?$AA?$AA@ 10035fe0     libucrt:nlsdata.obj
 0002:00005ff4       ??_C@_1M@IKEENEDF@?$AAM?$AAa?$AAr?$AAc?$AAh?$AA?$AA@ 10035ff4     libucrt:nlsdata.obj
 0002:00006000       ??_C@_1M@GJNLMHFD@?$AAA?$AAp?$AAr?$AAi?$AAl?$AA?$AA@ 10036000     libucrt:nlsdata.obj
 0002:0000600c       ??_C@_19EPFLPGAP@?$AAJ?$AAu?$AAn?$AAe?$AA?$AA@ 1003600c     libucrt:nlsdata.obj
 0002:00006018       ??_C@_19BIFMLPCD@?$AAJ?$AAu?$AAl?$AAy?$AA?$AA@ 10036018     libucrt:nlsdata.obj
 0002:00006024       ??_C@_1O@PAHLKOAC@?$AAA?$AAu?$AAg?$AAu?$AAs?$AAt?$AA?$AA@ 10036024     libucrt:nlsdata.obj
 0002:00006034       ??_C@_1BE@DKAAMBJL@?$AAS?$AAe?$AAp?$AAt?$AAe?$AAm?$AAb?$AAe?$AAr?$AA?$AA@ 10036034     libucrt:nlsdata.obj
 0002:00006048       ??_C@_1BA@EPANDLNG@?$AAO?$AAc?$AAt?$AAo?$AAb?$AAe?$AAr?$AA?$AA@ 10036048     libucrt:nlsdata.obj
 0002:00006058       ??_C@_1BC@BGLIFPF@?$AAN?$AAo?$AAv?$AAe?$AAm?$AAb?$AAe?$AAr?$AA?$AA@ 10036058     libucrt:nlsdata.obj
 0002:0000606c       ??_C@_1BC@FEMKIFH@?$AAD?$AAe?$AAc?$AAe?$AAm?$AAb?$AAe?$AAr?$AA?$AA@ 1003606c     libucrt:nlsdata.obj
 0002:00006080       ??_C@_15ODEHAHHF@?$AAA?$AAM?$AA?$AA@ 10036080     libucrt:nlsdata.obj
 0002:00006088       ??_C@_15CLMNNGEL@?$AAP?$AAM?$AA?$AA@ 10036088     libucrt:nlsdata.obj
 0002:00006090       ??_C@_1BC@IEBCMHCM@?$AAM?$AAM?$AA?1?$AAd?$AAd?$AA?1?$AAy?$AAy?$AA?$AA@ 10036090     libucrt:nlsdata.obj
 0002:000060a4       ??_C@_1CI@KNAKOEBC@?$AAd?$AAd?$AAd?$AAd?$AA?0?$AA?5?$AAM?$AAM?$AAM?$AAM?$AA?5?$AAd?$AAd?$AA?0?$AA?5?$AAy?$AAy?$AAy?$AAy?$AA?$AA@ 100360a4     libucrt:nlsdata.obj
 0002:000060cc       ??_C@_1BC@GDGBMEMK@?$AAH?$AAH?$AA?3?$AAm?$AAm?$AA?3?$AAs?$AAs?$AA?$AA@ 100360cc     libucrt:nlsdata.obj
 0002:000060e0       ___lc_time_c               100360e0     libucrt:nlsdata.obj
 0002:00006244       ?ccs@?BL@???$__acrt_stdio_parse_mode@D@@YA?AU__acrt_stdio_stream_mode@@QBD@Z@4QBDB 10036244     libucrt:openfile.obj
 0002:00006248       ?utf8_encoding@?BL@???$__acrt_stdio_parse_mode@D@@YA?AU__acrt_stdio_stream_mode@@QBD@Z@4QBDB 10036248     libucrt:openfile.obj
 0002:00006250       ?utf16_encoding@?BL@???$__acrt_stdio_parse_mode@D@@YA?AU__acrt_stdio_stream_mode@@QBD@Z@4QBDB 10036250     libucrt:openfile.obj
 0002:00006258       ?unicode_encoding@?BL@???$__acrt_stdio_parse_mode@D@@YA?AU__acrt_stdio_stream_mode@@QBD@Z@4QBDB 10036258     libucrt:openfile.obj
 0002:00006320       __infinity                 10036320     libucrt:87tran.obj
 0002:0000632a       __minfinity                1003632a     libucrt:87tran.obj
 0002:00006334       __logemax                  10036334     libucrt:87tran.obj
 0002:0000635a       __OP_EXPjmptab             1003635a     libucrt:87tran.obj
 0002:00006380       __indefinite               10036380     libucrt:87disp.obj
 0002:0000638a       __piby2                    1003638a     libucrt:87disp.obj
 0002:00006394       __piby4                    10036394     libucrt:87disp.obj
 0002:000063c8       __DEFAULT_CW_in_mem        100363c8     libucrt:common.obj
 0002:000063ca       __pi_by_2_to_61            100363ca     libucrt:common.obj
 0002:00007258       ??_C@_05DNEBIAHO@1?$CDINF?$AA@ 10037258     libucrt:cfout.obj
 0002:00007260       ??_C@_06IMKFLFPG@1?$CDQNAN?$AA@ 10037260     libucrt:cfout.obj
 0002:00007268       ??_C@_06PGGFOGJG@1?$CDSNAN?$AA@ 10037268     libucrt:cfout.obj
 0002:00007270       ??_C@_05PHHOCPM@1?$CDIND?$AA@ 10037270     libucrt:cfout.obj
 0002:00007278       ___acrt_pow_rcp_t1         10037278     libucrt:pow_tables.obj
 0002:00007690       ___acrt_pow_log2_t1        10037690     libucrt:pow_tables.obj
 0002:00007ea0       ___acrt_pow_rcp_t2         10037ea0     libucrt:pow_tables.obj
 0002:000082b0       ___acrt_pow_log2_t2        100382b0     libucrt:pow_tables.obj
 0002:00008ac0       ___acrt_pow_rcp_t3         10038ac0     libucrt:pow_tables.obj
 0002:000092d0       ___acrt_pow_log2_t3        100392d0     libucrt:pow_tables.obj
 0002:0000a2e0       ___acrt_pow_clv            1003a2e0     libucrt:pow_tables.obj
 0002:0000a300       ___acrt_pow_exp2_tbl       1003a300     libucrt:pow_tables.obj
 0002:0000ab58       ??_C@_1BA@BALFACEM@?$AAC?$AAO?$AAN?$AAO?$AAU?$AAT?$AA$?$AA?$AA@ 1003ab58     libucrt:initcon.obj
 0002:0000ac70       ___acrt_log10_table_t      1003ac70     libucrt:log10_tables.obj
 0002:0000b080       ___acrt_log10_table_cb     1003b080     libucrt:log10_tables.obj
 0002:0000b490       ??_C@_1BK@DBDEIDLH@?$AAK?$AAE?$AAR?$AAN?$AAE?$AAL?$AA3?$AA2?$AA?4?$AAD?$AAL?$AAL?$AA?$AA@ 1003b490     DelayImp:delayhlp.obj
 0002:0000b4ac       ___pfnDliFailureHook2      1003b4ac     DelayImp:delayhk1.obj
 0002:0000b4b0       __load_config_used         1003b4b0     LIBCMT:loadcfg.obj
 0002:0000b50c       ??_C@_00CNPNBAHC@?$AA@     1003b50c     Backend.obj
 0002:0000b510       ??_C@_07CIFAGBMG@unknown?$AA@ 1003b510     Backend.obj
 0002:0000b518       ??_C@_1DG@OKCGPKIB@?$AAp?$AAe?$AAr?$AAs?$AAi?$AAs?$AAt?$AAe?$AAn?$AAt?$AA?$CI?$AA?$CJ?$AA?4?$AAI?$AAs?$AAN?$AAe?$AAa?$AAr?$AAD?$AAe?$AAa?$AAt?$AAh?$AA?$CI?$AA?$CJ?$AA?$AA@ 1003b518     Backend.obj
 0002:0000b550       ??_C@_1DA@FBGAEOIO@?$AA?$CB?$AAp?$AAe?$AAr?$AAs?$AAi?$AAs?$AAt?$AAe?$AAn?$AAt?$AA?$CI?$AA?$CJ?$AA?4?$AAI?$AAs?$AAE?$AAm?$AAp?$AAt?$AAy?$AA?$CI?$AA?$CJ?$AA?$AA@ 1003b550     Backend.obj
 0002:0000b580       ??_C@_1CO@JCKLEFMA@?$AA?$CB?$AAp?$AAe?$AAr?$AAs?$AAi?$AAs?$AAt?$AAe?$AAn?$AAt?$AA?$CI?$AA?$CJ?$AA?4?$AAI?$AAs?$AAW?$AAe?$AAa?$AAk?$AA?$CI?$AA?$CJ?$AA?$AA@ 1003b580     Backend.obj
 0002:0000b5b0       ??_C@_1BE@GMLLOIPJ@?$AAr?$AAe?$AAf?$AAs?$AA_?$AA?5?$AA?$DO?$AA?5?$AA0?$AA?$AA@ 1003b5b0     Backend.obj
 0002:0000b5c4       ??_C@_1CC@GBFLAAPF@?$AAw?$AAr?$AAa?$AAp?$AA?9?$AA?$DO?$AAr?$AAe?$AAf?$AAs?$AA_?$AA?5?$AA?$DN?$AA?$DN?$AA?5?$AA0?$AA?$AA@ 1003b5c4     Backend.obj
 0002:0000b5e8       ??_C@_0BA@JFNIOLAK@string?5too?5long?$AA@ 1003b5e8     Backend.obj
 0002:0000b5f8       ??_C@_1HM@BHKFPGBE@?$AAc?$AA?3?$AA?2?$AAt?$AAm?$AAp?$AA?2?$AAn?$AAo?$AAd?$AAe?$AA_?$AAm?$AAo?$AAd?$AAu?$AAl?$AAe?$AAs?$AA?2?$AAc?$AAa?$AAn?$AAv?$AAa?$AAs?$AA?2?$AAn?$AAo?$AAd?$AAe?$AA_@ 1003b5f8     Backend.obj
 0002:0000b674       ??_C@_1DI@ELDBKNAK@?$AAw?$AAr?$AAa?$AAp?$AA?9?$AA?$DO?$AAh?$AAa?$AAn?$AAd?$AAl?$AAe?$AA_?$AA?4?$AAI?$AAs?$AAN?$AAe?$AAa?$AAr?$AAD?$AAe?$AAa?$AAt?$AAh?$AA?$CI?$AA?$CJ?$AA?$AA@ 1003b674     Backend.obj
 0002:0000b6ac       ??_C@_0BI@CFPLBAOH@invalid?5string?5position?$AA@ 1003b6ac     Backend.obj
 0002:0000b6c4       ??_7Backend@@6B@           1003b6c4     Backend.obj
 0002:0000b6e4       ??_7ObjectWrap@Nan@@6B@    1003b6e4     Backend.obj
 0002:0000b6f0       ??_C@_1CO@EGNPJLKI@?$AAp?$AAe?$AAr?$AAs?$AAi?$AAs?$AAt?$AAe?$AAn?$AAt?$AA?$CI?$AA?$CJ?$AA?4?$AAI?$AAs?$AAE?$AAm?$AAp?$AAt?$AAy?$AA?$CI?$AA?$CJ?$AA?$AA@ 1003b6f0     ImageBackend.obj
 0002:0000b720       ??_C@_1EC@MGGLMBLC@?$AAo?$AAb?$AAj?$AAe?$AAc?$AAt?$AA?9?$AA?$DO?$AAI?$AAn?$AAt?$AAe?$AAr?$AAn?$AAa?$AAl?$AAF?$AAi?$AAe?$AAl?$AAd?$AAC?$AAo?$AAu?$AAn?$AAt?$AA?$CI?$AA?$CJ?$AA?5?$AA?$DO?$AA?5?$AA0@ 1003b720     ImageBackend.obj
 0002:0000b764       ??_C@_05NGOMGBBD@image?$AA@ 1003b764     ImageBackend.obj
 0002:0000b76c       ??_C@_1DO@DJNALJEP@?$AA?4?$AA?4?$AA?2?$AAs?$AAr?$AAc?$AA?2?$AAb?$AAa?$AAc?$AAk?$AAe?$AAn?$AAd?$AA?2?$AAI?$AAm?$AAa?$AAg?$AAe?$AAB?$AAa?$AAc?$AAk?$AAe?$AAn?$AAd?$AA?4?$AAc?$AAc?$AA?$AA@ 1003b76c     ImageBackend.obj
 0002:0000b7ac       ??_C@_1BO@PHAHKBAH@?$AA?$CB?$AAt?$AAh?$AAi?$AAs?$AA?9?$AA?$DO?$AAs?$AAu?$AAr?$AAf?$AAa?$AAc?$AAe?$AA?$AA@ 1003b7ac     ImageBackend.obj
 0002:0000b7cc       ??_C@_1BM@KKMLHDFH@?$AAt?$AAh?$AAi?$AAs?$AA?9?$AA?$DO?$AAs?$AAu?$AAr?$AAf?$AAa?$AAc?$AAe?$AA?$AA@ 1003b7cc     ImageBackend.obj
 0002:0000b7e8       ??_C@_0N@KBCACLBD@ImageBackend?$AA@ 1003b7e8     ImageBackend.obj
 0002:0000b7f8       ??_7ImageBackend@@6B@      1003b7f8     ImageBackend.obj
 0002:0000b818       ??_C@_03MJPNCPKC@pdf?$AA@  1003b818     PdfBackend.obj
 0002:0000b81c       ??_C@_1DK@NMBDDNFN@?$AA?4?$AA?4?$AA?2?$AAs?$AAr?$AAc?$AA?2?$AAb?$AAa?$AAc?$AAk?$AAe?$AAn?$AAd?$AA?2?$AAP?$AAd?$AAf?$AAB?$AAa?$AAc?$AAk?$AAe?$AAn?$AAd?$AA?4?$AAc?$AAc?$AA?$AA@ 1003b81c     PdfBackend.obj
 0002:0000b858       ??_C@_1BC@KFAOGGDO@?$AA_?$AAc?$AAl?$AAo?$AAs?$AAu?$AAr?$AAe?$AA?$AA@ 1003b858     PdfBackend.obj
 0002:0000b86c       ??_C@_1DO@PEKPJEKO@?$AAs?$AAt?$AAa?$AAt?$AAu?$AAs?$AA?5?$AA?$DN?$AA?$DN?$AA?5?$AAC?$AAA?$AAI?$AAR?$AAO?$AA_?$AAS?$AAT?$AAA?$AAT?$AAU?$AAS?$AA_?$AAS?$AAU?$AAC?$AAC?$AAE?$AAS?$AAS?$AA?$AA@ 1003b86c     PdfBackend.obj
 0002:0000b8ac       ??_C@_0L@HCGIDJMC@PdfBackend?$AA@ 1003b8ac     PdfBackend.obj
 0002:0000b8b8       ??_7PdfBackend@@6B@        1003b8b8     PdfBackend.obj
 0002:0000b8d8       ??_C@_03NNPBMGBD@svg?$AA@  1003b8d8     SvgBackend.obj
 0002:0000b8dc       ??_C@_1DK@OAPAEPEK@?$AA?4?$AA?4?$AA?2?$AAs?$AAr?$AAc?$AA?2?$AAb?$AAa?$AAc?$AAk?$AAe?$AAn?$AAd?$AA?2?$AAS?$AAv?$AAg?$AAB?$AAa?$AAc?$AAk?$AAe?$AAn?$AAd?$AA?4?$AAc?$AAc?$AA?$AA@ 1003b8dc     SvgBackend.obj
 0002:0000b918       ??_C@_0L@NPKKBKFF@SvgBackend?$AA@ 1003b918     SvgBackend.obj
 0002:0000b924       ??_7SvgBackend@@6B@        1003b924     SvgBackend.obj
 0002:0000b944       ??_C@_08OMFJPINA@Backends?$AA@ 1003b944     Backends.obj
 0002:0000b950       ??_C@_1JA@JDHAKMCI@?$AAc?$AA?3?$AA?2?$AAt?$AAm?$AAp?$AA?2?$AAn?$AAo?$AAd?$AAe?$AA_?$AAm?$AAo?$AAd?$AAu?$AAl?$AAe?$AAs?$AA?2?$AAc?$AAa?$AAn?$AAv?$AAa?$AAs?$AA?2?$AAn?$AAo?$AAd?$AAe?$AA_@ 1003b950     Canvas.obj
 0002:0000b9e0       ??_C@_1FK@CBGIJHDF@?$AAv?$AAa?$AAl?$AAu?$AAe?$AA?4?$AAs?$AAi?$AAz?$AAe?$AA?$CI?$AA?$CJ?$AA?5?$AA?$DM?$AA?$DN?$AA?5?$AAI?$AAN?$AAT?$AA_?$AAM?$AAA?$AAX?$AA?5?$AA?$CG?$AA?$CG?$AA?5?$AA?$CC?$AAs?$AAt?$AAr?$AAi@ 1003b9e0     Canvas.obj
 0002:0000ba40       ??_C@_1GE@MDCFIEIJ@?$AAC?$AA?3?$AA?2?$AAt?$AAm?$AAp?$AA?2?$AAn?$AAo?$AAd?$AAe?$AA_?$AAm?$AAo?$AAd?$AAu?$AAl?$AAe?$AAs?$AA?2?$AAc?$AAa?$AAn?$AAv?$AAa?$AAs?$AA?2?$AAn?$AAo?$AAd?$AAe?$AA_@ 1003ba40     Canvas.obj
 0002:0000baa8       ??_C@_1GA@PFOOBIAG@?$AAl?$AAe?$AAn?$AAg?$AAt?$AAh?$AA?5?$AA?$DM?$AA?$DN?$AA?5?$AAi?$AAm?$AAp?$AA?3?$AA?3?$AAk?$AAM?$AAa?$AAx?$AAL?$AAe?$AAn?$AAg?$AAt?$AAh?$AA?5?$AA?$CG?$AA?$CG?$AA?5?$AA?$CC?$AAt?$AAo@ 1003baa8     Canvas.obj
 0002:0000bb08       ??_C@_1FM@LOELJOFK@?$AAs?$AAi?$AAz?$AAe?$AA?5?$AA?$DM?$AA?$DN?$AA?5?$AAi?$AAm?$AAp?$AA?3?$AA?3?$AAk?$AAM?$AAa?$AAx?$AAL?$AAe?$AAn?$AAg?$AAt?$AAh?$AA?5?$AA?$CG?$AA?$CG?$AA?5?$AA?$CC?$AAt?$AAo?$AAo?$AA?5@ 1003bb08     Canvas.obj
 0002:0000bb64       ??_C@_0BB@JPMJDPHD@nan?3makeCallback?$AA@ 1003bb64     Canvas.obj
 0002:0000bb78       ??_C@_0BC@EBHDFLHM@nan?3Callback?3Call?$AA@ 1003bb78     Canvas.obj
 0002:0000bb8c       ??_C@_05EGBLHKBN@1?44?43?$AA@ 1003bb8c     Canvas.obj
 0002:0000bb94       ??_C@_06PBIJCONE@Canvas?$AA@ 1003bb94     Canvas.obj
 0002:0000bb9c       ??_C@_08GOCDALDA@toBuffer?$AA@ 1003bb9c     Canvas.obj
 0002:0000bba8       ??_C@_0O@IOKOGJGN@streamPNGSync?$AA@ 1003bba8     Canvas.obj
 0002:0000bbb8       ??_C@_0O@OBICOFIG@streamPDFSync?$AA@ 1003bbb8     Canvas.obj
 0002:0000bbc8       ??_C@_0P@GMDNPKGK@streamJPEGSync?$AA@ 1003bbc8     Canvas.obj
 0002:0000bbd8       ??_C@_04GPMDFGEJ@type?$AA@ 1003bbd8     Canvas.obj
 0002:0000bbe0       ??_C@_06LNMIFCNI@stride?$AA@ 1003bbe0     Canvas.obj
 0002:0000bbe8       ??_C@_05IGKADHGO@width?$AA@ 1003bbe8     Canvas.obj
 0002:0000bbf0       ??_C@_06LNLHEAAG@height?$AA@ 1003bbf0     Canvas.obj
 0002:0000bbf8       ??_C@_0P@DNOOAMCM@PNG_NO_FILTERS?$AA@ 1003bbf8     Canvas.obj
 0002:0000bc08       ??_C@_0BA@NECJFJGB@PNG_FILTER_NONE?$AA@ 1003bc08     Canvas.obj
 0002:0000bc18       ??_C@_0P@ILKINAJE@PNG_FILTER_SUB?$AA@ 1003bc18     Canvas.obj
 0002:0000bc28       ??_C@_0O@PHEANGBB@PNG_FILTER_UP?$AA@ 1003bc28     Canvas.obj
 0002:0000bc38       ??_C@_0P@OIJAFJM@PNG_FILTER_AVG?$AA@ 1003bc38     Canvas.obj
 0002:0000bc48       ??_C@_0BB@EOMICOFG@PNG_FILTER_PAETH?$AA@ 1003bc48     Canvas.obj
 0002:0000bc5c       ??_C@_0BA@HBOOLNBH@PNG_ALL_FILTERS?$AA@ 1003bc5c     Canvas.obj
 0002:0000bc6c       ??_C@_0O@KCCDDIBD@_registerFont?$AA@ 1003bc6c     Canvas.obj
 0002:0000bc7c       ??_C@_0DD@NOKGMICM@Class?5constructors?5cannot?5be?5inv@ 1003bc7c     Canvas.obj
 0002:0000bcb0       ??_C@_0BC@PALKPJEA@Invalid?5arguments?$AA@ 1003bcb0     Canvas.obj
 0002:0000bcc4       ??_C@_03DGOGAGNC@raw?$AA@  1003bcc4     Canvas.obj
 0002:0000bcc8       ??_C@_01GBGANLPD@0?$AA@    1003bcc8     Canvas.obj
 0002:0000bccc       ??_C@_0DE@NKCMEFAA@Allowed?5compression?5levels?5lie?5i@ 1003bccc     Canvas.obj
 0002:0000bd00       ??_C@_0CE@KMCMNKHK@Compression?5level?5must?5be?5a?5numb@ 1003bd00     Canvas.obj
 0002:0000bd24       ??_C@_0BG@HPFBKLBE@Invalid?5filter?5value?4?$AA@ 1003bd24     Canvas.obj
 0002:0000bd3c       ??_C@_0BL@NEPODJIN@callback?5function?5required?$AA@ 1003bd3c     Canvas.obj
 0002:0000bd58       ??_C@_07JKIHKJOO@palette?$AA@ 1003bd58     Canvas.obj
 0002:0000bd60       ??_C@_0CI@BHLKFIE@Palette?5length?5must?5be?5a?5multipl@ 1003bd60     Canvas.obj
 0002:0000bd88       ??_C@_0BA@IGMJCIAO@backgroundIndex?$AA@ 1003bd88     Canvas.obj
 0002:0000bd98       ??_C@_0BC@FANAGBIP@wrong?5canvas?5type?$AA@ 1003bd98     Canvas.obj
 0002:0000bdac       ??_C@_0BF@GHANOAKO@buffer?5size?5required?$AA@ 1003bdac     Canvas.obj
 0002:0000bdc4       ??_C@_0BJ@PDCEPKC@quality?5setting?5required?$AA@ 1003bdc4     Canvas.obj
 0002:0000bde0       ??_C@_0BN@PPFPLGLE@progressive?5setting?5required?$AA@ 1003bde0     Canvas.obj
 0002:0000be00       ??_C@_0BE@BPOGMHI@Wrong?5argument?5type?$AA@ 1003be00     Canvas.obj
 0002:0000be18       ??_C@_0KD@OFKOCKPC@The?5second?5argument?5to?5registerF@ 1003be18     Canvas.obj
 0002:0000bebc       ??_C@_0BK@COFJPHCD@Could?5not?5parse?5font?5file?$AA@ 1003bebc     Canvas.obj
 0002:0000bed8       ??_C@_06NBOBHOCP@family?$AA@ 1003bed8     Canvas.obj
 0002:0000bee0       ??_C@_06CMCBKMCB@weight?$AA@ 1003bee0     Canvas.obj
 0002:0000bee8       ??_C@_05IAKJCFIM@style?$AA@ 1003bee8     Canvas.obj
 0002:0000bef0       ??_C@_06IKLLLDHL@normal?$AA@ 1003bef0     Canvas.obj
 0002:0000bef8       ??_C@_0CO@PJJOAFFD@Could?5not?5load?5font?5to?5the?5syste@ 1003bef8     Canvas.obj
 0002:0000bf28       ??_C@_06DAHKLION@italic?$AA@ 1003bf28     Canvas.obj
 0002:0000bf30       ??_C@_07PNBIOHPA@oblique?$AA@ 1003bf30     Canvas.obj
 0002:0000bf38       ??_C@_04PJDGFHHN@bold?$AA@ 1003bf38     Canvas.obj
 0002:0000bf40       ??_C@_03GNABGMEE@100?$AA@  1003bf40     Canvas.obj
 0002:0000bf44       ??_C@_03HPLEMDKK@200?$AA@  1003bf44     Canvas.obj
 0002:0000bf48       ??_C@_03MHAIKEMP@300?$AA@  1003bf48     Canvas.obj
 0002:0000bf4c       ??_C@_03FKNPJMHG@400?$AA@  1003bf4c     Canvas.obj
 0002:0000bf50       ??_C@_03OCGDPLBD@500?$AA@  1003bf50     Canvas.obj
 0002:0000bf54       ??_C@_03PANGFEPN@600?$AA@  1003bf54     Canvas.obj
 0002:0000bf58       ??_C@_03EIGKDDJI@700?$AA@  1003bf58     Canvas.obj
 0002:0000bf5c       ??_C@_03BAAJCDMO@800?$AA@  1003bf5c     Canvas.obj
 0002:0000bf60       ??_C@_03KILFEEKL@900?$AA@  1003bf60     Canvas.obj
 0002:0000bf64       ??_C@_01IHBHIGKO@?0?$AA@   1003bf64     Canvas.obj
 0002:0000bf68       ??_C@_07JKKCBBMM@context?$AA@ 1003bf68     Canvas.obj
 0002:0000bf70       ??_C@_1IM@BCNBGGGJ@?$AAc?$AA?3?$AA?2?$AAt?$AAm?$AAp?$AA?2?$AAn?$AAo?$AAd?$AAe?$AA_?$AAm?$AAo?$AAd?$AAu?$AAl?$AAe?$AAs?$AA?2?$AAc?$AAa?$AAn?$AAv?$AAa?$AAs?$AA?2?$AAn?$AAo?$AAd?$AAe?$AA_@ 1003bf70     Canvas.obj
 0002:0000c000       ??_C@_1GK@KNJIIFLH@?$AAr?$AAe?$AAi?$AAn?$AAt?$AAe?$AAr?$AAp?$AAr?$AAe?$AAt?$AA_?$AAc?$AAa?$AAs?$AAt?$AA?$DM?$AAu?$AAi?$AAn?$AAt?$AAp?$AAt?$AAr?$AA_?$AAt?$AA?$DO?$AA?$CI?$AAd?$AAa?$AAt?$AAa@ 1003c000     Canvas.obj
 0002:0000c06c       ??_C@_0BD@OLBABOEK@vector?$DMT?$DO?5too?5long?$AA@ 1003c06c     Canvas.obj
 0002:0000c080       ??_C@_1CE@LNAGEONJ@?$AA?$CB?$AAo?$AAb?$AAj?$AAe?$AAc?$AAt?$AA?4?$AAI?$AAs?$AAE?$AAm?$AAp?$AAt?$AAy?$AA?$CI?$AA?$CJ?$AA?$AA@ 1003c080     Canvas.obj
 0002:0000c0a4       ??_7Canvas@@6B@            1003c0a4     Canvas.obj
 0002:0000c0b0       ??_C@_0P@CKNMLMDB@CanvasGradient?$AA@ 1003c0b0     CanvasGradient.obj
 0002:0000c0c0       ??_C@_0N@FFOKKILE@addColorStop?$AA@ 1003c0c0     CanvasGradient.obj
 0002:0000c0d0       ??_C@_0BC@KNPMEBHA@invalid?5arguments?$AA@ 1003c0d0     CanvasGradient.obj
 0002:0000c0e4       ??_C@_0BA@ELGKPKEI@offset?5required?$AA@ 1003c0e4     CanvasGradient.obj
 0002:0000c0f4       ??_C@_0BG@HHHCEBEM@color?5string?5required?$AA@ 1003c0f4     CanvasGradient.obj
 0002:0000c10c       ??_C@_0BD@JKDEPLNJ@parse?5color?5failed?$AA@ 1003c10c     CanvasGradient.obj
 0002:0000c120       ??_7Gradient@@6B@          1003c120     CanvasGradient.obj
 0002:0000c12c       ??_C@_0O@KEPDKAFI@CanvasPattern?$AA@ 1003c12c     CanvasPattern.obj
 0002:0000c13c       ??_C@_0CG@CKGIHBBA@Image?5given?5has?5not?5completed?5lo@ 1003c13c     CanvasPattern.obj
 0002:0000c164       ??_C@_0BJ@NBALILEB@Image?5or?5Canvas?5expected?$AA@ 1003c164     CanvasPattern.obj
 0002:0000c180       ??_C@_09OGFADPEI@no?9repeat?$AA@ 1003c180     CanvasPattern.obj
 0002:0000c18c       ??_C@_08HMIFKPGE@repeat?9x?$AA@ 1003c18c     CanvasPattern.obj
 0002:0000c198       ??_C@_08GFJOJOCF@repeat?9y?$AA@ 1003c198     CanvasPattern.obj
 0002:0000c1a4       ??_7Pattern@@6B@           1003c1a4     CanvasPattern.obj
 0002:0000c1b0       ??_C@_0BJ@HOMNLOJF@CanvasRenderingContext2D?$AA@ 1003c1b0     CanvasRenderingContext2d.obj
 0002:0000c1cc       ??_C@_09LANPKMCJ@drawImage?$AA@ 1003c1cc     CanvasRenderingContext2d.obj
 0002:0000c1d8       ??_C@_0N@HMHAOANH@putImageData?$AA@ 1003c1d8     CanvasRenderingContext2d.obj
 0002:0000c1e8       ??_C@_0N@LJBMKNKJ@getImageData?$AA@ 1003c1e8     CanvasRenderingContext2d.obj
 0002:0000c1f8       ??_C@_07IEJLLIOD@addPage?$AA@ 1003c1f8     CanvasRenderingContext2d.obj
 0002:0000c200       ??_C@_04EMMDIJJL@save?$AA@ 1003c200     CanvasRenderingContext2d.obj
 0002:0000c208       ??_C@_07HICINA@restore?$AA@ 1003c208     CanvasRenderingContext2d.obj
 0002:0000c210       ??_C@_06CEHMNFAL@rotate?$AA@ 1003c210     CanvasRenderingContext2d.obj
 0002:0000c218       ??_C@_09ODNGOEIO@translate?$AA@ 1003c218     CanvasRenderingContext2d.obj
 0002:0000c224       ??_C@_09IFONHNKG@transform?$AA@ 1003c224     CanvasRenderingContext2d.obj
 0002:0000c230       ??_C@_0P@KBHJLFLN@resetTransform?$AA@ 1003c230     CanvasRenderingContext2d.obj
 0002:0000c240       ??_C@_0O@MDNHBEAB@isPointInPath?$AA@ 1003c240     CanvasRenderingContext2d.obj
 0002:0000c250       ??_C@_05MHMEBBGO@scale?$AA@ 1003c250     CanvasRenderingContext2d.obj
 0002:0000c258       ??_C@_04POIGMEJN@clip?$AA@ 1003c258     CanvasRenderingContext2d.obj
 0002:0000c260       ??_C@_04OBAECEGJ@fill?$AA@ 1003c260     CanvasRenderingContext2d.obj
 0002:0000c268       ??_C@_06JDPPEKDJ@stroke?$AA@ 1003c268     CanvasRenderingContext2d.obj
 0002:0000c270       ??_C@_08BKNBKKHP@fillText?$AA@ 1003c270     CanvasRenderingContext2d.obj
 0002:0000c27c       ??_C@_0L@NKNGGLJB@strokeText?$AA@ 1003c27c     CanvasRenderingContext2d.obj
 0002:0000c288       ??_C@_08IFOCBDEO@fillRect?$AA@ 1003c288     CanvasRenderingContext2d.obj
 0002:0000c294       ??_C@_0L@EFOFNCKA@strokeRect?$AA@ 1003c294     CanvasRenderingContext2d.obj
 0002:0000c2a0       ??_C@_09CADLENBP@clearRect?$AA@ 1003c2a0     CanvasRenderingContext2d.obj
 0002:0000c2ac       ??_C@_04LHPFHFPH@rect?$AA@ 1003c2ac     CanvasRenderingContext2d.obj
 0002:0000c2b4       ??_C@_0M@PDPLNFGN@measureText?$AA@ 1003c2b4     CanvasRenderingContext2d.obj
 0002:0000c2c0       ??_C@_06ICOKFDHB@moveTo?$AA@ 1003c2c0     CanvasRenderingContext2d.obj
 0002:0000c2c8       ??_C@_06KCFEGHJL@lineTo?$AA@ 1003c2c8     CanvasRenderingContext2d.obj
 0002:0000c2d0       ??_C@_0O@PAEGDEKM@bezierCurveTo?$AA@ 1003c2d0     CanvasRenderingContext2d.obj
 0002:0000c2e0       ??_C@_0BB@NNCDNEFE@quadraticCurveTo?$AA@ 1003c2e0     CanvasRenderingContext2d.obj
 0002:0000c2f4       ??_C@_09GMDIDHBP@beginPath?$AA@ 1003c2f4     CanvasRenderingContext2d.obj
 0002:0000c300       ??_C@_09FFNFMCIM@closePath?$AA@ 1003c300     CanvasRenderingContext2d.obj
 0002:0000c30c       ??_C@_03EEIEDENP@arc?$AA@  1003c30c     CanvasRenderingContext2d.obj
 0002:0000c310       ??_C@_05KOMEJIOF@arcTo?$AA@ 1003c310     CanvasRenderingContext2d.obj
 0002:0000c318       ??_C@_07IANGJLLC@ellipse?$AA@ 1003c318     CanvasRenderingContext2d.obj
 0002:0000c320       ??_C@_0M@KIBHMOJH@setLineDash?$AA@ 1003c320     CanvasRenderingContext2d.obj
 0002:0000c32c       ??_C@_0M@KHAJBIBE@getLineDash?$AA@ 1003c32c     CanvasRenderingContext2d.obj
 0002:0000c338       ??_C@_08GCBDMPHE@_setFont?$AA@ 1003c338     CanvasRenderingContext2d.obj
 0002:0000c344       ??_C@_0O@LDAFEHIB@_setFillColor?$AA@ 1003c344     CanvasRenderingContext2d.obj
 0002:0000c354       ??_C@_0BA@KNEOHGAJ@_setStrokeColor?$AA@ 1003c354     CanvasRenderingContext2d.obj
 0002:0000c364       ??_C@_0BA@PBFLDAPN@_setFillPattern?$AA@ 1003c364     CanvasRenderingContext2d.obj
 0002:0000c374       ??_C@_0BC@FDNPDMMP@_setStrokePattern?$AA@ 1003c374     CanvasRenderingContext2d.obj
 0002:0000c388       ??_C@_0BB@CFGDFFJO@_setTextBaseline?$AA@ 1003c388     CanvasRenderingContext2d.obj
 0002:0000c39c       ??_C@_0BC@FPEBGOFB@_setTextAlignment?$AA@ 1003c39c     CanvasRenderingContext2d.obj
 0002:0000c3b0       ??_C@_0L@PJBLMGHG@_getMatrix?$AA@ 1003c3b0     CanvasRenderingContext2d.obj
 0002:0000c3bc       ??_C@_0M@GJLGNIPC@pixelFormat?$AA@ 1003c3bc     CanvasRenderingContext2d.obj
 0002:0000c3c8       ??_C@_0P@HGKACBEG@patternQuality?$AA@ 1003c3c8     CanvasRenderingContext2d.obj
 0002:0000c3d8       ??_C@_0BJ@KOAEPHEF@globalCompositeOperation?$AA@ 1003c3d8     CanvasRenderingContext2d.obj
 0002:0000c3f4       ??_C@_0M@EJNLOLOE@globalAlpha?$AA@ 1003c3f4     CanvasRenderingContext2d.obj
 0002:0000c400       ??_C@_0M@JPJLLJDB@shadowColor?$AA@ 1003c400     CanvasRenderingContext2d.obj
 0002:0000c40c       ??_C@_09EGMCAAKI@fillColor?$AA@ 1003c40c     CanvasRenderingContext2d.obj
 0002:0000c418       ??_C@_0M@BLAMIBG@strokeColor?$AA@ 1003c418     CanvasRenderingContext2d.obj
 0002:0000c424       ??_C@_0L@EFNIPLDK@miterLimit?$AA@ 1003c424     CanvasRenderingContext2d.obj
 0002:0000c430       ??_C@_09PELAPJEH@lineWidth?$AA@ 1003c430     CanvasRenderingContext2d.obj
 0002:0000c43c       ??_C@_07IPBACFHB@lineCap?$AA@ 1003c43c     CanvasRenderingContext2d.obj
 0002:0000c444       ??_C@_08CCMLJKBL@lineJoin?$AA@ 1003c444     CanvasRenderingContext2d.obj
 0002:0000c450       ??_C@_0P@NNEFDNMM@lineDashOffset?$AA@ 1003c450     CanvasRenderingContext2d.obj
 0002:0000c460       ??_C@_0O@FOAIOCIO@shadowOffsetX?$AA@ 1003c460     CanvasRenderingContext2d.obj
 0002:0000c470       ??_C@_0O@EHBDNDMP@shadowOffsetY?$AA@ 1003c470     CanvasRenderingContext2d.obj
 0002:0000c480       ??_C@_0L@FJBIPGOL@shadowBlur?$AA@ 1003c480     CanvasRenderingContext2d.obj
 0002:0000c48c       ??_C@_09BEIGEBLF@antialias?$AA@ 1003c48c     CanvasRenderingContext2d.obj
 0002:0000c498       ??_C@_0BA@GALDJJKL@textDrawingMode?$AA@ 1003c498     CanvasRenderingContext2d.obj
 0002:0000c4a8       ??_C@_06EOIELIPE@filter?$AA@ 1003c4a8     CanvasRenderingContext2d.obj
 0002:0000c4b0       ??_C@_0BJ@OLEJJKDH@CanvasRenderingContext2d?$AA@ 1003c4b0     CanvasRenderingContext2d.obj
 0002:0000c4cc       ??_C@_0L@NNKNDDLN@sans?5serif?$AA@ 1003c4cc     CanvasRenderingContext2d.obj
 0002:0000c4d8       ??_C@_0BJ@MMHEOABP@Unexpected?5gradient?5type?$AA@ 1003c4d8     CanvasRenderingContext2d.obj
 0002:0000c4f4       ??_C@_0BN@FEKPFJFP@Failed?5to?5initialize?5context?$AA@ 1003c4f4     CanvasRenderingContext2d.obj
 0002:0000c514       ??_C@_07NOFPBGJH@evenodd?$AA@ 1003c514     CanvasRenderingContext2d.obj
 0002:0000c51c       ??_C@_0BA@IBFIJLCO@Canvas?5expected?$AA@ 1003c51c     CanvasRenderingContext2d.obj
 0002:0000c52c       ??_C@_06OECNJAC@RGBA32?$AA@ 1003c52c     CanvasRenderingContext2d.obj
 0002:0000c534       ??_C@_05EIHACBEG@RGB24?$AA@ 1003c534     CanvasRenderingContext2d.obj
 0002:0000c53c       ??_C@_02GGHJHNOB@A8?$AA@   1003c53c     CanvasRenderingContext2d.obj
 0002:0000c540       ??_C@_09FDIJCLOJ@RGB16_565?$AA@ 1003c540     CanvasRenderingContext2d.obj
 0002:0000c54c       ??_C@_02LHLLMGKI@A1?$AA@   1003c54c     CanvasRenderingContext2d.obj
 0002:0000c550       ??_C@_05IAEKHIAN@alpha?$AA@ 1003c550     CanvasRenderingContext2d.obj
 0002:0000c558       ??_C@_0CG@EHLCPGGB@only?5PDF?5canvases?5support?5?4nextP@ 1003c558     CanvasRenderingContext2d.obj
 0002:0000c580       ??_C@_0BD@DJPHEEKJ@ImageData?5expected?$AA@ 1003c580     CanvasRenderingContext2d.obj
 0002:0000c594       ??_C@_0DJ@CKCCPANE@putImageData?5for?5CANVAS_FORMAT_A@ 1003c594     CanvasRenderingContext2d.obj
 0002:0000c5d0       ??_C@_0BF@EKHJHFGA@Invalid?5pixel?5format?$AA@ 1003c5d0     CanvasRenderingContext2d.obj
 0002:0000c5e8       ??_C@_0CH@NDMGIAMG@IndexSizeError?3?5The?5source?5width@ 1003c5e8     CanvasRenderingContext2d.obj
 0002:0000c610       ??_C@_0CI@HDADGBDO@IndexSizeError?3?5The?5source?5heigh@ 1003c610     CanvasRenderingContext2d.obj
 0002:0000c638       ??_C@_0DJ@DCIKNENI@getImageData?5for?5CANVAS_FORMAT_A@ 1003c638     CanvasRenderingContext2d.obj
 0002:0000c674       ??_C@_0CD@KMCHNGIG@Expected?5object?0?5number?5and?5numb@ 1003c674     CanvasRenderingContext2d.obj
 0002:0000c698       ??_C@_0M@OABMHCHE@source?9over?$AA@ 1003c698     CanvasRenderingContext2d.obj
 0002:0000c6a4       ??_C@_0M@MKIEODMK@source?9atop?$AA@ 1003c6a4     CanvasRenderingContext2d.obj
 0002:0000c6b0       ??_C@_09CMAEPNDN@source?9in?$AA@ 1003c6b0     CanvasRenderingContext2d.obj
 0002:0000c6bc       ??_C@_0L@CGAPOHFD@source?9out?$AA@ 1003c6bc     CanvasRenderingContext2d.obj
 0002:0000c6c8       ??_C@_03COLCDPPJ@xor?$AA@  1003c6c8     CanvasRenderingContext2d.obj
 0002:0000c6cc       ??_C@_0BB@CPBJJEG@destination?9atop?$AA@ 1003c6cc     CanvasRenderingContext2d.obj
 0002:0000c6e0       ??_C@_0P@GAHJLNBO@destination?9in?$AA@ 1003c6e0     CanvasRenderingContext2d.obj
 0002:0000c6f0       ??_C@_0BA@IECEOLGB@destination?9out?$AA@ 1003c6f0     CanvasRenderingContext2d.obj
 0002:0000c700       ??_C@_0BB@CIGJAIPI@destination?9over?$AA@ 1003c700     CanvasRenderingContext2d.obj
 0002:0000c714       ??_C@_05MEHLAELG@clear?$AA@ 1003c714     CanvasRenderingContext2d.obj
 0002:0000c71c       ??_C@_06OEKOLKIL@source?$AA@ 1003c71c     CanvasRenderingContext2d.obj
 0002:0000c724       ??_C@_04EEHDLEKF@dest?$AA@ 1003c724     CanvasRenderingContext2d.obj
 0002:0000c72c       ??_C@_04DPPOAFIB@over?$AA@ 1003c72c     CanvasRenderingContext2d.obj
 0002:0000c734       ??_C@_08MEKLKAIJ@saturate?$AA@ 1003c734     CanvasRenderingContext2d.obj
 0002:0000c740       ??_C@_07OODLOHBD@lighten?$AA@ 1003c740     CanvasRenderingContext2d.obj
 0002:0000c748       ??_C@_03BDGOHNNK@add?$AA@  1003c748     CanvasRenderingContext2d.obj
 0002:0000c74c       ??_C@_06OCOCEFJK@darker?$AA@ 1003c74c     CanvasRenderingContext2d.obj
 0002:0000c754       ??_C@_08MMOCDOEL@multiply?$AA@ 1003c754     CanvasRenderingContext2d.obj
 0002:0000c760       ??_C@_06LPLGMLP@screen?$AA@ 1003c760     CanvasRenderingContext2d.obj
 0002:0000c768       ??_C@_07BJNHBMF@overlay?$AA@ 1003c768     CanvasRenderingContext2d.obj
 0002:0000c770       ??_C@_0L@CEKGHIKD@hard?9light?$AA@ 1003c770     CanvasRenderingContext2d.obj
 0002:0000c77c       ??_C@_0L@DKCPCJMJ@soft?9light?$AA@ 1003c77c     CanvasRenderingContext2d.obj
 0002:0000c788       ??_C@_07LGBGJPAP@hsl?9hue?$AA@ 1003c788     CanvasRenderingContext2d.obj
 0002:0000c790       ??_C@_0P@HLIOCFIP@hsl?9saturation?$AA@ 1003c790     CanvasRenderingContext2d.obj
 0002:0000c7a0       ??_C@_09IEDFIDAP@hsl?9color?$AA@ 1003c7a0     CanvasRenderingContext2d.obj
 0002:0000c7ac       ??_C@_0P@HOBGGHID@hsl?9luminosity?$AA@ 1003c7ac     CanvasRenderingContext2d.obj
 0002:0000c7bc       ??_C@_0M@HJIFAOGP@color?9dodge?$AA@ 1003c7bc     CanvasRenderingContext2d.obj
 0002:0000c7c8       ??_C@_0L@BNODHIAO@color?9burn?$AA@ 1003c7c8     CanvasRenderingContext2d.obj
 0002:0000c7d4       ??_C@_0L@CHCOIIBP@difference?$AA@ 1003c7d4     CanvasRenderingContext2d.obj
 0002:0000c7e0       ??_C@_09GJPEMMGJ@exclusion?$AA@ 1003c7e0     CanvasRenderingContext2d.obj
 0002:0000c7ec       ??_C@_04LBNBHAJC@fast?$AA@ 1003c7ec     CanvasRenderingContext2d.obj
 0002:0000c7f4       ??_C@_04DDJAGGFE@good?$AA@ 1003c7f4     CanvasRenderingContext2d.obj
 0002:0000c7fc       ??_C@_04MLDDEBAF@best?$AA@ 1003c7fc     CanvasRenderingContext2d.obj
 0002:0000c804       ??_C@_07NHJEPDMH@nearest?$AA@ 1003c804     CanvasRenderingContext2d.obj
 0002:0000c80c       ??_C@_08LJMMPFJO@bilinear?$AA@ 1003c80c     CanvasRenderingContext2d.obj
 0002:0000c818       ??_C@_07IEMLKEO@lighter?$AA@ 1003c818     CanvasRenderingContext2d.obj
 0002:0000c820       ??_C@_04CGFJFPFD@none?$AA@ 1003c820     CanvasRenderingContext2d.obj
 0002:0000c828       ??_C@_04GEBBKIAA@gray?$AA@ 1003c828     CanvasRenderingContext2d.obj
 0002:0000c830       ??_C@_08JOJOGLJH@subpixel?$AA@ 1003c830     CanvasRenderingContext2d.obj
 0002:0000c83c       ??_C@_07DLHCIBDH@default?$AA@ 1003c83c     CanvasRenderingContext2d.obj
 0002:0000c844       ??_C@_04LNEJFJGI@path?$AA@ 1003c844     CanvasRenderingContext2d.obj
 0002:0000c84c       ??_C@_05OIOMJNBL@glyph?$AA@ 1003c84c     CanvasRenderingContext2d.obj
 0002:0000c854       ??_C@_05JDNDNKBA@bevel?$AA@ 1003c854     CanvasRenderingContext2d.obj
 0002:0000c85c       ??_C@_05MIMAKCN@round?$AA@ 1003c85c     CanvasRenderingContext2d.obj
 0002:0000c864       ??_C@_05NJDNHCJA@miter?$AA@ 1003c864     CanvasRenderingContext2d.obj
 0002:0000c86c       ??_C@_06ICDKOIFG@square?$AA@ 1003c86c     CanvasRenderingContext2d.obj
 0002:0000c874       ??_C@_04JOGFAABP@butt?$AA@ 1003c874     CanvasRenderingContext2d.obj
 0002:0000c87c       ??_C@_0BN@MEBGIMHG@Gradient?5or?5Pattern?5expected?$AA@ 1003c87c     CanvasRenderingContext2d.obj
 0002:0000c89c       ??_C@_0BM@CKBGKGDN@lineTo?$CI?$CJ?5x?5must?5be?5a?5number?$AA@ 1003c89c     CanvasRenderingContext2d.obj
 0002:0000c8b8       ??_C@_0BM@PNPECGGF@lineTo?$CI?$CJ?5y?5must?5be?5a?5number?$AA@ 1003c8b8     CanvasRenderingContext2d.obj
 0002:0000c8d4       ??_C@_0BM@GIIBHACD@moveTo?$CI?$CJ?5x?5must?5be?5a?5number?$AA@ 1003c8d4     CanvasRenderingContext2d.obj
 0002:0000c8f0       ??_C@_0BM@LPGDPAHL@moveTo?$CI?$CJ?5y?5must?5be?5a?5number?$AA@ 1003c8f0     CanvasRenderingContext2d.obj
 0002:0000c90c       ??_C@_0BG@IGICBKHO@actualBoundingBoxLeft?$AA@ 1003c90c     CanvasRenderingContext2d.obj
 0002:0000c924       ??_C@_0BH@KNMENBEI@actualBoundingBoxRight?$AA@ 1003c924     CanvasRenderingContext2d.obj
 0002:0000c93c       ??_C@_0BI@NBNJEOJE@actualBoundingBoxAscent?$AA@ 1003c93c     CanvasRenderingContext2d.obj
 0002:0000c954       ??_C@_0BJ@LKCIMDON@actualBoundingBoxDescent?$AA@ 1003c954     CanvasRenderingContext2d.obj
 0002:0000c970       ??_C@_0P@FGHEPLGI@emHeightAscent?$AA@ 1003c970     CanvasRenderingContext2d.obj
 0002:0000c980       ??_C@_0BA@OKENAGP@emHeightDescent?$AA@ 1003c980     CanvasRenderingContext2d.obj
 0002:0000c990       ??_C@_0BD@NGFBNEGE@alphabeticBaseline?$AA@ 1003c990     CanvasRenderingContext2d.obj
 0002:0000c9a4       ??_7Context2d@@6B@         1003c9a4     CanvasRenderingContext2d.obj
 0002:0000ce60       ___pfnDliNotifyHook2       1003ce60     win_delay_load_hook.obj
 0002:0000ce64       ??_C@_0M@CEEDCJLA@transparent?$AA@ 1003ce64     color.obj
 0002:0000ce70       ??_C@_09GNHGKALJ@aliceblue?$AA@ 1003ce70     color.obj
 0002:0000ce7c       ??_C@_0N@OJFLMGEJ@antiquewhite?$AA@ 1003ce7c     color.obj
 0002:0000ce8c       ??_C@_04GANAGBLL@aqua?$AA@ 1003ce8c     color.obj
 0002:0000ce94       ??_C@_0L@MOKEMMG@aquamarine?$AA@ 1003ce94     color.obj
 0002:0000cea0       ??_C@_05CNOJAJLP@azure?$AA@ 1003cea0     color.obj
 0002:0000cea8       ??_C@_05EJOPPCPO@beige?$AA@ 1003cea8     color.obj
 0002:0000ceb0       ??_C@_06HGAAELGA@bisque?$AA@ 1003ceb0     color.obj
 0002:0000ceb8       ??_C@_05BIMBDNDC@black?$AA@ 1003ceb8     color.obj
 0002:0000cec0       ??_C@_0P@CMCBOAOE@blanchedalmond?$AA@ 1003cec0     color.obj
 0002:0000ced0       ??_C@_04OBGPFBCN@blue?$AA@ 1003ced0     color.obj
 0002:0000ced8       ??_C@_0L@LKLKALMM@blueviolet?$AA@ 1003ced8     color.obj
 0002:0000cee4       ??_C@_05EBJGJMAL@brown?$AA@ 1003cee4     color.obj
 0002:0000ceec       ??_C@_09JHLANABP@burlywood?$AA@ 1003ceec     color.obj
 0002:0000cef8       ??_C@_09KIJDGGAG@cadetblue?$AA@ 1003cef8     color.obj
 0002:0000cf04       ??_C@_0L@CHNAEACO@chartreuse?$AA@ 1003cf04     color.obj
 0002:0000cf10       ??_C@_09BPADAHOC@chocolate?$AA@ 1003cf10     color.obj
 0002:0000cf1c       ??_C@_05JKFECOJP@coral?$AA@ 1003cf1c     color.obj
 0002:0000cf24       ??_C@_0P@KLMOGGLK@cornflowerblue?$AA@ 1003cf24     color.obj
 0002:0000cf34       ??_C@_08DECOJLB@cornsilk?$AA@ 1003cf34     color.obj
 0002:0000cf40       ??_C@_07DAGIGOOE@crimson?$AA@ 1003cf40     color.obj
 0002:0000cf48       ??_C@_04EDBDANFH@cyan?$AA@ 1003cf48     color.obj
 0002:0000cf50       ??_C@_08MFEOPMII@darkblue?$AA@ 1003cf50     color.obj
 0002:0000cf5c       ??_C@_08GHDCKAPC@darkcyan?$AA@ 1003cf5c     color.obj
 0002:0000cf68       ??_C@_0O@GGJPBKNE@darkgoldenrod?$AA@ 1003cf68     color.obj
 0002:0000cf78       ??_C@_08EADAAFKF@darkgray?$AA@ 1003cf78     color.obj
 0002:0000cf84       ??_C@_09MHNMOMAI@darkgreen?$AA@ 1003cf84     color.obj
 0002:0000cf90       ??_C@_08EHDJKNHJ@darkgrey?$AA@ 1003cf90     color.obj
 0002:0000cf9c       ??_C@_09FAPDIPMK@darkkhaki?$AA@ 1003cf9c     color.obj
 0002:0000cfa8       ??_C@_0M@MEEFECHN@darkmagenta?$AA@ 1003cfa8     color.obj
 0002:0000cfb4       ??_C@_0P@BGCLDNDK@darkolivegreen?$AA@ 1003cfb4     color.obj
 0002:0000cfc4       ??_C@_0L@ICJJPBF@darkorange?$AA@ 1003cfc4     color.obj
 0002:0000cfd0       ??_C@_0L@EEAHIPOC@darkorchid?$AA@ 1003cfd0     color.obj
 0002:0000cfdc       ??_C@_07MFAOOMGP@darkred?$AA@ 1003cfdc     color.obj
 0002:0000cfe4       ??_C@_0L@CKNHPKLG@darksalmon?$AA@ 1003cfe4     color.obj
 0002:0000cff0       ??_C@_0N@FBOCOPGH@darkseagreen?$AA@ 1003cff0     color.obj
 0002:0000d000       ??_C@_0O@PABAFENG@darkslateblue?$AA@ 1003d000     color.obj
 0002:0000d010       ??_C@_0O@HFGOKNPL@darkslategray?$AA@ 1003d010     color.obj
 0002:0000d020       ??_C@_0O@HCGHAFCH@darkslategrey?$AA@ 1003d020     color.obj
 0002:0000d030       ??_C@_0O@HKLGOIEA@darkturquoise?$AA@ 1003d030     color.obj
 0002:0000d040       ??_C@_0L@NGBKDFME@darkviolet?$AA@ 1003d040     color.obj
 0002:0000d04c       ??_C@_08CJGCPHKF@deeppink?$AA@ 1003d04c     color.obj
 0002:0000d058       ??_C@_0M@BGGBNDNG@deepskyblue?$AA@ 1003d058     color.obj
 0002:0000d064       ??_C@_07DJPEDLIH@dimgray?$AA@ 1003d064     color.obj
 0002:0000d06c       ??_C@_07DOPNJDFL@dimgrey?$AA@ 1003d06c     color.obj
 0002:0000d074       ??_C@_0L@MIOOBLBJ@dodgerblue?$AA@ 1003d074     color.obj
 0002:0000d080       ??_C@_09ELCPEDIM@firebrick?$AA@ 1003d080     color.obj
 0002:0000d08c       ??_C@_0M@FFMCAIP@floralwhite?$AA@ 1003d08c     color.obj
 0002:0000d098       ??_C@_0M@HBKAKFBN@forestgreen?$AA@ 1003d098     color.obj
 0002:0000d0a4       ??_C@_07FHEBJCGF@fuchsia?$AA@ 1003d0a4     color.obj
 0002:0000d0ac       ??_C@_09MIGKOGAO@gainsboro?$AA@ 1003d0ac     color.obj
 0002:0000d0b8       ??_C@_0L@CELMEDAA@ghostwhite?$AA@ 1003d0b8     color.obj
 0002:0000d0c4       ??_C@_04DBNGNIAN@gold?$AA@ 1003d0c4     color.obj
 0002:0000d0cc       ??_C@_09KJDOAGJL@goldenrod?$AA@ 1003d0cc     color.obj
 0002:0000d0d8       ??_C@_05GBEEJKMC@green?$AA@ 1003d0d8     color.obj
 0002:0000d0e0       ??_C@_0M@LFPLFELJ@greenyellow?$AA@ 1003d0e0     color.obj
 0002:0000d0ec       ??_C@_04GDBIAANM@grey?$AA@ 1003d0ec     color.obj
 0002:0000d0f4       ??_C@_08BKNCNHLL@honeydew?$AA@ 1003d0f4     color.obj
 0002:0000d100       ??_C@_07PCCOEED@hotpink?$AA@ 1003d100     color.obj
 0002:0000d108       ??_C@_09IELIJPNO@indianred?$AA@ 1003d108     color.obj
 0002:0000d114       ??_C@_06MLCCIEFE@indigo?$AA@ 1003d114     color.obj
 0002:0000d11c       ??_C@_05NNJJIMHF@ivory?$AA@ 1003d11c     color.obj
 0002:0000d124       ??_C@_05PGGLPJAA@khaki?$AA@ 1003d124     color.obj
 0002:0000d12c       ??_C@_08KJDCPJPL@lavender?$AA@ 1003d12c     color.obj
 0002:0000d138       ??_C@_0O@CCCMFNCK@lavenderblush?$AA@ 1003d138     color.obj
 0002:0000d148       ??_C@_09MONDINDP@lawngreen?$AA@ 1003d148     color.obj
 0002:0000d154       ??_C@_0N@ICDCAEHK@lemonchiffon?$AA@ 1003d154     color.obj
 0002:0000d164       ??_C@_09NBIPJLA@lightblue?$AA@ 1003d164     color.obj
 0002:0000d170       ??_C@_0L@BEAGLGMO@lightcoral?$AA@ 1003d170     color.obj
 0002:0000d17c       ??_C@_09KPGEKFMK@lightcyan?$AA@ 1003d17c     color.obj
 0002:0000d188       ??_C@_0BF@PJADCIND@lightgoldenrodyellow?$AA@ 1003d188     color.obj
 0002:0000d1a0       ??_C@_09IIGGAAJN@lightgray?$AA@ 1003d1a0     color.obj
 0002:0000d1ac       ??_C@_0L@OPBGACJD@lightgreen?$AA@ 1003d1ac     color.obj
 0002:0000d1b8       ??_C@_09IPGPKIEB@lightgrey?$AA@ 1003d1b8     color.obj
 0002:0000d1c4       ??_C@_09KOBGKMHP@lightpink?$AA@ 1003d1c4     color.obj
 0002:0000d1d0       ??_C@_0M@ENCCHKJE@lightsalmon?$AA@ 1003d1d0     color.obj
 0002:0000d1dc       ??_C@_0O@BLOIENJC@lightseagreen?$AA@ 1003d1dc     color.obj
 0002:0000d1ec       ??_C@_0N@JIFIFCAN@lightskyblue?$AA@ 1003d1ec     color.obj
 0002:0000d1fc       ??_C@_0P@LIPDKBMK@lightslategray?$AA@ 1003d1fc     color.obj
 0002:0000d20c       ??_C@_0P@LPPKAJBG@lightslategrey?$AA@ 1003d20c     color.obj
 0002:0000d21c       ??_C@_0P@EIHJHAMG@lightsteelblue?$AA@ 1003d21c     color.obj
 0002:0000d22c       ??_C@_0M@FBHPKJLB@lightyellow?$AA@ 1003d22c     color.obj
 0002:0000d238       ??_C@_04HLLEONLG@lime?$AA@ 1003d238     color.obj
 0002:0000d240       ??_C@_09JKHHFGDO@limegreen?$AA@ 1003d240     color.obj
 0002:0000d24c       ??_C@_05MLLCELJD@linen?$AA@ 1003d24c     color.obj
 0002:0000d254       ??_C@_07EMDGAPCI@magenta?$AA@ 1003d254     color.obj
 0002:0000d25c       ??_C@_06BDPIEPJF@maroon?$AA@ 1003d25c     color.obj
 0002:0000d264       ??_C@_0BB@HHCOFKIC@mediumaquamarine?$AA@ 1003d264     color.obj
 0002:0000d278       ??_C@_0L@CEFFILOH@mediumblue?$AA@ 1003d278     color.obj
 0002:0000d284       ??_C@_0N@GIADPNAO@mediumorchid?$AA@ 1003d284     color.obj
 0002:0000d294       ??_C@_0N@DDGNBDHJ@mediumpurple?$AA@ 1003d294     color.obj
 0002:0000d2a4       ??_C@_0P@BNCCGPJD@mediumseagreen?$AA@ 1003d2a4     color.obj
 0002:0000d2b4       ??_C@_0BA@EKIMKCFD@mediumslateblue?$AA@ 1003d2b4     color.obj
 0002:0000d2c4       ??_C@_0BC@POGDBPNO@mediumspringgreen?$AA@ 1003d2c4     color.obj
 0002:0000d2d8       ??_C@_0BA@MACKBOMF@mediumturquoise?$AA@ 1003d2d8     color.obj
 0002:0000d2e8       ??_C@_0BA@PNNCDMHM@mediumvioletred?$AA@ 1003d2e8     color.obj
 0002:0000d2f8       ??_C@_0N@PJDKAOHK@midnightblue?$AA@ 1003d2f8     color.obj
 0002:0000d308       ??_C@_09INCGBEJA@mintcream?$AA@ 1003d308     color.obj
 0002:0000d314       ??_C@_09HABDAMOF@mistyrose?$AA@ 1003d314     color.obj
 0002:0000d320       ??_C@_08OIIPPDDA@moccasin?$AA@ 1003d320     color.obj
 0002:0000d32c       ??_C@_0M@OKLAMJCL@navajowhite?$AA@ 1003d32c     color.obj
 0002:0000d338       ??_C@_04DCMEIHPF@navy?$AA@ 1003d338     color.obj
 0002:0000d340       ??_C@_07MBCGBJON@oldlace?$AA@ 1003d340     color.obj
 0002:0000d348       ??_C@_05OFIFEKBG@olive?$AA@ 1003d348     color.obj
 0002:0000d350       ??_C@_09CNLBGLAE@olivedrab?$AA@ 1003d350     color.obj
 0002:0000d35c       ??_C@_06HDDOCMMN@orange?$AA@ 1003d35c     color.obj
 0002:0000d364       ??_C@_09OPJMLMBK@orangered?$AA@ 1003d364     color.obj
 0002:0000d370       ??_C@_06DPBADMDK@orchid?$AA@ 1003d370     color.obj
 0002:0000d378       ??_C@_0O@KONOLMEH@palegoldenrod?$AA@ 1003d378     color.obj
 0002:0000d388       ??_C@_09NAJHJFNO@palegreen?$AA@ 1003d388     color.obj
 0002:0000d394       ??_C@_0O@LCPHEOND@paleturquoise?$AA@ 1003d394     color.obj
 0002:0000d3a4       ??_C@_0O@IPAPGMGK@palevioletred?$AA@ 1003d3a4     color.obj
 0002:0000d3b4       ??_C@_0L@NPJMDDDD@papayawhip?$AA@ 1003d3b4     color.obj
 0002:0000d3c0       ??_C@_09GELOGGEC@peachpuff?$AA@ 1003d3c0     color.obj
 0002:0000d3cc       ??_C@_04MJMKNOJB@peru?$AA@ 1003d3cc     color.obj
 0002:0000d3d4       ??_C@_04ECGBAEOC@pink?$AA@ 1003d3d4     color.obj
 0002:0000d3dc       ??_C@_04DDJGBPMH@plum?$AA@ 1003d3dc     color.obj
 0002:0000d3e4       ??_C@_0L@MNADNFAH@powderblue?$AA@ 1003d3e4     color.obj
 0002:0000d3f0       ??_C@_06GEHONCEN@purple?$AA@ 1003d3f0     color.obj
 0002:0000d3f8       ??_C@_0O@JGOBAAIL@rebeccapurple?$AA@ 1003d3f8     color.obj
 0002:0000d408       ??_C@_03FAAAOPJM@red?$AA@  1003d408     color.obj
 0002:0000d40c       ??_C@_09DJJHENIF@rosybrown?$AA@ 1003d40c     color.obj
 0002:0000d418       ??_C@_09FEEJNHFN@royalblue?$AA@ 1003d418     color.obj
 0002:0000d424       ??_C@_0M@MOEGEDCP@saddlebrown?$AA@ 1003d424     color.obj
 0002:0000d430       ??_C@_06FBMAEJGO@salmon?$AA@ 1003d430     color.obj
 0002:0000d438       ??_C@_0L@HLMGLGHH@sandybrown?$AA@ 1003d438     color.obj
 0002:0000d444       ??_C@_08EKGLDJFB@seagreen?$AA@ 1003d444     color.obj
 0002:0000d450       ??_C@_08MFJLKPPC@seashell?$AA@ 1003d450     color.obj
 0002:0000d45c       ??_C@_06CEGMHAGE@sienna?$AA@ 1003d45c     color.obj
 0002:0000d464       ??_C@_06NBGLMDBG@silver?$AA@ 1003d464     color.obj
 0002:0000d46c       ??_C@_07MFCMKLDM@skyblue?$AA@ 1003d46c     color.obj
 0002:0000d474       ??_C@_09DPLBEIJJ@slateblue?$AA@ 1003d474     color.obj
 0002:0000d480       ??_C@_09LKMPLBLE@slategray?$AA@ 1003d480     color.obj
 0002:0000d48c       ??_C@_09LNMGBJGI@slategrey?$AA@ 1003d48c     color.obj
 0002:0000d498       ??_C@_04HPKDHBOB@snow?$AA@ 1003d498     color.obj
 0002:0000d4a0       ??_C@_0M@IPKJFOEB@springgreen?$AA@ 1003d4a0     color.obj
 0002:0000d4ac       ??_C@_09EKEFGALI@steelblue?$AA@ 1003d4ac     color.obj
 0002:0000d4b8       ??_C@_03IIINPABG@tan?$AA@  1003d4b8     color.obj
 0002:0000d4bc       ??_C@_04LJCKMMGA@teal?$AA@ 1003d4bc     color.obj
 0002:0000d4c4       ??_C@_07CGANODJO@thistle?$AA@ 1003d4c4     color.obj
 0002:0000d4cc       ??_C@_06NALDPNEI@tomato?$AA@ 1003d4cc     color.obj
 0002:0000d4d4       ??_C@_09LFBHPEAP@turquoise?$AA@ 1003d4d4     color.obj
 0002:0000d4e0       ??_C@_06KNANIGBM@violet?$AA@ 1003d4e0     color.obj
 0002:0000d4e8       ??_C@_05PPOGEFHN@wheat?$AA@ 1003d4e8     color.obj
 0002:0000d4f0       ??_C@_05PMAELIEO@white?$AA@ 1003d4f0     color.obj
 0002:0000d4f8       ??_C@_0L@FDFMBGNF@whitesmoke?$AA@ 1003d4f8     color.obj
 0002:0000d504       ??_C@_06ENJNJKEL@yellow?$AA@ 1003d504     color.obj
 0002:0000d50c       ??_C@_0M@GCLLLGON@yellowgreen?$AA@ 1003d50c     color.obj
 0002:0000d518       ??_C@_0O@CAFKCKKM@?$CD?$CF?42x?$CF?42x?$CF?42x?$AA@ 1003d518     color.obj
 0002:0000d528       ??_C@_0BH@IMKFBGII@rgba?$CI?$CFd?0?5?$CFd?0?5?$CFd?0?5?$CF?42f?$CJ?$AA@ 1003d528     color.obj
 0002:0000d540       ??_C@_04KDAMFBD@rgb?$CI?$AA@ 1003d540     color.obj
 0002:0000d548       ??_C@_05KGKCGJPO@rgba?$CI?$AA@ 1003d548     color.obj
 0002:0000d550       ??_C@_05HBFAAOHC@hsla?$CI?$AA@ 1003d550     color.obj
 0002:0000d558       ??_C@_04PFIFKHPC@hsl?$CI?$AA@ 1003d558     color.obj
 0002:0000d560       ??_C@_04CLILDBFP@rgba?$AA@ 1003d560     color.obj
 0002:0000d568       ??_C@_03FNOJMHE@rgb?$AA@   1003d568     color.obj
 0002:0000d56c       ??_C@_04NEDOFDLO@hsla?$AA@ 1003d56c     color.obj
 0002:0000d574       ??_C@_03LPNGANKN@hsl?$AA@  1003d574     color.obj
 0002:0000d578       ??_C@_05NBEAGECF@Image?$AA@ 1003d578     Image.obj
 0002:0000d580       ??_C@_08IPNIAGNA@complete?$AA@ 1003d580     Image.obj
 0002:0000d58c       ??_C@_0N@KIMBCBLK@naturalWidth?$AA@ 1003d58c     Image.obj
 0002:0000d59c       ??_C@_0O@DMCHDHNN@naturalHeight?$AA@ 1003d59c     Image.obj
 0002:0000d5ac       ??_C@_08ELMFDEKI@dataMode?$AA@ 1003d5ac     Image.obj
 0002:0000d5b8       ??_C@_0L@ICMMJJAL@MODE_IMAGE?$AA@ 1003d5b8     Image.obj
 0002:0000d5c4       ??_C@_09IDBFNFDI@MODE_MIME?$AA@ 1003d5c4     Image.obj
 0002:0000d5d0       ??_C@_06FKJAAAAK@onload?$AA@ 1003d5d0     Image.obj
 0002:0000d5d8       ??_C@_07MAAHHAB@onerror?$AA@ 1003d5d8     Image.obj
 0002:0000d5e0       ??_C@_0L@PJKHLKFB@image?1jpeg?$AA@ 1003d5e0     Image.obj
 0002:0000d5ec       ??_C@_02JDPG@rb?$AA@       1003d5ec     Image.obj
 0002:0000d5f0       ??_7Image@@6B@             1003d5f0     Image.obj
 0002:0000d5fc       ??_C@_09NIGIGFDC@ImageData?$AA@ 1003d5fc     ImageData.obj
 0002:0000d608       ??_C@_0BK@BFELGOEH@The?5source?5width?5is?5zero?4?$AA@ 1003d608     ImageData.obj
 0002:0000d624       ??_C@_0BL@EMOEEHOI@The?5source?5height?5is?5zero?4?$AA@ 1003d624     ImageData.obj
 0002:0000d640       ??_C@_0CH@IEOMAMPI@The?5input?5data?5has?5a?5zero?5byte?5l@ 1003d640     ImageData.obj
 0002:0000d668       ??_C@_0GB@KDECOCKL@Expected?5?$CIUint8ClampedArray?0?5wid@ 1003d668     ImageData.obj
 0002:0000d6cc       ??_C@_04PJOLNDGD@data?$AA@ 1003d6cc     ImageData.obj
 0002:0000d6d4       ??_7ImageData@@6B@         1003d6d4     ImageData.obj
 0002:0000d6e0       ??_C@_0N@OGDOEBIM@cairoVersion?$AA@ 1003d6e0     init.obj
 0002:0000d6f0       ??_C@_04PEOOHEKN@?$CFd?$CFc?$AA@ 1003d6f0     init.obj
 0002:0000d6f8       ??_C@_0M@PLCFBBDI@jpegVersion?$AA@ 1003d6f8     init.obj
 0002:0000d704       ??_C@_08FOJKHHJA@?$CFd?4?$CFd?4?$CFd?$AA@ 1003d704     init.obj
 0002:0000d710       ??_C@_0BA@MCPGPJBI@freetypeVersion?$AA@ 1003d710     init.obj
 0002:0000d720       ??_C@_0P@PAFBMNKD@?4?4?2src?2init?4cc?$AA@ 1003d720     init.obj
 0002:0000d730       ??_C@_06DODEBHEI@canvas?$AA@ 1003d730     init.obj
 0002:0000d738       ??_C@_03BNMJFLDC@MAC?$AA@  1003d738     register_font.obj
 0002:0000d73c       ??_C@_08NLKHJAFK@UTF?916BE?$AA@ 1003d73c     register_font.obj
 0002:0000d748       ??_C@_05EGJIMALK@UTF?98?$AA@ 1003d748     register_font.obj
 0002:0000d750       ??_C@_08HCOMDCCD@iojs?4exe?$AA@ 1003d750     win_delay_load_hook.obj
 0002:0000d75c       ??_C@_08JDDNMFDB@node?4exe?$AA@ 1003d75c     win_delay_load_hook.obj
 0002:0000d768       __real@0000000000000000    1003d768     CanvasRenderingContext2d.obj
 0002:0000d770       __real@3a800000            1003d770     CanvasRenderingContext2d.obj
 0002:0000d774       __real@3dcccccd            1003d774     color.obj
 0002:0000d778       __real@3f000000            1003d778     CanvasRenderingContext2d.obj
 0002:0000d77c       __real@3f13cd36            1003d77c     CanvasRenderingContext2d.obj
 0002:0000d780       __real@3f50000000000000    1003d780     CanvasRenderingContext2d.obj
 0002:0000d788       __real@3f800000            1003d788     color.obj
 0002:0000d790       __real@3fe0000000000000    1003d790     CanvasRenderingContext2d.obj
 0002:0000d798       __real@3fe5555555555555    1003d798     CanvasRenderingContext2d.obj
 0002:0000d7a0       __real@3ff0000000000000    1003d7a0     CanvasRenderingContext2d.obj
 0002:0000d7a8       __real@3ff6666666666666    1003d7a8     CanvasRenderingContext2d.obj
 0002:0000d7b0       __real@40000000            1003d7b0     color.obj
 0002:0000d7b8       __real@4000000000000000    1003d7b8     Image.obj
 0002:0000d7c0       __real@400921fb54442d18    1003d7c0     CanvasRenderingContext2d.obj
 0002:0000d7c8       __real@401921fb54442d18    1003d7c8     CanvasRenderingContext2d.obj
 0002:0000d7d0       __real@40400000            1003d7d0     color.obj
 0002:0000d7d8       __real@406fe00000000000    1003d7d8     color.obj
 0002:0000d7e0       __real@4076800000000000    1003d7e0     color.obj
 0002:0000d7e8       __real@40800000            1003d7e8     color.obj
 0002:0000d7f0       __real@4090000000000000    1003d7f0     CanvasRenderingContext2d.obj
 0002:0000d7f8       __real@40c00000            1003d7f8     color.obj
 0002:0000d800       __real@40c4000000000000    1003d800     CanvasRenderingContext2d.obj
 0002:0000d808       __real@41200000            1003d808     color.obj
 0002:0000d80c       __real@42c80000            1003d80c     color.obj
 0002:0000d810       __real@437f0000            1003d810     color.obj
 0002:0000d814       __real@43b40000            1003d814     color.obj
 0002:0000d818       __real@477fff00            1003d818     CanvasRenderingContext2d.obj
 0002:0000d820       __real@7ff0000000000000    1003d820     CanvasRenderingContext2d.obj
 0002:0000d828       __real@bff0000000000000    1003d828     Canvas.obj
 0002:0000d830       __xmm@3ff00000000000000000000000000000 1003d830     CanvasRenderingContext2d.obj
 0002:0000d840       __xmm@41f00000000000000000000000000000 1003d840     color.obj
 0002:0000d850       __xmm@80000000000000008000000000000000 1003d850     CanvasRenderingContext2d.obj
 0002:0000d860       __xmm@80000000800000008000000080000000 1003d860     CanvasRenderingContext2d.obj
 0002:0000d870       __OP_FMODjmptab            1003d870     libucrt:87fmod.obj
 0002:0000db10       ___acrt_acos_asin_tbl_addr 1003db10     libucrt:acos_asin_tbl_addr.obj
 0002:0000ea10       ___acrt_acos_asin_t_table  1003ea10     libucrt:acos_asin_t_table.obj
 0002:0000f230       ___acrt_tan_ctable         1003f230     libucrt:tan_tables.obj
 0002:00010a44       __tls_used                 10040a44     LIBCMT:tlssup.obj
 0002:00010a5c       ??_R4exception@std@@6B@    10040a5c     libcpmt:xthrow.obj
 0002:00010a70       ??_R3exception@std@@8      10040a70     libcpmt:xthrow.obj
 0002:00010a80       ??_R2exception@std@@8      10040a80     libcpmt:xthrow.obj
 0002:00010a88       ??_R1A@?0A@EA@exception@std@@8 10040a88     libcpmt:xthrow.obj
 0002:00010aa4       ??_R4bad_alloc@std@@6B@    10040aa4     libcpmt:xthrow.obj
 0002:00010ab8       ??_R3bad_alloc@std@@8      10040ab8     libcpmt:xthrow.obj
 0002:00010ac8       ??_R2bad_alloc@std@@8      10040ac8     libcpmt:xthrow.obj
 0002:00010ad4       ??_R1A@?0A@EA@bad_alloc@std@@8 10040ad4     libcpmt:xthrow.obj
 0002:00010af0       ??_R4logic_error@std@@6B@  10040af0     libcpmt:xthrow.obj
 0002:00010b04       ??_R3logic_error@std@@8    10040b04     libcpmt:xthrow.obj
 0002:00010b14       ??_R2logic_error@std@@8    10040b14     libcpmt:xthrow.obj
 0002:00010b20       ??_R1A@?0A@EA@logic_error@std@@8 10040b20     libcpmt:xthrow.obj
 0002:00010b3c       ??_R4length_error@std@@6B@ 10040b3c     libcpmt:xthrow.obj
 0002:00010b50       ??_R3length_error@std@@8   10040b50     libcpmt:xthrow.obj
 0002:00010b60       ??_R2length_error@std@@8   10040b60     libcpmt:xthrow.obj
 0002:00010b70       ??_R1A@?0A@EA@length_error@std@@8 10040b70     libcpmt:xthrow.obj
 0002:00010b8c       ??_R4out_of_range@std@@6B@ 10040b8c     libcpmt:xthrow.obj
 0002:00010ba0       ??_R3out_of_range@std@@8   10040ba0     libcpmt:xthrow.obj
 0002:00010bb0       ??_R2out_of_range@std@@8   10040bb0     libcpmt:xthrow.obj
 0002:00010bc0       ??_R1A@?0A@EA@out_of_range@std@@8 10040bc0     libcpmt:xthrow.obj
 0002:00010bdc       ??_R4type_info@@6B@        10040bdc     LIBCMT:std_type_info_static.obj
 0002:00010bf0       ??_R3type_info@@8          10040bf0     LIBCMT:std_type_info_static.obj
 0002:00010c00       ??_R2type_info@@8          10040c00     LIBCMT:std_type_info_static.obj
 0002:00010c08       ??_R1A@?0A@EA@type_info@@8 10040c08     LIBCMT:std_type_info_static.obj
 0002:00010c24       ??_R4bad_array_new_length@std@@6B@ 10040c24     LIBCMT:throw_bad_alloc.obj
 0002:00010c38       ??_R3bad_array_new_length@std@@8 10040c38     LIBCMT:throw_bad_alloc.obj
 0002:00010c48       ??_R2bad_array_new_length@std@@8 10040c48     LIBCMT:throw_bad_alloc.obj
 0002:00010c58       ??_R1A@?0A@EA@bad_array_new_length@std@@8 10040c58     LIBCMT:throw_bad_alloc.obj
 0002:00010c74       ??_R4bad_exception@std@@6B@ 10040c74     libvcruntime:frame.obj
 0002:00010c88       ??_R3bad_exception@std@@8  10040c88     libvcruntime:frame.obj
 0002:00010c98       ??_R2bad_exception@std@@8  10040c98     libvcruntime:frame.obj
 0002:00010ca4       ??_R1A@?0A@EA@bad_exception@std@@8 10040ca4     libvcruntime:frame.obj
 0002:00010cc0       ___safe_se_handler_table   10040cc0     <linker-defined>
 0002:00011228       ___rtc_iaa                 10041228     LIBCMT:_initsect_.obj
 0002:0001122c       ___rtc_izz                 1004122c     LIBCMT:_initsect_.obj
 0002:00011230       ___rtc_taa                 10041230     LIBCMT:_initsect_.obj
 0002:00011234       ___rtc_tzz                 10041234     LIBCMT:_initsect_.obj
 0002:00011b74       __TI2?AVbad_alloc@std@@    10041b74     libcpmt:xthrow.obj
 0002:00011b84       __CTA2?AVbad_alloc@std@@   10041b84     libcpmt:xthrow.obj
 0002:00011b90       __CT??_R0?AVbad_alloc@std@@@8??0bad_alloc@std@@QAE@ABV01@@Z12 10041b90     libcpmt:xthrow.obj
 0002:00011bac       __CT??_R0?AVexception@std@@@8??0exception@std@@QAE@ABV01@@Z12 10041bac     libcpmt:xthrow.obj
 0002:00011bc8       __CT??_R0?AVlogic_error@std@@@8??0logic_error@std@@QAE@ABV01@@Z12 10041bc8     libcpmt:xthrow.obj
 0002:00011be4       __TI3?AVlength_error@std@@ 10041be4     libcpmt:xthrow.obj
 0002:00011bf4       __CTA3?AVlength_error@std@@ 10041bf4     libcpmt:xthrow.obj
 0002:00011c04       __CT??_R0?AVlength_error@std@@@8??0length_error@std@@QAE@ABV01@@Z12 10041c04     libcpmt:xthrow.obj
 0002:00011c20       __TI3?AVout_of_range@std@@ 10041c20     libcpmt:xthrow.obj
 0002:00011c30       __CTA3?AVout_of_range@std@@ 10041c30     libcpmt:xthrow.obj
 0002:00011c40       __CT??_R0?AVout_of_range@std@@@8??0out_of_range@std@@QAE@ABV01@@Z12 10041c40     libcpmt:xthrow.obj
 0002:00011cdc       __TI3?AVbad_array_new_length@std@@ 10041cdc     LIBCMT:throw_bad_alloc.obj
 0002:00011cec       __CTA3?AVbad_array_new_length@std@@ 10041cec     LIBCMT:throw_bad_alloc.obj
 0002:00011cfc       __CT??_R0?AVbad_array_new_length@std@@@8??0bad_array_new_length@std@@QAE@ABV01@@Z12 10041cfc     LIBCMT:throw_bad_alloc.obj
 0002:00011e1c       __TI2?AVbad_exception@std@@ 10041e1c     libvcruntime:frame.obj
 0002:00011e2c       __CTA2?AVbad_exception@std@@ 10041e2c     libvcruntime:frame.obj
 0002:00011e38       __CT??_R0?AVbad_exception@std@@@8??0bad_exception@std@@QAE@ABV01@@Z12 10041e38     libvcruntime:frame.obj
 0002:00012304       __DELAY_IMPORT_DESCRIPTOR_node_exe 10042304     node:node.exe
 0002:00012324       __NULL_DELAY_IMPORT_DESCRIPTOR 10042324     node:node.exe
 0002:000124d8       \177node_NULL_THUNK_DATA_DLN 100424d8     node:node.exe
 0002:00013e58       \177node_NULL_THUNK_DATA_DLB 10043e58     node:node.exe
 0002:00014040       __IMPORT_DESCRIPTOR_KERNEL32 10044040     kernel32:KERNEL32.dll
 0002:00014054       __IMPORT_DESCRIPTOR_GDI32  10044054     gdi32:GDI32.dll
 0002:00014068       __IMPORT_DESCRIPTOR_libcairo-2 10044068     cairo:libcairo-2.dll
 0002:0001407c       __IMPORT_DESCRIPTOR_libpng14-14 1004407c     libpng:libpng14-14.dll
 0002:00014090       __IMPORT_DESCRIPTOR_libpangocairo-1.0-0 10044090     pangocairo-1.0:libpangocairo-1.0-0.dll
 0002:000140a4       __IMPORT_DESCRIPTOR_libpango-1.0-0 100440a4     pango-1.0:libpango-1.0-0.dll
 0002:000140b8       __IMPORT_DESCRIPTOR_freetype6 100440b8     freetype:freetype6.dll
 0002:000140cc       __IMPORT_DESCRIPTOR_libglib-2.0-0 100440cc     glib-2.0:libglib-2.0-0.dll
 0002:000140e0       __IMPORT_DESCRIPTOR_libgobject-2.0-0 100440e0     gobject-2.0:libgobject-2.0-0.dll
 0002:000140f4       __IMPORT_DESCRIPTOR_jpeg62 100440f4     jpeg:jpeg62.dll
 0002:00014108       __NULL_IMPORT_DESCRIPTOR   10044108     kernel32:KERNEL32.dll
 0003:00000004       ?_Sync@ios_base@std@@0_NA  10046004     libcpmt:ios.obj
 0003:00000010       ?_PJP_CPP_Copyright@@3PADA 10046010     libcpmt:iosptrs.obj
 0003:00000064       __Init_global_epoch        10046064     LIBCMT:thread_safe_statics.obj
 0003:00000068       ___scrt_native_dllmain_reason 10046068     LIBCMT:utility.obj
 0003:0000006c       ___security_cookie_complement 1004606c     LIBCMT:gs_cookie.obj
 0003:00000070       ___security_cookie         10046070     LIBCMT:gs_cookie.obj
 0003:00000074       __fltused                  10046074     LIBCMT:fltused.obj
 0003:00000080       ___isa_enabled             10046080     LIBCMT:_cpu_disp_.obj
 0003:000000a0       __NLG_Destination          100460a0     libvcruntime:_exsup_.obj
 0003:000000b0       ___abort_behavior          100460b0     libucrt:abort.obj
 0003:000000b8       __iob                      100460b8     libucrt:_file.obj
 0003:00000160       __pwctype                  10046160     libucrt:ctype.obj
 0003:00000170       ___acrt_lconv_static_decimal 10046170     libucrt:localeconv.obj
 0003:00000174       ___acrt_lconv_static_W_decimal 10046174     libucrt:localeconv.obj
 0003:00000178       ___acrt_lconv_c            10046178     libucrt:localeconv.obj
 0003:000001d8       ___badioinfo               100461d8     libucrt:ioinit.obj
 0003:00000208       ___acrt_initial_locale_data 10046208     libucrt:nlsdata.obj
 0003:000002c0       ___acrt_initial_locale_pointers 100462c0     libucrt:nlsdata.obj
 0003:000002c8       ___acrt_wide_c_locale_string 100462c8     libucrt:nlsdata.obj
 0003:000002d0       __lookuptrailbytes         100462d0     libucrt:read.obj
 0003:000003d0       ___globallocalestatus      100463d0     libucrt:glstatus.obj
 0003:00000560       __mbctype                  10046560     libucrt:mbctype.obj
 0003:00000668       __mbcasemap                10046668     libucrt:mbctype.obj
 0003:00000768       ___acrt_initial_multibyte_data 10046768     libucrt:mbctype.obj
 0003:00000988       ___acrt_current_multibyte_data 10046988     libucrt:mbctype.obj
 0003:00000990       ___dcrt_lowio_console_output_handle 10046990     libucrt:initcon.obj
 0003:000009d0       ??_R0?AVbad_alloc@std@@@8  100469d0     libcpmt:xthrow.obj
 0003:000009ec       ??_R0?AVexception@std@@@8  100469ec     libcpmt:xthrow.obj
 0003:00000a08       ??_R0?AVlogic_error@std@@@8 10046a08     libcpmt:xthrow.obj
 0003:00000a28       ??_R0?AVlength_error@std@@@8 10046a28     libcpmt:xthrow.obj
 0003:00000a48       ??_R0?AVout_of_range@std@@@8 10046a48     libcpmt:xthrow.obj
 0003:00000a68       ??_R0?AVtype_info@@@8      10046a68     LIBCMT:std_type_info_static.obj
 0003:00000a80       ??_R0?AVbad_array_new_length@std@@@8 10046a80     LIBCMT:throw_bad_alloc.obj
 0003:00000aa8       ??_R0?AVbad_exception@std@@@8 10046aa8     libvcruntime:frame.obj
 0003:00000ac8       __imp_?ClearWeak@V8@v8@@CAPAXPAPAVObject@internal@2@@Z 10046ac8     node:node.exe
 0003:00000acc       __imp_?MakeWeak@V8@v8@@CAXPAPAVObject@internal@2@PAXP6AXABV?$WeakCallbackInfo@X@2@@ZW4WeakCallbackType@2@@Z 10046acc     node:node.exe
 0003:00000ad0       __imp_?DisposeGlobal@V8@v8@@CAXPAPAVObject@internal@2@@Z 10046ad0     node:node.exe
 0003:00000ad4       __imp_?Value@External@v8@@QBEPAXXZ 10046ad4     node:node.exe
 0003:00000ad8       __imp_?New@External@v8@@SA?AV?$Local@VExternal@v8@@@2@PAVIsolate@2@PAX@Z 10046ad8     node:node.exe
 0003:00000adc       __imp_?CheckMemoryPressure@Isolate@v8@@AAEXXZ 10046adc     node:node.exe
 0003:00000ae0       __imp_?ReportExternalAllocationLimitReached@Isolate@v8@@AAEXXZ 10046ae0     node:node.exe
 0003:00000ae4       __imp_?GetCurrentContext@Isolate@v8@@QAE?AV?$Local@VContext@v8@@@2@XZ 10046ae4     node:node.exe
 0003:00000ae8       __imp_?GetCurrent@Isolate@v8@@SAPAV12@XZ 10046ae8     node:node.exe
 0003:00000aec       __imp_?CreateHandle@HandleScope@v8@@KAPAPAVObject@internal@2@PAVIsolate@42@PAV342@@Z 10046aec     node:node.exe
 0003:00000af0       __imp_?CreateHandle@HandleScope@v8@@CAPAPAVObject@internal@2@PAVHeapObject@42@PAV342@@Z 10046af0     node:node.exe
 0003:00000af4       __imp_??1HandleScope@v8@@QAE@XZ 10046af4     node:node.exe
 0003:00000af8       __imp_??0HandleScope@v8@@QAE@PAVIsolate@1@@Z 10046af8     node:node.exe
 0003:00000afc       __imp_?SetClassName@FunctionTemplate@v8@@QAEXV?$Local@VString@v8@@@2@@Z 10046afc     node:node.exe
 0003:00000b00       __imp_?InstanceTemplate@FunctionTemplate@v8@@QAE?AV?$Local@VObjectTemplate@v8@@@2@XZ 10046b00     node:node.exe
 0003:00000b04       __imp_?GetFunction@FunctionTemplate@v8@@QAE?AV?$Local@VFunction@v8@@@2@XZ 10046b04     node:node.exe
 0003:00000b08       __imp_?New@FunctionTemplate@v8@@SA?AV?$Local@VFunctionTemplate@v8@@@2@PAVIsolate@2@P6AXABV?$FunctionCallbackInfo@VValue@v8@@@2@@ZV?$Local@VValue@v8@@@2@V?$Local@VSignature@v8@@@2@HW4ConstructorBehavior@2@@Z 10046b08     node:node.exe
 0003:00000b0c       __imp_?ToLocalEmpty@V8@v8@@CAXXZ 10046b0c     node:node.exe
 0003:00000b10       __imp_?GlobalizeReference@V8@v8@@CAPAPAVObject@internal@2@PAVIsolate@42@PAPAV342@@Z 10046b10     node:node.exe
 0003:00000b14       __imp_?Uint32Value@Value@v8@@QBEIXZ 10046b14     node:node.exe
 0003:00000b18       __imp_?IsNumber@Value@v8@@QBE_NXZ 10046b18     node:node.exe
 0003:00000b1c       __imp_?Escape@EscapableHandleScope@v8@@AAEPAPAVObject@internal@2@PAPAV342@@Z 10046b1c     node:node.exe
 0003:00000b20       __imp_??0EscapableHandleScope@v8@@QAE@PAVIsolate@1@@Z 10046b20     node:node.exe
 0003:00000b24       __imp_?NewFromUtf8@String@v8@@SA?AV?$MaybeLocal@VString@v8@@@2@PAVIsolate@2@PBDW4NewStringType@2@H@Z 10046b24     node:node.exe
 0003:00000b28       __imp_?SlowGetInternalField@Object@v8@@AAE?AV?$Local@VValue@v8@@@2@H@Z 10046b28     node:node.exe
 0003:00000b2c       __imp_?SetAlignedPointerInInternalField@Object@v8@@QAEXHPAX@Z 10046b2c     node:node.exe
 0003:00000b30       __imp_?SetInternalField@Object@v8@@QAEXHV?$Local@VValue@v8@@@2@@Z 10046b30     node:node.exe
 0003:00000b34       __imp_?InternalFieldCount@Object@v8@@QAEHXZ 10046b34     node:node.exe
 0003:00000b38       __imp_?Set@Object@v8@@QAE_NV?$Local@VValue@v8@@@2@0@Z 10046b38     node:node.exe
 0003:00000b3c       __imp_?SetInternalFieldCount@ObjectTemplate@v8@@QAEXH@Z 10046b3c     node:node.exe
 0003:00000b40       __imp_?NewInstance@ObjectTemplate@v8@@QAE?AV?$MaybeLocal@VObject@v8@@@2@V?$Local@VContext@v8@@@2@@Z 10046b40     node:node.exe
 0003:00000b44       __imp_?New@ObjectTemplate@v8@@SA?AV?$Local@VObjectTemplate@v8@@@2@PAVIsolate@2@V?$Local@VFunctionTemplate@v8@@@2@@Z 10046b44     node:node.exe
 0003:00000b48       __imp_??1EscapableHandleScope@v8@@QAE@XZ 10046b48     node:node.exe
 0003:00000b4c       __imp_?New@Object@v8@@SA?AV?$Local@VObject@v8@@@2@PAVIsolate@2@@Z 10046b4c     node:node.exe
 0003:00000b50       __imp__uv_queue_work       10046b50     node:node.exe
 0003:00000b54       __imp_?Global@Context@v8@@QAE?AV?$Local@VObject@v8@@@2@XZ 10046b54     node:node.exe
 0003:00000b58       __imp_?NewFromUnsigned@Integer@v8@@SA?AV?$Local@VInteger@v8@@@2@PAVIsolate@2@I@Z 10046b58     node:node.exe
 0003:00000b5c       __imp_?New@Signature@v8@@SA?AV?$Local@VSignature@v8@@@2@PAVIsolate@2@V?$Local@VFunctionTemplate@v8@@@2@@Z 10046b5c     node:node.exe
 0003:00000b60       __imp_?ThrowException@Isolate@v8@@QAE?AV?$Local@VValue@v8@@@2@V32@@Z 10046b60     node:node.exe
 0003:00000b64       __imp_?Length@TypedArray@v8@@QAEIXZ 10046b64     node:node.exe
 0003:00000b68       __imp_?Set@Template@v8@@QAEXV?$Local@VName@v8@@@2@V?$Local@VData@v8@@@2@W4PropertyAttribute@2@@Z 10046b68     node:node.exe
 0003:00000b6c       __imp_?ByteLength@ArrayBufferView@v8@@QAEIXZ 10046b6c     node:node.exe
 0003:00000b70       __imp_?ByteOffset@ArrayBufferView@v8@@QAEIXZ 10046b70     node:node.exe
 0003:00000b74       __imp_?Buffer@ArrayBufferView@v8@@QAE?AV?$Local@VArrayBuffer@v8@@@2@XZ 10046b74     node:node.exe
 0003:00000b78       __imp_?Error@Exception@v8@@SA?AV?$Local@VValue@v8@@@2@V?$Local@VString@v8@@@2@@Z 10046b78     node:node.exe
 0003:00000b7c       __imp_?TypeError@Exception@v8@@SA?AV?$Local@VValue@v8@@@2@V?$Local@VString@v8@@@2@@Z 10046b7c     node:node.exe
 0003:00000b80       __imp_?RangeError@Exception@v8@@SA?AV?$Local@VValue@v8@@@2@V?$Local@VString@v8@@@2@@Z 10046b80     node:node.exe
 0003:00000b84       __imp_?New@AccessorSignature@v8@@SA?AV?$Local@VAccessorSignature@v8@@@2@PAVIsolate@2@V?$Local@VFunctionTemplate@v8@@@2@@Z 10046b84     node:node.exe
 0003:00000b88       __imp_?HasInstance@FunctionTemplate@v8@@QAE_NV?$Local@VValue@v8@@@2@@Z 10046b88     node:node.exe
 0003:00000b8c       __imp_?PrototypeTemplate@FunctionTemplate@v8@@QAE?AV?$Local@VObjectTemplate@v8@@@2@XZ 10046b8c     node:node.exe
 0003:00000b90       __imp_?GetContents@ArrayBuffer@v8@@QAE?AVContents@12@XZ 10046b90     node:node.exe
 0003:00000b94       __imp_?StrictEquals@Value@v8@@QBE_NV?$Local@VValue@v8@@@2@@Z 10046b94     node:node.exe
 0003:00000b98       __imp_?NumberValue@Value@v8@@QBENXZ 10046b98     node:node.exe
 0003:00000b9c       __imp_?BooleanValue@Value@v8@@QBE_NXZ 10046b9c     node:node.exe
 0003:00000ba0       __imp_?ToUint32@Value@v8@@QBE?AV?$MaybeLocal@VUint32@v8@@@2@V?$Local@VContext@v8@@@2@@Z 10046ba0     node:node.exe
 0003:00000ba4       __imp_?IsUint8ClampedArray@Value@v8@@QBE_NXZ 10046ba4     node:node.exe
 0003:00000ba8       __imp_?IsArrayBufferView@Value@v8@@QBE_NXZ 10046ba8     node:node.exe
 0003:00000bac       __imp_?IsUint32@Value@v8@@QBE_NXZ 10046bac     node:node.exe
 0003:00000bb0       __imp_?IsBoolean@Value@v8@@QBE_NXZ 10046bb0     node:node.exe
 0003:00000bb4       __imp_?IsObject@Value@v8@@QBE_NXZ 10046bb4     node:node.exe
 0003:00000bb8       __imp_?IsFunction@Value@v8@@QBE_NXZ 10046bb8     node:node.exe
 0003:00000bbc       __imp_?ReThrow@TryCatch@v8@@QAE?AV?$Local@VValue@v8@@@2@XZ 10046bbc     node:node.exe
 0003:00000bc0       __imp_?HasCaught@TryCatch@v8@@QBE_NXZ 10046bc0     node:node.exe
 0003:00000bc4       __imp_??1TryCatch@v8@@QAE@XZ 10046bc4     node:node.exe
 0003:00000bc8       __imp_??0TryCatch@v8@@QAE@PAVIsolate@1@@Z 10046bc8     node:node.exe
 0003:00000bcc       __imp_??1Utf8Value@String@v8@@QAE@XZ 10046bcc     node:node.exe
 0003:00000bd0       __imp_??0Utf8Value@String@v8@@QAE@V?$Local@VValue@v8@@@2@@Z 10046bd0     node:node.exe
 0003:00000bd4       __imp_?New@Number@v8@@SA?AV?$Local@VNumber@v8@@@2@PAVIsolate@2@N@Z 10046bd4     node:node.exe
 0003:00000bd8       __imp_?SlowGetAlignedPointerFromInternalField@Object@v8@@AAEPAXH@Z 10046bd8     node:node.exe
 0003:00000bdc       __imp_?Get@Object@v8@@QAE?AV?$Local@VValue@v8@@@2@V32@@Z 10046bdc     node:node.exe
 0003:00000be0       __imp_?Set@Object@v8@@QAE?AV?$Maybe@_N@2@V?$Local@VContext@v8@@@2@V?$Local@VValue@v8@@@2@1@Z 10046be0     node:node.exe
 0003:00000be4       __imp_?Call@Function@v8@@QAE?AV?$MaybeLocal@VValue@v8@@@2@V?$Local@VContext@v8@@@2@V?$Local@VValue@v8@@@2@HQAV52@@Z 10046be4     node:node.exe
 0003:00000be8       __imp_?SetAccessor@ObjectTemplate@v8@@QAEXV?$Local@VName@v8@@@2@P6AX0ABV?$PropertyCallbackInfo@VValue@v8@@@2@@ZP6AX0V?$Local@VValue@v8@@@2@ABV?$PropertyCallbackInfo@X@2@@Z3W4AccessControl@2@W4PropertyAttribute@2@V?$Local@VAccessorSignature@v8@@@2@@Z 10046be8     node:node.exe
 0003:00000bec       __imp_?EmitAsyncDestroy@node@@YAXPAVIsolate@v8@@Uasync_context@1@@Z 10046bec     node:node.exe
 0003:00000bf0       __imp_?New@Buffer@node@@YA?AV?$MaybeLocal@VObject@v8@@@v8@@PAVIsolate@4@PADIP6AX1PAX@Z2@Z 10046bf0     node:node.exe
 0003:00000bf4       __imp_?New@Buffer@node@@YA?AV?$MaybeLocal@VObject@v8@@@v8@@PAVIsolate@4@PADI@Z 10046bf4     node:node.exe
 0003:00000bf8       __imp_?Data@Buffer@node@@YAPADV?$Local@VObject@v8@@@v8@@@Z 10046bf8     node:node.exe
 0003:00000bfc       __imp_?Copy@Buffer@node@@YA?AV?$MaybeLocal@VObject@v8@@@v8@@PAVIsolate@4@PBDI@Z 10046bfc     node:node.exe
 0003:00000c00       __imp_?MakeCallback@node@@YA?AV?$MaybeLocal@VValue@v8@@@v8@@PAVIsolate@3@V?$Local@VObject@v8@@@3@V?$Local@VFunction@v8@@@3@HPAV?$Local@VValue@v8@@@3@Uasync_context@1@@Z 10046c00     node:node.exe
 0003:00000c04       __imp_?EmitAsyncInit@node@@YA?AUasync_context@1@PAVIsolate@v8@@V?$Local@VObject@v8@@@4@V?$Local@VString@v8@@@4@N@Z 10046c04     node:node.exe
 0003:00000c08       __imp__uv_default_loop     10046c08     node:node.exe
 0003:00000c0c       __imp_?ToObject@Value@v8@@QBE?AV?$Local@VObject@v8@@@2@XZ 10046c0c     node:node.exe
 0003:00000c10       __imp_?New@Uint8ClampedArray@v8@@SA?AV?$Local@VUint8ClampedArray@v8@@@2@V?$Local@VArrayBuffer@v8@@@2@II@Z 10046c10     node:node.exe
 0003:00000c14       __imp_?New@Integer@v8@@SA?AV?$Local@VInteger@v8@@@2@PAVIsolate@2@H@Z 10046c14     node:node.exe
 0003:00000c18       __imp_?New@Array@v8@@SA?AV?$Local@VArray@v8@@@2@PAVIsolate@2@H@Z 10046c18     node:node.exe
 0003:00000c1c       __imp_?Length@Array@v8@@QBEIXZ 10046c1c     node:node.exe
 0003:00000c20       __imp_?GetFunction@FunctionTemplate@v8@@QAE?AV?$MaybeLocal@VFunction@v8@@@2@V?$Local@VContext@v8@@@2@@Z 10046c20     node:node.exe
 0003:00000c24       __imp_?New@ArrayBuffer@v8@@SA?AV?$Local@VArrayBuffer@v8@@@2@PAVIsolate@2@I@Z 10046c24     node:node.exe
 0003:00000c28       __imp_?Int32Value@Value@v8@@QBEHXZ 10046c28     node:node.exe
 0003:00000c2c       __imp_?ToInt32@Value@v8@@QBE?AV?$MaybeLocal@VInt32@v8@@@2@V?$Local@VContext@v8@@@2@@Z 10046c2c     node:node.exe
 0003:00000c30       __imp_?IsInt32@Value@v8@@QBE_NXZ 10046c30     node:node.exe
 0003:00000c34       __imp_?IsArray@Value@v8@@QBE_NXZ 10046c34     node:node.exe
 0003:00000c38       __imp_?New@Uint16Array@v8@@SA?AV?$Local@VUint16Array@v8@@@2@V?$Local@VArrayBuffer@v8@@@2@II@Z 10046c38     node:node.exe
 0003:00000c3c       __imp_?Get@Object@v8@@QAE?AV?$Local@VValue@v8@@@2@I@Z 10046c3c     node:node.exe
 0003:00000c40       __imp_?NewInstance@Function@v8@@QBE?AV?$MaybeLocal@VObject@v8@@@2@V?$Local@VContext@v8@@@2@HQAV?$Local@VValue@v8@@@2@@Z 10046c40     node:node.exe
 0003:00000c44       __imp_?ToString@Value@v8@@QBE?AV?$Local@VString@v8@@@2@XZ 10046c44     node:node.exe
 0003:00000c48       __imp_?Call@Function@v8@@QAE?AV?$Local@VValue@v8@@@2@V32@HQAV32@@Z 10046c48     node:node.exe
 0003:00000c4c       __imp_?HasInstance@Buffer@node@@YA_NV?$Local@VValue@v8@@@v8@@@Z 10046c4c     node:node.exe
 0003:00000c50       __imp_?Length@Buffer@node@@YAIV?$Local@VObject@v8@@@v8@@@Z 10046c50     node:node.exe
 0003:00000c54       __imp_?IsUint16Array@Value@v8@@QBE_NXZ 10046c54     node:node.exe
 0003:00000c58       __imp__node_module_register 10046c58     node:node.exe
 0003:00000c5c       \177node_NULL_THUNK_DATA_DLA 10046c5c     node:node.exe
 0003:00000c60       __hmod__node_exe           10046c60     node:node.exe
 0003:00000d30       ?_Id_cnt@id@locale@std@@0HA 10046d30     libcpmt:locale0.obj
 0003:00000d34       ?_Clocptr@_Locimp@locale@std@@0PAV123@A 10046d34     libcpmt:locale0.obj
 0003:00000d40       ?id@?$ctype@G@std@@2V0locale@2@A 10046d40     libcpmt:locale0.obj
 0003:00000d44       ?id@?$codecvt@_WDU_Mbstatet@@@std@@2V0locale@2@A 10046d44     libcpmt:locale0.obj
 0003:00000d48       ?id@?$codecvt@GDU_Mbstatet@@@std@@2V0locale@2@A 10046d48     libcpmt:locale0.obj
 0003:00000d4c       ?id@?$ctype@_W@std@@2V0locale@2@A 10046d4c     libcpmt:locale0.obj
 0003:00000d50       ?id@?$ctype@D@std@@2V0locale@2@A 10046d50     libcpmt:locale0.obj
 0003:00000d60       ?_Index@ios_base@std@@0HA  10046d60     libcpmt:ios.obj
 0003:00000d98       ?_Raise_handler@std@@3P6AXABVexception@stdext@@@ZA 10046d98     libcpmt:raisehan.obj
 0003:00000d9c       ?_Ptr_cin@std@@3PAV?$basic_istream@DU?$char_traits@D@std@@@1@A 10046d9c     libcpmt:iosptrs.obj
 0003:00000da0       ?_Ptr_cout@std@@3PAV?$basic_ostream@DU?$char_traits@D@std@@@1@A 10046da0     libcpmt:iosptrs.obj
 0003:00000da4       ?_Ptr_cerr@std@@3PAV?$basic_ostream@DU?$char_traits@D@std@@@1@A 10046da4     libcpmt:iosptrs.obj
 0003:00000da8       ?_Ptr_clog@std@@3PAV?$basic_ostream@DU?$char_traits@D@std@@@1@A 10046da8     libcpmt:iosptrs.obj
 0003:00000dac       ?_Ptr_wcin@std@@3PAV?$basic_istream@_WU?$char_traits@_W@std@@@1@A 10046dac     libcpmt:iosptrs.obj
 0003:00000db0       ?_Ptr_wcout@std@@3PAV?$basic_ostream@_WU?$char_traits@_W@std@@@1@A 10046db0     libcpmt:iosptrs.obj
 0003:00000db4       ?_Ptr_wcerr@std@@3PAV?$basic_ostream@_WU?$char_traits@_W@std@@@1@A 10046db4     libcpmt:iosptrs.obj
 0003:00000db8       ?_Ptr_wclog@std@@3PAV?$basic_ostream@_WU?$char_traits@_W@std@@@1@A 10046db8     libcpmt:iosptrs.obj
 0003:00000de8       ?id@?$num_get@DV?$istreambuf_iterator@DU?$char_traits@D@std@@@std@@@std@@2V0locale@2@A 10046de8     libcpmt:locale.obj
 0003:00000dec       ?id@?$num_put@DV?$ostreambuf_iterator@DU?$char_traits@D@std@@@std@@@std@@2V0locale@2@A 10046dec     libcpmt:locale.obj
 0003:00000df0       ?id@?$numpunct@D@std@@2V0locale@2@A 10046df0     libcpmt:locale.obj
 0003:00000df4       ?id@?$codecvt@DDU_Mbstatet@@@std@@2V0locale@2@A 10046df4     libcpmt:locale.obj
 0003:00000df8       ___encodedKERNEL32Functions 10046df8     libcpmt:winapisupp.obj
 0003:00000e98       ?id@?$time_put@_WV?$ostreambuf_iterator@_WU?$char_traits@_W@std@@@std@@@std@@2V0locale@2@A 10046e98     libcpmt:wlocale.obj
 0003:00000e9c       ?id@?$num_get@_WV?$istreambuf_iterator@_WU?$char_traits@_W@std@@@std@@@std@@2V0locale@2@A 10046e9c     libcpmt:wlocale.obj
 0003:00000ea0       ?id@?$num_put@_WV?$ostreambuf_iterator@_WU?$char_traits@_W@std@@@std@@@std@@2V0locale@2@A 10046ea0     libcpmt:wlocale.obj
 0003:00000ea4       ?id@?$numpunct@_W@std@@2V0locale@2@A 10046ea4     libcpmt:wlocale.obj
 0003:00000ea8       ?id@?$collate@_W@std@@2V0locale@2@A 10046ea8     libcpmt:wlocale.obj
 0003:00000eac       ?id@?$messages@_W@std@@2V0locale@2@A 10046eac     libcpmt:wlocale.obj
 0003:00000eb0       ?id@?$money_get@_WV?$istreambuf_iterator@_WU?$char_traits@_W@std@@@std@@@std@@2V0locale@2@A 10046eb0     libcpmt:wlocale.obj
 0003:00000eb4       ?id@?$money_put@_WV?$ostreambuf_iterator@_WU?$char_traits@_W@std@@@std@@@std@@2V0locale@2@A 10046eb4     libcpmt:wlocale.obj
 0003:00000eb8       ?id@?$moneypunct@_W$0A@@std@@2V0locale@2@A 10046eb8     libcpmt:wlocale.obj
 0003:00000ebc       ?id@?$moneypunct@_W$00@std@@2V0locale@2@A 10046ebc     libcpmt:wlocale.obj
 0003:00000ec0       ?id@?$time_get@_WV?$istreambuf_iterator@_WU?$char_traits@_W@std@@@std@@@std@@2V0locale@2@A 10046ec0     libcpmt:wlocale.obj
 0003:00000ec4       ?id@?$num_get@GV?$istreambuf_iterator@GU?$char_traits@G@std@@@std@@@std@@2V0locale@2@A 10046ec4     libcpmt:wlocale.obj
 0003:00000ec8       ?id@?$num_put@GV?$ostreambuf_iterator@GU?$char_traits@G@std@@@std@@@std@@2V0locale@2@A 10046ec8     libcpmt:wlocale.obj
 0003:00000ecc       ?id@?$numpunct@G@std@@2V0locale@2@A 10046ecc     libcpmt:wlocale.obj
 0003:00000ed0       ?id@?$collate@G@std@@2V0locale@2@A 10046ed0     libcpmt:wlocale.obj
 0003:00000ed4       ?id@?$messages@G@std@@2V0locale@2@A 10046ed4     libcpmt:wlocale.obj
 0003:00000ed8       ?id@?$money_get@GV?$istreambuf_iterator@GU?$char_traits@G@std@@@std@@@std@@2V0locale@2@A 10046ed8     libcpmt:wlocale.obj
 0003:00000edc       ?id@?$money_put@GV?$ostreambuf_iterator@GU?$char_traits@G@std@@@std@@@std@@2V0locale@2@A 10046edc     libcpmt:wlocale.obj
 0003:00000ee0       ?id@?$moneypunct@G$0A@@std@@2V0locale@2@A 10046ee0     libcpmt:wlocale.obj
 0003:00000ee4       ?id@?$moneypunct@G$00@std@@2V0locale@2@A 10046ee4     libcpmt:wlocale.obj
 0003:00000ee8       ?id@?$time_get@GV?$istreambuf_iterator@GU?$char_traits@G@std@@@std@@@std@@2V0locale@2@A 10046ee8     libcpmt:wlocale.obj
 0003:00000eec       ?id@?$time_put@GV?$ostreambuf_iterator@GU?$char_traits@G@std@@@std@@@std@@2V0locale@2@A 10046eec     libcpmt:wlocale.obj
 0003:00000ef0       ?id@?$collate@D@std@@2V0locale@2@A 10046ef0     libcpmt:xlocale.obj
 0003:00000ef4       ?id@?$messages@D@std@@2V0locale@2@A 10046ef4     libcpmt:xlocale.obj
 0003:00000ef8       ?id@?$money_get@DV?$istreambuf_iterator@DU?$char_traits@D@std@@@std@@@std@@2V0locale@2@A 10046ef8     libcpmt:xlocale.obj
 0003:00000efc       ?id@?$money_put@DV?$ostreambuf_iterator@DU?$char_traits@D@std@@@std@@@std@@2V0locale@2@A 10046efc     libcpmt:xlocale.obj
 0003:00000f00       ?id@?$moneypunct@D$0A@@std@@2V0locale@2@A 10046f00     libcpmt:xlocale.obj
 0003:00000f04       ?id@?$moneypunct@D$00@std@@2V0locale@2@A 10046f04     libcpmt:xlocale.obj
 0003:00000f08       ?id@?$time_get@DV?$istreambuf_iterator@DU?$char_traits@D@std@@@std@@@std@@2V0locale@2@A 10046f08     libcpmt:xlocale.obj
 0003:00000f0c       ?id@?$time_put@DV?$ostreambuf_iterator@DU?$char_traits@D@std@@@std@@@std@@2V0locale@2@A 10046f0c     libcpmt:xlocale.obj
 0003:00000f38       ___scrt_current_native_startup_state 10046f38     LIBCMT:utility.obj
 0003:00000f3c       ___scrt_native_startup_lock 10046f3c     LIBCMT:utility.obj
 0003:0000127c       ___scrt_debugger_hook_flag 1004727c     LIBCMT:utility_desktop.obj
 0003:00001280       __tls_index                10047280     LIBCMT:tlssup.obj
 0003:00001284       ___isa_available           10047284     LIBCMT:_cpu_disp_.obj
 0003:00001288       ___favor                   10047288     LIBCMT:_cpu_disp_.obj
 0003:00001290       ?__type_info_root_node@@3U__type_info_node@@A 10047290     LIBCMT:tncleanup.obj
 0003:00001298       ?_OptionsStorage@?1??__local_stdio_scanf_options@@9@4_KA 10047298     LIBCMT:default_local_stdio_options.obj
 0003:000012a0       ?g_OutOfMemoryExceptionCallback@@3P6GPAXXZA 100472a0     libvcruntime:frame.obj
 0003:000012d8       ___pPurecall               100472d8     libvcruntime:purevirt_data.obj
 0003:00001320       ?pArgList@UnDecorator@@0PAVReplicator@@A 10047320     libvcruntime:undname.obj
 0003:00001324       ?pZNameList@UnDecorator@@0PAVReplicator@@A 10047324     libvcruntime:undname.obj
 0003:00001328       ?pTemplateArgList@UnDecorator@@0PAVReplicator@@A 10047328     libvcruntime:undname.obj
 0003:0000132c       ?gName@UnDecorator@@0PBDB  1004732c     libvcruntime:undname.obj
 0003:00001330       ?name@UnDecorator@@0PBDB   10047330     libvcruntime:undname.obj
 0003:00001334       ?outputString@UnDecorator@@0PADA 10047334     libvcruntime:undname.obj
 0003:00001338       ?maxStringLength@UnDecorator@@0HA 10047338     libvcruntime:undname.obj
 0003:0000133c       ?disableFlags@UnDecorator@@0KA 1004733c     libvcruntime:undname.obj
 0003:00001340       ?fExplicitTemplateParams@UnDecorator@@0_NA 10047340     libvcruntime:undname.obj
 0003:00001341       ?fGetTemplateArgumentList@UnDecorator@@0_NA 10047341     libvcruntime:undname.obj
 0003:00001344       ?m_pGetParameter@UnDecorator@@0P6APADJ@ZA 10047344     libvcruntime:undname.obj
 0003:00001360       __nstream                  10047360     libucrt:_file.obj
 0003:00001364       ___piob                    10047364     libucrt:_file.obj
 0003:00001368       __cflush                   10047368     libucrt:_file.obj
 0003:000014ac       ___acrt_lconv_static_null  100474ac     libucrt:localeconv.obj
 0003:000014b0       ___acrt_lconv_static_W_null 100474b0     libucrt:localeconv.obj
 0003:000015d0       __environ_table            100475d0     libucrt:environment_initialization.obj
 0003:000015d4       __wenviron_table           100475d4     libucrt:environment_initialization.obj
 0003:000015d8       ___dcrt_initial_wide_environment 100475d8     libucrt:environment_initialization.obj
 0003:000015dc       ___dcrt_initial_narrow_environment 100475dc     libucrt:environment_initialization.obj
 0003:000015e0       ___acrt_atexit_table       100475e0     libucrt:onexit.obj
 0003:000015ec       ___acrt_at_quick_exit_table 100475ec     libucrt:onexit.obj
 0003:000016e8       ___pioinfo                 100476e8     libucrt:ioinit.obj
 0003:000018e8       __nhandle                  100478e8     libucrt:ioinit.obj
 0003:000018f0       ___acrt_stdout_buffer      100478f0     libucrt:_sftbuf.obj
 0003:000018f4       ___acrt_stderr_buffer      100478f4     libucrt:_sftbuf.obj
 0003:000018f8       ___acrt_locale_changed_data 100478f8     libucrt:wsetlocale.obj
 0003:000018fc       ___acrt_current_locale_data 100478fc     libucrt:nlsdata.obj
 0003:00001904       ___acrt_heap               10047904     libucrt:heap_handle.obj
 0003:00001908       ___fastflag                10047908     libucrt:fp_flags.obj
 0003:0000190c       ?_timezone@@3V?$dual_state_global@J@__crt_state_management@@A 1004790c     libucrt:timeset.obj
 0003:00001910       ?_daylight@@3V?$dual_state_global@H@__crt_state_management@@A 10047910     libucrt:timeset.obj
 0003:00001914       ?_dstbias@@3V?$dual_state_global@J@__crt_state_management@@A 10047914     libucrt:timeset.obj
 0003:000019d4       ___mblocalename            100479d4     libucrt:mbctype.obj
 0003:000019d8       ___mbcodepage              100479d8     libucrt:mbctype.obj
 0003:000019dc       ___ismbcodepage            100479dc     libucrt:mbctype.obj
 0003:000019e0       ___mbulinfo                100479e0     libucrt:mbctype.obj
 0003:000019f4       ___argc                    100479f4     libucrt:argv_data.obj
 0003:000019f8       ___argv                    100479f8     libucrt:argv_data.obj
 0003:000019fc       ___wargv                   100479fc     libucrt:argv_data.obj
 0003:00001a00       __acmdln                   10047a00     libucrt:argv_data.obj
 0003:00001a04       __wcmdln                   10047a04     libucrt:argv_data.obj
 0003:00001a08       __pgmptr                   10047a08     libucrt:argv_data.obj
 0003:00001a10       __commode                  10047a10     libucrt:ncommode.obj
 0003:00001a18       __umaskval                 10047a18     libucrt:umask.obj
 0003:00001a1c       __fmode                    10047a1c     libucrt:txtmode.obj
 0003:00001a20       ?DloadKernel32@@3PAUHINSTANCE__@@A 10047a20     DelayImp:delayhlp.obj
 0003:00001a24       ?DloadAcquireSRWLockExclusive@@3P6GXPAK@ZA 10047a24     DelayImp:delayhlp.obj
 0003:00001a28       ?DloadReleaseSRWLockExclusive@@3P6GXPAK@ZA 10047a28     DelayImp:delayhlp.obj
 0003:00001a2c       ?DloadSrwLock@@3KA         10047a2c     DelayImp:delayhlp.obj
 0003:00001a30       ?DloadSectionLockCount@@3KA 10047a30     DelayImp:delayhlp.obj
 0003:00001a34       ?DloadSectionOldProtection@@3KA 10047a34     DelayImp:delayhlp.obj
 0003:00001a38       ?DloadSectionCommitPermanent@@3KA 10047a38     DelayImp:delayhlp.obj
 0003:00001a3c       ?pattern_repeat_key@@3PBU_cairo_user_data_key@@B 10047a3c     CanvasPattern.obj
 0003:00001a40       ?constructor@ImageBackend@@2V?$Persistent@VFunctionTemplate@v8@@V?$NonCopyablePersistentTraits@VFunctionTemplate@v8@@@2@@Nan@@A 10047a40     ImageBackend.obj
 0003:00001a44       ?constructor@PdfBackend@@2V?$Persistent@VFunctionTemplate@v8@@V?$NonCopyablePersistentTraits@VFunctionTemplate@v8@@@2@@Nan@@A 10047a44     PdfBackend.obj
 0003:00001a48       ?constructor@SvgBackend@@2V?$Persistent@VFunctionTemplate@v8@@V?$NonCopyablePersistentTraits@VFunctionTemplate@v8@@@2@@Nan@@A 10047a48     SvgBackend.obj
 0003:00001a4c       ?constructor@Canvas@@2V?$Persistent@VFunctionTemplate@v8@@V?$NonCopyablePersistentTraits@VFunctionTemplate@v8@@@2@@Nan@@A 10047a4c     Canvas.obj
 0003:00001a50       ?_font_face_list@Canvas@@0V?$vector@VFontFace@@V?$allocator@VFontFace@@@std@@@std@@A 10047a50     Canvas.obj
 0003:00001a5c       ?constructor@Gradient@@2V?$Persistent@VFunctionTemplate@v8@@V?$NonCopyablePersistentTraits@VFunctionTemplate@v8@@@2@@Nan@@A 10047a5c     CanvasGradient.obj
 0003:00001a60       ?constructor@Pattern@@2V?$Persistent@VFunctionTemplate@v8@@V?$NonCopyablePersistentTraits@VFunctionTemplate@v8@@@2@@Nan@@A 10047a60     CanvasPattern.obj
 0003:00001a64       ?constructor@Context2d@@2V?$Persistent@VFunctionTemplate@v8@@V?$NonCopyablePersistentTraits@VFunctionTemplate@v8@@@2@@Nan@@A 10047a64     CanvasRenderingContext2d.obj
 0003:00001a68       ?constructor@Image@@2V?$Persistent@VFunctionTemplate@v8@@V?$NonCopyablePersistentTraits@VFunctionTemplate@v8@@@2@@Nan@@A 10047a68     Image.obj
 0003:00001a6c       ?constructor@ImageData@@2V?$Persistent@VFunctionTemplate@v8@@V?$NonCopyablePersistentTraits@VFunctionTemplate@v8@@@2@@Nan@@A 10047a6c     ImageData.obj
 0003:00001a70       ?_OptionsStorage@?1??__local_stdio_printf_options@@9@4_KA 10047a70     color.obj
 0003:00001a78       ___dyn_tls_init_callback   10047a78     <common>
 0003:00001a7c       ___scrt_ucrt_dll_is_in_use 10047a7c     <common>
 0003:00001a80       __pmatherr                 10047a80     <common>
 0003:00001a84       ___use_sse2_mathfcns       10047a84     <common>
 0005:00000000       __tls_start                10049000     LIBCMT:tlssup.obj
 0005:00000004       __Init_thread_epoch        10049004     LIBCMT:thread_safe_statics.obj
 0005:00000008       __tls_end                  10049008     LIBCMT:tlssup.obj

 entry point at        0001:0001500a

 Static symbols

 0000:fffb1000       .debug$S                   10000000     cairo:libcairo-2.dll
 0000:fffb1000       .debug$S                   10000000     node:node.exe
 0000:fffb1000       .debug$S                   10000000     node:node.exe
 0000:fffb1000       .debug$S                   10000000     node:node.exe
 0000:fffb1000       .debug$S                   10000000     node:node.exe
 0000:fffb1000       .debug$S                   10000000     node:node.exe
 0000:fffb1000       .debug$S                   10000000     node:node.exe
 0000:fffb1000       .debug$S                   10000000     node:node.exe
 0000:fffb1000       .debug$S                   10000000     node:node.exe
 0000:fffb1000       .debug$S                   10000000     node:node.exe
 0000:fffb1000       .debug$S                   10000000     node:node.exe
 0000:fffb1000       .debug$S                   10000000     node:node.exe
 0000:fffb1000       .debug$S                   10000000     node:node.exe
 0000:fffb1000       .debug$S                   10000000     node:node.exe
 0000:fffb1000       .debug$S                   10000000     node:node.exe
 0000:fffb1000       .debug$S                   10000000     node:node.exe
 0000:fffb1000       .debug$S                   10000000     node:node.exe
 0000:fffb1000       .debug$S                   10000000     node:node.exe
 0000:fffb1000       .debug$S                   10000000     node:node.exe
 0000:fffb1000       .debug$S                   10000000     node:node.exe
 0000:fffb1000       .debug$S                   10000000     node:node.exe
 0000:fffb1000       .debug$S                   10000000     node:node.exe
 0000:fffb1000       .debug$S                   10000000     node:node.exe
 0000:fffb1000       .debug$S                   10000000     node:node.exe
 0000:fffb1000       .debug$S                   10000000     node:node.exe
 0000:fffb1000       .debug$S                   10000000     node:node.exe
 0000:fffb1000       .debug$S                   10000000     node:node.exe
 0000:fffb1000       .debug$S                   10000000     node:node.exe
 0000:fffb1000       .debug$S                   10000000     node:node.exe
 0000:fffb1000       .debug$S                   10000000     node:node.exe
 0000:fffb1000       .debug$S                   10000000     node:node.exe
 0000:fffb1000       .debug$S                   10000000     node:node.exe
 0000:fffb1000       .debug$S                   10000000     node:node.exe
 0000:fffb1000       .debug$S                   10000000     node:node.exe
 0000:fffb1000       .debug$S                   10000000     node:node.exe
 0000:fffb1000       .debug$S                   10000000     node:node.exe
 0000:fffb1000       .debug$S                   10000000     gdi32:GDI32.dll
 0000:fffb1000       .debug$S                   10000000     node:node.exe
 0000:fffb1000       .debug$S                   10000000     kernel32:KERNEL32.dll
 0000:fffb1000       .debug$S                   10000000     kernel32:KERNEL32.dll
 0000:fffb1000       .debug$S                   10000000     kernel32:KERNEL32.dll
 0000:fffb1000       .debug$S                   10000000     kernel32:KERNEL32.dll
 0000:fffb1000       .debug$S                   10000000     kernel32:KERNEL32.dll
 0000:fffb1000       .debug$S                   10000000     kernel32:KERNEL32.dll
 0000:fffb1000       .debug$S                   10000000     kernel32:KERNEL32.dll
 0000:fffb1000       .debug$S                   10000000     kernel32:KERNEL32.dll
 0000:fffb1000       .debug$S                   10000000     kernel32:KERNEL32.dll
 0000:fffb1000       .debug$S                   10000000     kernel32:KERNEL32.dll
 0000:fffb1000       .debug$S                   10000000     kernel32:KERNEL32.dll
 0000:fffb1000       .debug$S                   10000000     kernel32:KERNEL32.dll
 0000:fffb1000       .debug$S                   10000000     kernel32:KERNEL32.dll
 0000:fffb1000       .debug$S                   10000000     kernel32:KERNEL32.dll
 0000:fffb1000       .debug$S                   10000000     kernel32:KERNEL32.dll
 0000:fffb1000       .debug$S                   10000000     kernel32:KERNEL32.dll
 0000:fffb1000       .debug$S                   10000000     kernel32:KERNEL32.dll
 0000:fffb1000       .debug$S                   10000000     kernel32:KERNEL32.dll
 0000:fffb1000       .debug$S                   10000000     kernel32:KERNEL32.dll
 0000:fffb1000       .debug$S                   10000000     kernel32:KERNEL32.dll
 0000:fffb1000       .debug$S                   10000000     kernel32:KERNEL32.dll
 0000:fffb1000       .debug$S                   10000000     kernel32:KERNEL32.dll
 0000:fffb1000       .debug$S                   10000000     kernel32:KERNEL32.dll
 0000:fffb1000       .debug$S                   10000000     kernel32:KERNEL32.dll
 0000:fffb1000       .debug$S                   10000000     kernel32:KERNEL32.dll
 0000:fffb1000       .debug$S                   10000000     kernel32:KERNEL32.dll
 0000:fffb1000       .debug$S                   10000000     kernel32:KERNEL32.dll
 0000:fffb1000       .debug$S                   10000000     kernel32:KERNEL32.dll
 0000:fffb1000       .debug$S                   10000000     kernel32:KERNEL32.dll
 0000:fffb1000       .debug$S                   10000000     kernel32:KERNEL32.dll
 0000:fffb1000       .debug$S                   10000000     kernel32:KERNEL32.dll
 0000:fffb1000       .debug$S                   10000000     kernel32:KERNEL32.dll
 0000:fffb1000       .debug$S                   10000000     kernel32:KERNEL32.dll
 0000:fffb1000       .debug$S                   10000000     kernel32:KERNEL32.dll
 0000:fffb1000       .debug$S                   10000000     kernel32:KERNEL32.dll
 0000:fffb1000       .debug$S                   10000000     kernel32:KERNEL32.dll
 0000:fffb1000       .debug$S                   10000000     kernel32:KERNEL32.dll
 0000:fffb1000       .debug$S                   10000000     kernel32:KERNEL32.dll
 0000:fffb1000       .debug$S                   10000000     kernel32:KERNEL32.dll
 0000:fffb1000       .debug$S                   10000000     kernel32:KERNEL32.dll
 0000:fffb1000       .debug$S                   10000000     kernel32:KERNEL32.dll
 0000:fffb1000       .debug$S                   10000000     kernel32:KERNEL32.dll
 0000:fffb1000       .debug$S                   10000000     jpeg:jpeg62.dll
 0000:fffb1000       .debug$S                   10000000     jpeg:jpeg62.dll
 0000:fffb1000       .debug$S                   10000000     jpeg:jpeg62.dll
 0000:fffb1000       .debug$S                   10000000     jpeg:jpeg62.dll
 0000:fffb1000       .debug$S                   10000000     jpeg:jpeg62.dll
 0000:fffb1000       .debug$S                   10000000     jpeg:jpeg62.dll
 0000:fffb1000       .debug$S                   10000000     kernel32:KERNEL32.dll
 0000:fffb1000       .debug$S                   10000000     kernel32:KERNEL32.dll
 0000:fffb1000       .debug$S                   10000000     kernel32:KERNEL32.dll
 0000:fffb1000       .debug$S                   10000000     jpeg:jpeg62.dll
 0000:fffb1000       .debug$S                   10000000     kernel32:KERNEL32.dll
 0000:fffb1000       .debug$S                   10000000     kernel32:KERNEL32.dll
 0000:fffb1000       .debug$S                   10000000     kernel32:KERNEL32.dll
 0000:fffb1000       .debug$S                   10000000     kernel32:KERNEL32.dll
 0000:fffb1000       .debug$S                   10000000     kernel32:KERNEL32.dll
 0000:fffb1000       .debug$S                   10000000     kernel32:KERNEL32.dll
 0000:fffb1000       .debug$S                   10000000     kernel32:KERNEL32.dll
 0000:fffb1000       .debug$S                   10000000     kernel32:KERNEL32.dll
 0000:fffb1000       .debug$S                   10000000     kernel32:KERNEL32.dll
 0000:fffb1000       .debug$S                   10000000     kernel32:KERNEL32.dll
 0000:fffb1000       .debug$S                   10000000     jpeg:jpeg62.dll
 0000:fffb1000       .debug$S                   10000000     jpeg:jpeg62.dll
 0000:fffb1000       .debug$S                   10000000     jpeg:jpeg62.dll
 0000:fffb1000       .debug$S                   10000000     jpeg:jpeg62.dll
 0000:fffb1000       .debug$S                   10000000     jpeg:jpeg62.dll
 0000:fffb1000       .debug$S                   10000000     jpeg:jpeg62.dll
 0000:fffb1000       .debug$S                   10000000     jpeg:jpeg62.dll
 0000:fffb1000       .debug$S                   10000000     jpeg:jpeg62.dll
 0000:fffb1000       .debug$S                   10000000     jpeg:jpeg62.dll
 0000:fffb1000       .debug$S                   10000000     jpeg:jpeg62.dll
 0000:fffb1000       .debug$S                   10000000     jpeg:jpeg62.dll
 0000:fffb1000       .debug$S                   10000000     gobject-2.0:libgobject-2.0-0.dll
 0000:fffb1000       .debug$S                   10000000     glib-2.0:libglib-2.0-0.dll
 0000:fffb1000       .debug$S                   10000000     glib-2.0:libglib-2.0-0.dll
 0000:fffb1000       .debug$S                   10000000     glib-2.0:libglib-2.0-0.dll
 0000:fffb1000       .debug$S                   10000000     glib-2.0:libglib-2.0-0.dll
 0000:fffb1000       .debug$S                   10000000     glib-2.0:libglib-2.0-0.dll
 0000:fffb1000       .debug$S                   10000000     glib-2.0:libglib-2.0-0.dll
 0000:fffb1000       .debug$S                   10000000     glib-2.0:libglib-2.0-0.dll
 0000:fffb1000       .debug$S                   10000000     glib-2.0:libglib-2.0-0.dll
 0000:fffb1000       .debug$S                   10000000     glib-2.0:libglib-2.0-0.dll
 0000:fffb1000       .debug$S                   10000000     glib-2.0:libglib-2.0-0.dll
 0000:fffb1000       .debug$S                   10000000     glib-2.0:libglib-2.0-0.dll
 0000:fffb1000       .debug$S                   10000000     glib-2.0:libglib-2.0-0.dll
 0000:fffb1000       .debug$S                   10000000     glib-2.0:libglib-2.0-0.dll
 0000:fffb1000       .debug$S                   10000000     glib-2.0:libglib-2.0-0.dll
 0000:fffb1000       .debug$S                   10000000     glib-2.0:libglib-2.0-0.dll
 0000:fffb1000       .debug$S                   10000000     glib-2.0:libglib-2.0-0.dll
 0000:fffb1000       .debug$S                   10000000     glib-2.0:libglib-2.0-0.dll
 0000:fffb1000       .debug$S                   10000000     glib-2.0:libglib-2.0-0.dll
 0000:fffb1000       .debug$S                   10000000     glib-2.0:libglib-2.0-0.dll
 0000:fffb1000       .debug$S                   10000000     glib-2.0:libglib-2.0-0.dll
 0000:fffb1000       .debug$S                   10000000     freetype:freetype6.dll
 0000:fffb1000       .debug$S                   10000000     freetype:freetype6.dll
 0000:fffb1000       .debug$S                   10000000     freetype:freetype6.dll
 0000:fffb1000       .debug$S                   10000000     freetype:freetype6.dll
 0000:fffb1000       .debug$S                   10000000     freetype:freetype6.dll
 0000:fffb1000       .debug$S                   10000000     freetype:freetype6.dll
 0000:fffb1000       .debug$S                   10000000     freetype:freetype6.dll
 0000:fffb1000       .debug$S                   10000000     pango-1.0:libpango-1.0-0.dll
 0000:fffb1000       .debug$S                   10000000     pango-1.0:libpango-1.0-0.dll
 0000:fffb1000       .debug$S                   10000000     pango-1.0:libpango-1.0-0.dll
 0000:fffb1000       .debug$S                   10000000     kernel32:KERNEL32.dll
 0000:fffb1000       .debug$S                   10000000     pango-1.0:libpango-1.0-0.dll
 0000:fffb1000       .debug$S                   10000000     pango-1.0:libpango-1.0-0.dll
 0000:fffb1000       .debug$S                   10000000     pango-1.0:libpango-1.0-0.dll
 0000:fffb1000       .debug$S                   10000000     pango-1.0:libpango-1.0-0.dll
 0000:fffb1000       .debug$S                   10000000     pango-1.0:libpango-1.0-0.dll
 0000:fffb1000       .debug$S                   10000000     pango-1.0:libpango-1.0-0.dll
 0000:fffb1000       .debug$S                   10000000     pango-1.0:libpango-1.0-0.dll
 0000:fffb1000       .debug$S                   10000000     pango-1.0:libpango-1.0-0.dll
 0000:fffb1000       .debug$S                   10000000     pango-1.0:libpango-1.0-0.dll
 0000:fffb1000       .debug$S                   10000000     pango-1.0:libpango-1.0-0.dll
 0000:fffb1000       .debug$S                   10000000     pango-1.0:libpango-1.0-0.dll
 0000:fffb1000       .debug$S                   10000000     pango-1.0:libpango-1.0-0.dll
 0000:fffb1000       .debug$S                   10000000     pango-1.0:libpango-1.0-0.dll
 0000:fffb1000       .debug$S                   10000000     pango-1.0:libpango-1.0-0.dll
 0000:fffb1000       .debug$S                   10000000     pango-1.0:libpango-1.0-0.dll
 0000:fffb1000       .debug$S                   10000000     pango-1.0:libpango-1.0-0.dll
 0000:fffb1000       .debug$S                   10000000     pango-1.0:libpango-1.0-0.dll
 0000:fffb1000       .debug$S                   10000000     pango-1.0:libpango-1.0-0.dll
 0000:fffb1000       .debug$S                   10000000     pango-1.0:libpango-1.0-0.dll
 0000:fffb1000       .debug$S                   10000000     pango-1.0:libpango-1.0-0.dll
 0000:fffb1000       .debug$S                   10000000     pango-1.0:libpango-1.0-0.dll
 0000:fffb1000       .debug$S                   10000000     pango-1.0:libpango-1.0-0.dll
 0000:fffb1000       .debug$S                   10000000     pango-1.0:libpango-1.0-0.dll
 0000:fffb1000       .debug$S                   10000000     pangocairo-1.0:libpangocairo-1.0-0.dll
 0000:fffb1000       .debug$S                   10000000     pangocairo-1.0:libpangocairo-1.0-0.dll
 0000:fffb1000       .debug$S                   10000000     pangocairo-1.0:libpangocairo-1.0-0.dll
 0000:fffb1000       .debug$S                   10000000     pangocairo-1.0:libpangocairo-1.0-0.dll
 0000:fffb1000       .debug$S                   10000000     pangocairo-1.0:libpangocairo-1.0-0.dll
 0000:fffb1000       .debug$S                   10000000     libpng:libpng14-14.dll
 0000:fffb1000       .debug$S                   10000000     libpng:libpng14-14.dll
 0000:fffb1000       .debug$S                   10000000     libpng:libpng14-14.dll
 0000:fffb1000       .debug$S                   10000000     libpng:libpng14-14.dll
 0000:fffb1000       .debug$S                   10000000     libpng:libpng14-14.dll
 0000:fffb1000       .debug$S                   10000000     libpng:libpng14-14.dll
 0000:fffb1000       .debug$S                   10000000     libpng:libpng14-14.dll
 0000:fffb1000       .debug$S                   10000000     libpng:libpng14-14.dll
 0000:fffb1000       .debug$S                   10000000     libpng:libpng14-14.dll
 0000:fffb1000       .debug$S                   10000000     libpng:libpng14-14.dll
 0000:fffb1000       .debug$S                   10000000     libpng:libpng14-14.dll
 0000:fffb1000       .debug$S                   10000000     libpng:libpng14-14.dll
 0000:fffb1000       .debug$S                   10000000     libpng:libpng14-14.dll
 0000:fffb1000       .debug$S                   10000000     libpng:libpng14-14.dll
 0000:fffb1000       .debug$S                   10000000     libpng:libpng14-14.dll
 0000:fffb1000       .debug$S                   10000000     libpng:libpng14-14.dll
 0000:fffb1000       .debug$S                   10000000     libpng:libpng14-14.dll
 0000:fffb1000       .debug$S                   10000000     libpng:libpng14-14.dll
 0000:fffb1000       .debug$S                   10000000     libpng:libpng14-14.dll
 0000:fffb1000       .debug$S                   10000000     libpng:libpng14-14.dll
 0000:fffb1000       .debug$S                   10000000     libpng:libpng14-14.dll
 0000:fffb1000       .debug$S                   10000000     libpng:libpng14-14.dll
 0000:fffb1000       .debug$S                   10000000     libpng:libpng14-14.dll
 0000:fffb1000       .debug$S                   10000000     cairo:libcairo-2.dll
 0000:fffb1000       .debug$S                   10000000     cairo:libcairo-2.dll
 0000:fffb1000       .debug$S                   10000000     cairo:libcairo-2.dll
 0000:fffb1000       .debug$S                   10000000     cairo:libcairo-2.dll
 0000:fffb1000       .debug$S                   10000000     cairo:libcairo-2.dll
 0000:fffb1000       .debug$S                   10000000     cairo:libcairo-2.dll
 0000:fffb1000       .debug$S                   10000000     cairo:libcairo-2.dll
 0000:fffb1000       .debug$S                   10000000     cairo:libcairo-2.dll
 0000:fffb1000       .debug$S                   10000000     cairo:libcairo-2.dll
 0000:fffb1000       .debug$S                   10000000     cairo:libcairo-2.dll
 0000:fffb1000       .debug$S                   10000000     cairo:libcairo-2.dll
 0000:fffb1000       .debug$S                   10000000     cairo:libcairo-2.dll
 0000:fffb1000       .debug$S                   10000000     cairo:libcairo-2.dll
 0000:fffb1000       .debug$S                   10000000     cairo:libcairo-2.dll
 0000:fffb1000       .debug$S                   10000000     cairo:libcairo-2.dll
 0000:fffb1000       .debug$S                   10000000     cairo:libcairo-2.dll
 0000:fffb1000       .debug$S                   10000000     cairo:libcairo-2.dll
 0000:fffb1000       .debug$S                   10000000     cairo:libcairo-2.dll
 0000:fffb1000       .debug$S                   10000000     cairo:libcairo-2.dll
 0000:fffb1000       .debug$S                   10000000     cairo:libcairo-2.dll
 0000:fffb1000       .debug$S                   10000000     cairo:libcairo-2.dll
 0000:fffb1000       .debug$S                   10000000     cairo:libcairo-2.dll
 0000:fffb1000       .debug$S                   10000000     cairo:libcairo-2.dll
 0000:fffb1000       .debug$S                   10000000     cairo:libcairo-2.dll
 0000:fffb1000       .debug$S                   10000000     cairo:libcairo-2.dll
 0000:fffb1000       .debug$S                   10000000     cairo:libcairo-2.dll
 0000:fffb1000       .debug$S                   10000000     cairo:libcairo-2.dll
 0000:fffb1000       .debug$S                   10000000     cairo:libcairo-2.dll
 0000:fffb1000       .debug$S                   10000000     cairo:libcairo-2.dll
 0000:fffb1000       .debug$S                   10000000     cairo:libcairo-2.dll
 0000:fffb1000       .debug$S                   10000000     cairo:libcairo-2.dll
 0000:fffb1000       .debug$S                   10000000     cairo:libcairo-2.dll
 0000:fffb1000       .debug$S                   10000000     cairo:libcairo-2.dll
 0000:fffb1000       .debug$S                   10000000     kernel32:KERNEL32.dll
 0000:fffb1000       .debug$S                   10000000     kernel32:KERNEL32.dll
 0000:fffb1000       .debug$S                   10000000     cairo:libcairo-2.dll
 0000:fffb1000       .debug$S                   10000000     cairo:libcairo-2.dll
 0000:fffb1000       .debug$S                   10000000     cairo:libcairo-2.dll
 0000:fffb1000       .debug$S                   10000000     cairo:libcairo-2.dll
 0000:fffb1000       .debug$S                   10000000     cairo:libcairo-2.dll
 0000:fffb1000       .debug$S                   10000000     cairo:libcairo-2.dll
 0000:fffb1000       .debug$S                   10000000     cairo:libcairo-2.dll
 0000:fffb1000       .debug$S                   10000000     cairo:libcairo-2.dll
 0000:fffb1000       .debug$S                   10000000     cairo:libcairo-2.dll
 0000:fffb1000       .debug$S                   10000000     cairo:libcairo-2.dll
 0000:fffb1000       .debug$S                   10000000     cairo:libcairo-2.dll
 0000:fffb1000       .debug$S                   10000000     cairo:libcairo-2.dll
 0000:fffb1000       .debug$S                   10000000     cairo:libcairo-2.dll
 0000:fffb1000       .debug$S                   10000000     cairo:libcairo-2.dll
 0000:fffb1000       .debug$S                   10000000     cairo:libcairo-2.dll
 0000:fffb1000       .debug$S                   10000000     cairo:libcairo-2.dll
 0000:fffb1000       .debug$S                   10000000     cairo:libcairo-2.dll
 0000:fffb1000       .debug$S                   10000000     kernel32:KERNEL32.dll
 0000:fffb1000       .debug$S                   10000000     cairo:libcairo-2.dll
 0000:fffb1000       .debug$S                   10000000     cairo:libcairo-2.dll
 0000:fffb1000       .debug$S                   10000000     cairo:libcairo-2.dll
 0000:fffb1000       .debug$S                   10000000     cairo:libcairo-2.dll
 0000:fffb1000       .debug$S                   10000000     cairo:libcairo-2.dll
 0000:fffb1000       .debug$S                   10000000     cairo:libcairo-2.dll
 0000:fffb1000       .debug$S                   10000000     cairo:libcairo-2.dll
 0000:fffb1000       .debug$S                   10000000     cairo:libcairo-2.dll
 0000:fffb1000       .debug$S                   10000000     cairo:libcairo-2.dll
 0000:fffb1000       .debug$S                   10000000     kernel32:KERNEL32.dll
 0000:fffb1000       .debug$S                   10000000     cairo:libcairo-2.dll
 0000:fffb1000       .debug$S                   10000000     cairo:libcairo-2.dll
 0000:fffb1000       .debug$S                   10000000     cairo:libcairo-2.dll
 0000:fffb1000       .debug$S                   10000000     cairo:libcairo-2.dll
 0000:fffb1000       .debug$S                   10000000     cairo:libcairo-2.dll
 0000:fffb1000       .debug$S                   10000000     cairo:libcairo-2.dll
 0000:fffb1000       .debug$S                   10000000     cairo:libcairo-2.dll
 0000:fffb1000       .debug$S                   10000000     cairo:libcairo-2.dll
 0000:fffb1000       .debug$S                   10000000     cairo:libcairo-2.dll
 0000:fffb1000       .debug$S                   10000000     cairo:libcairo-2.dll
 0000:fffb1000       .debug$S                   10000000     cairo:libcairo-2.dll
 0000:fffb1000       .debug$S                   10000000     cairo:libcairo-2.dll
 0000:fffb1000       .debug$S                   10000000     cairo:libcairo-2.dll
 0000:fffb1000       .debug$S                   10000000     cairo:libcairo-2.dll
 0000:fffb1000       .debug$S                   10000000     cairo:libcairo-2.dll
 0000:fffb1000       .debug$S                   10000000     cairo:libcairo-2.dll
 0000:fffb1000       .debug$S                   10000000     cairo:libcairo-2.dll
 0000:fffb1000       .debug$S                   10000000     cairo:libcairo-2.dll
 0000:fffb1000       .debug$S                   10000000     cairo:libcairo-2.dll
 0000:fffb1000       .debug$S                   10000000     cairo:libcairo-2.dll
 0000:fffb1000       .debug$S                   10000000     cairo:libcairo-2.dll
 0000:fffb1000       .debug$S                   10000000     cairo:libcairo-2.dll
 0000:fffb1000       .debug$S                   10000000     cairo:libcairo-2.dll
 0000:fffb1000       .debug$S                   10000000     cairo:libcairo-2.dll
 0000:fffb1000       .debug$S                   10000000     cairo:libcairo-2.dll
 0000:fffb1000       .debug$S                   10000000     kernel32:KERNEL32.dll
 0000:fffb1000       .debug$S                   10000000     cairo:libcairo-2.dll
 0000:fffb1000       .debug$S                   10000000     cairo:libcairo-2.dll
 0000:fffb1000       .debug$S                   10000000     cairo:libcairo-2.dll
 0000:fffb1000       .debug$S                   10000000     cairo:libcairo-2.dll
 0000:fffb1000       .debug$S                   10000000     kernel32:KERNEL32.dll
 0000:fffb1000       .debug$S                   10000000     kernel32:KERNEL32.dll
 0000:fffb1000       .debug$S                   10000000     kernel32:KERNEL32.dll
 0000:fffb1000       .debug$S                   10000000     kernel32:KERNEL32.dll
 0000:fffb1000       .debug$S                   10000000     cairo:libcairo-2.dll
 0000:fffb1000       .debug$S                   10000000     kernel32:KERNEL32.dll
 0000:fffb1000       .debug$S                   10000000     cairo:libcairo-2.dll
 0000:fffb1000       .debug$S                   10000000     cairo:libcairo-2.dll
 0000:fffb1000       .debug$S                   10000000     cairo:libcairo-2.dll
 0000:fffb1000       .debug$S                   10000000     cairo:libcairo-2.dll
 0000:fffb1000       .debug$S                   10000000     cairo:libcairo-2.dll
 0000:fffb1000       .debug$S                   10000000     cairo:libcairo-2.dll
 0000:fffb1000       .debug$S                   10000000     cairo:libcairo-2.dll
 0000:fffb1000       .debug$S                   10000000     cairo:libcairo-2.dll
 0000:fffb1000       .debug$S                   10000000     cairo:libcairo-2.dll
 0000:fffb1000       .debug$S                   10000000     cairo:libcairo-2.dll
 0000:fffb1000       .debug$S                   10000000     node:node.exe
 0000:fffb1000       .debug$S                   10000000     node:node.exe
 0000:fffb1000       .debug$S                   10000000     node:node.exe
 0000:fffb1000       .debug$S                   10000000     node:node.exe
 0000:fffb1000       .debug$S                   10000000     node:node.exe
 0000:fffb1000       .debug$S                   10000000     node:node.exe
 0000:fffb1000       .debug$S                   10000000     node:node.exe
 0000:fffb1000       .debug$S                   10000000     node:node.exe
 0000:fffb1000       .debug$S                   10000000     node:node.exe
 0000:fffb1000       .debug$S                   10000000     node:node.exe
 0000:fffb1000       .debug$S                   10000000     node:node.exe
 0000:fffb1000       .debug$S                   10000000     node:node.exe
 0000:fffb1000       .debug$S                   10000000     node:node.exe
 0000:fffb1000       .debug$S                   10000000     node:node.exe
 0000:fffb1000       .debug$S                   10000000     node:node.exe
 0000:fffb1000       .debug$S                   10000000     node:node.exe
 0000:fffb1000       .debug$S                   10000000     node:node.exe
 0000:fffb1000       .debug$S                   10000000     node:node.exe
 0000:fffb1000       .debug$S                   10000000     node:node.exe
 0000:fffb1000       .debug$S                   10000000     node:node.exe
 0000:fffb1000       .debug$S                   10000000     node:node.exe
 0000:fffb1000       .debug$S                   10000000     node:node.exe
 0000:fffb1000       .debug$S                   10000000     node:node.exe
 0000:fffb1000       .debug$S                   10000000     node:node.exe
 0000:fffb1000       .debug$S                   10000000     node:node.exe
 0000:fffb1000       .debug$S                   10000000     node:node.exe
 0000:fffb1000       .debug$S                   10000000     node:node.exe
 0000:fffb1000       .debug$S                   10000000     node:node.exe
 0000:fffb1000       .debug$S                   10000000     node:node.exe
 0000:fffb1000       .debug$S                   10000000     node:node.exe
 0000:fffb1000       .debug$S                   10000000     node:node.exe
 0000:fffb1000       .debug$S                   10000000     node:node.exe
 0000:fffb1000       .debug$S                   10000000     node:node.exe
 0000:fffb1000       .debug$S                   10000000     node:node.exe
 0000:fffb1000       .debug$S                   10000000     node:node.exe
 0000:fffb1000       .debug$S                   10000000     node:node.exe
 0000:fffb1000       .debug$S                   10000000     node:node.exe
 0000:fffb1000       .debug$S                   10000000     node:node.exe
 0000:fffb1000       .debug$S                   10000000     node:node.exe
 0000:fffb1000       .debug$S                   10000000     node:node.exe
 0000:fffb1000       .debug$S                   10000000     node:node.exe
 0000:fffb1000       .debug$S                   10000000     node:node.exe
 0000:fffb1000       .debug$S                   10000000     node:node.exe
 0000:fffb1000       .debug$S                   10000000     node:node.exe
 0000:fffb1000       .debug$S                   10000000     node:node.exe
 0000:fffb1000       .debug$S                   10000000     node:node.exe
 0000:fffb1000       .debug$S                   10000000     node:node.exe
 0000:fffb1000       .debug$S                   10000000     kernel32:KERNEL32.dll
 0000:fffb1000       .debug$S                   10000000     kernel32:KERNEL32.dll
 0000:fffb1000       .debug$S                   10000000     kernel32:KERNEL32.dll
 0000:fffb1000       .debug$S                   10000000     kernel32:KERNEL32.dll
 0000:fffb1000       .debug$S                   10000000     kernel32:KERNEL32.dll
 0000:fffb1000       .debug$S                   10000000     kernel32:KERNEL32.dll
 0000:fffb1000       .debug$S                   10000000     kernel32:KERNEL32.dll
 0000:fffb1000       .debug$S                   10000000     kernel32:KERNEL32.dll
 0000:fffb1000       .debug$S                   10000000     kernel32:KERNEL32.dll
 0000:fffb1000       .debug$S                   10000000     kernel32:KERNEL32.dll
 0000:fffb1000       .debug$S                   10000000     kernel32:KERNEL32.dll
 0000:fffb1000       .debug$S                   10000000     kernel32:KERNEL32.dll
 0000:fffb1000       .debug$S                   10000000     kernel32:KERNEL32.dll
 0000:fffb1000       .debug$S                   10000000     kernel32:KERNEL32.dll
 0000:fffb1000       .debug$S                   10000000     kernel32:KERNEL32.dll
 0000:fffb1000       .debug$S                   10000000     kernel32:KERNEL32.dll
 0000:fffb1000       .debug$S                   10000000     kernel32:KERNEL32.dll
 0000:fffb1000       .debug$S                   10000000     kernel32:KERNEL32.dll
 0000:fffb1000       .debug$S                   10000000     kernel32:KERNEL32.dll
 0000:fffb1000       .debug$S                   10000000     kernel32:KERNEL32.dll
 0000:fffb1000       .debug$S                   10000000     kernel32:KERNEL32.dll
 0000:fffb1000       .debug$S                   10000000     kernel32:KERNEL32.dll
 0000:fffb1000       .debug$S                   10000000     kernel32:KERNEL32.dll
 0000:fffb1000       .debug$S                   10000000     node:node.exe
 0000:fffb1000       .debug$S                   10000000     kernel32:KERNEL32.dll
 0000:fffb1000       .debug$S                   10000000     node:node.exe
 0000:fffb1000       .debug$S                   10000000     node:node.exe
 0000:fffb1000       .debug$S                   10000000     node:node.exe
 0000:fffb1000       .debug$S                   10000000     node:node.exe
 0000:fffb1000       .debug$S                   10000000     node:node.exe
 0000:fffb1000       .debug$S                   10000000     node:node.exe
 0000:fffb1000       .debug$S                   10000000     node:node.exe
 0000:fffb1000       .debug$S                   10000000     node:node.exe
 0000:fffb1000       .debug$S                   10000000     node:node.exe
 0000:fffb1000       .debug$S                   10000000     node:node.exe
 0000:fffb1000       .debug$S                   10000000     node:node.exe
 0000:fffb1000       .debug$S                   10000000     node:node.exe
 0000:fffb1000       .debug$S                   10000000     node:node.exe
 0000:fffb1000       .debug$S                   10000000     node:node.exe
 0000:fffb1000       .debug$S                   10000000     node:node.exe
 0000:fffb1000       .debug$S                   10000000     node:node.exe
 0000:fffb1000       .debug$S                   10000000     node:node.exe
 0000:fffb1000       .debug$S                   10000000     node:node.exe
 0000:fffb1000       .debug$S                   10000000     node:node.exe
 0000:fffb1000       .debug$S                   10000000     node:node.exe
 0000:fffb1000       .debug$S                   10000000     node:node.exe
 0000:fffb1000       .debug$S                   10000000     kernel32:KERNEL32.dll
 0000:fffb1000       .debug$S                   10000000     node:node.exe
 0000:fffb1000       .debug$S                   10000000     node:node.exe
 0000:fffb1000       .debug$S                   10000000     node:node.exe
 0000:fffb1000       .debug$S                   10000000     node:node.exe
 0000:fffb1000       .debug$S                   10000000     node:node.exe
 0000:fffb1000       .debug$S                   10000000     node:node.exe
 0000:fffb1000       .debug$S                   10000000     node:node.exe
 0000:fffb1000       .debug$S                   10000000     node:node.exe
 0000:fffb1000       .debug$S                   10000000     kernel32:KERNEL32.dll
 0000:fffb1000       .debug$S                   10000000     kernel32:KERNEL32.dll
 0000:fffb1000       .debug$S                   10000000     kernel32:KERNEL32.dll
 0000:fffb1000       .debug$S                   10000000     node:node.exe
 0000:fffb1000       .debug$S                   10000000     node:node.exe
 0000:fffb1000       .debug$S                   10000000     canvas.exp
 0000:fffb1000       .debug$S                   10000000     node:node.exe
 0000:fffb1000       .debug$S                   10000000     node:node.exe
 0000:fffb1000       .debug$S                   10000000     node:node.exe
 0000:fffb1000       .debug$S                   10000000     node:node.exe
 0000:fffb1000       .debug$S                   10000000     node:node.exe
 0000:fffb1000       .debug$S                   10000000     kernel32:KERNEL32.dll
 0000:fffb1000       .debug$S                   10000000     kernel32:KERNEL32.dll
 0000:fffb1000       .debug$S                   10000000     kernel32:KERNEL32.dll
 0000:fffb1000       .debug$S                   10000000     kernel32:KERNEL32.dll
 0000:fffb1000       .debug$S                   10000000     kernel32:KERNEL32.dll
 0000:fffb1000       .debug$S                   10000000     node:node.exe
 0001:00000000       ??__E?constructor@ImageBackend@@2V?$Persistent@VFunctionTemplate@v8@@V?$NonCopyablePersistentTraits@VFunctionTemplate@v8@@@2@@Nan@@A@@YAXXZ 10001000 f   ImageBackend.obj
 0001:00000020       ??__E?constructor@PdfBackend@@2V?$Persistent@VFunctionTemplate@v8@@V?$NonCopyablePersistentTraits@VFunctionTemplate@v8@@@2@@Nan@@A@@YAXXZ 10001020 f   PdfBackend.obj
 0001:00000040       ??__E?constructor@SvgBackend@@2V?$Persistent@VFunctionTemplate@v8@@V?$NonCopyablePersistentTraits@VFunctionTemplate@v8@@@2@@Nan@@A@@YAXXZ 10001040 f   SvgBackend.obj
 0001:00000060       ??__E?constructor@Canvas@@2V?$Persistent@VFunctionTemplate@v8@@V?$NonCopyablePersistentTraits@VFunctionTemplate@v8@@@2@@Nan@@A@@YAXXZ 10001060 f   Canvas.obj
 0001:00000080       ??__E?_font_face_list@Canvas@@0V?$vector@VFontFace@@V?$allocator@VFontFace@@@std@@@std@@A@@YAXXZ 10001080 f   Canvas.obj
 0001:000000a0       ??__E?constructor@Gradient@@2V?$Persistent@VFunctionTemplate@v8@@V?$NonCopyablePersistentTraits@VFunctionTemplate@v8@@@2@@Nan@@A@@YAXXZ 100010a0 f   CanvasGradient.obj
 0001:000000c0       ??__E?constructor@Pattern@@2V?$Persistent@VFunctionTemplate@v8@@V?$NonCopyablePersistentTraits@VFunctionTemplate@v8@@@2@@Nan@@A@@YAXXZ 100010c0 f   CanvasPattern.obj
 0001:000000e0       ??__E?constructor@Context2d@@2V?$Persistent@VFunctionTemplate@v8@@V?$NonCopyablePersistentTraits@VFunctionTemplate@v8@@@2@@Nan@@A@@YAXXZ 100010e0 f   CanvasRenderingContext2d.obj
 0001:00000100       ??__E?constructor@Image@@2V?$Persistent@VFunctionTemplate@v8@@V?$NonCopyablePersistentTraits@VFunctionTemplate@v8@@@2@@Nan@@A@@YAXXZ 10001100 f   Image.obj
 0001:00000120       ??__E?constructor@ImageData@@2V?$Persistent@VFunctionTemplate@v8@@V?$NonCopyablePersistentTraits@VFunctionTemplate@v8@@@2@@Nan@@A@@YAXXZ 10001120 f   ImageData.obj
 0001:00000136       ??__Einitlocks@std@@YAXXZ  10001136 f   libcpmt:xlock.obj
 0001:0000014c       ??__E_Fac_tidy_reg@std@@YAXXZ 1000114c f   libcpmt:locale0.obj
 0001:00000158       ??__Eclassic_locale@std@@YAXXZ 10001158 f   libcpmt:locale0.obj
 0001:00000164       ??__Einit_atexit@@YAXXZ    10001164 f   libcpmt:iosptrs.obj
 0001:00000170       ??__Einitlocks@std@@YAXXZ  10001170 f   libcpmt:iosptrs.obj
 0001:000009a0       ?FunctionCallbackWrapper@imp@Nan@@YAXABV?$FunctionCallbackInfo@VValue@v8@@@v8@@@Z 100019a0 f   ImageBackend.obj
 0001:00000eb8       $LN22                      10001eb8     ImageBackend.obj
 0001:00000f8c       $LN14                      10001f8c     ImageBackend.obj
 0001:00001018       $LN19                      10002018     ImageBackend.obj
 0001:00001d70       ?GetterCallbackWrapper@imp@Nan@@YAXV?$Local@VName@v8@@@v8@@ABV?$PropertyCallbackInfo@VValue@v8@@@4@@Z 10002d70 f   Canvas.obj
 0001:00001e20       ?SetterCallbackWrapper@imp@Nan@@YAXV?$Local@VName@v8@@@v8@@V?$Local@VValue@v8@@@4@ABV?$PropertyCallbackInfo@X@4@@Z 10002e20 f   Canvas.obj
 0001:00002890       ?init_source@@YAXPAUjpeg_decompress_struct@@@Z 10003890 f   Image.obj
 0001:00002890       ?term_source@@YAXPAUjpeg_decompress_struct@@@Z 10003890 f   Image.obj
 0001:00002890       ?canvas_png_flush@@YAXPAUpng_struct_def@@@Z 10003890 f   Canvas.obj
 0001:000028a0       ?canvas_convert_data_to_bytes@@YAXPAUpng_struct_def@@PAUpng_row_info_struct@@PAE@Z 100038a0 f   Canvas.obj
 0001:000028f0       ?canvas_unpremultiply_data@@YAXPAUpng_struct_def@@PAUpng_row_info_struct@@PAE@Z 100038f0 f   Canvas.obj
 0001:00002990       ?canvas_convert_565_to_888@@YAXPAUpng_struct_def@@PAUpng_row_info_struct@@PAE@Z 10003990 f   Canvas.obj
 0001:00002a70       ?canvas_write_png@@YA?AW4_cairo_status@@PAU_cairo_surface@@P6AXPAUpng_struct_def@@PAEI@ZPAUcanvas_png_write_closure_t@@@Z 10003a70 f   Canvas.obj
 0001:00002ec4       $LN46                      10003ec4     Canvas.obj
 0001:00002ee0       ?canvas_stream_write_func@@YAXPAUpng_struct_def@@PAEI@Z 10003ee0 f   Canvas.obj
 0001:00002f30       ?canvas_write_to_png_stream@@YA?AW4_cairo_status@@PAU_cairo_surface@@P6A?AW41@PAXPBEI@ZPAUclosure_t@@@Z 10003f30 f   Canvas.obj
 0001:00004980       ?streamPNG@@YA?AW4_cairo_status@@PAXPBEI@Z 10005980 f   Canvas.obj
 0001:00005090       ?streamPDF@@YA?AW4_cairo_status@@PAXPBEI@Z 10006090 f   Canvas.obj
 0001:00009798       $LN282                     1000a798     CanvasRenderingContext2d.obj
 0001:00009e48       $LN384                     1000ae48     CanvasRenderingContext2d.obj
 0001:0000a3f8       $LN357                     1000b3f8     CanvasRenderingContext2d.obj
 0001:0000ae54       $LN79                      1000be54     CanvasRenderingContext2d.obj
 0001:0000b130       $LN53                      1000c130     CanvasRenderingContext2d.obj
 0001:0000be48       $LN55                      1000ce48     CanvasRenderingContext2d.obj
 0001:00010940       ?parse_clipped_percentage@@YA_NPAPBDPAM@Z 10011940 f   color.obj
 0001:000109a0       ?h@@YAHD@Z                 100119a0 f   color.obj
 0001:000109c4       $LN10                      100119c4     color.obj
 0001:000109d4       $LN8                       100119d4     color.obj
 0001:00010b60       ?rgba_from_hsla@@YAHMMMM@Z 10011b60 f   color.obj
 0001:00010e40       ?rgba_from_hex8_string@@YAHPBD@Z 10011e40 f   color.obj
 0001:00010ec0       ?rgba_from_hex6_string@@YAHPBD@Z 10011ec0 f   color.obj
 0001:00010f30       ?rgba_from_hex4_string@@YAHPBD@Z 10011f30 f   color.obj
 0001:00010fb0       ?rgba_from_hex3_string@@YAHPBD@Z 10011fb0 f   color.obj
 0001:00011010       ?rgba_from_rgb_string@@YAHPBDPAF@Z 10012010 f   color.obj
 0001:00011170       ?rgba_from_rgba_string@@YAHPBDPAF@Z 10012170 f   color.obj
 0001:00011350       ?rgba_from_hsla_string@@YAHPBDPAF@Z 10012350 f   color.obj
 0001:00011550       ?rgba_from_hsl_string@@YAHPBDPAF@Z 10012550 f   color.obj
 0001:000116e0       ?rgba_from_hex_string@@YAHPBDPAF@Z 100126e0 f   color.obj
 0001:0001172c       $LN13                      1001272c     color.obj
 0001:00011750       ?rgba_from_name_string@@YAHPBDPAF@Z 10012750 f   color.obj
 0001:00011870       ??$parse_integer@H@@YA_NPAPBDPAH@Z 10012870 f   color.obj
 0001:000118e0       ??$parse_css_number@M@@YA_NPAPBDPAM@Z 100128e0 f   color.obj
 0001:00012940       ?fill_input_buffer@@YAEPAUjpeg_decompress_struct@@@Z 10013940 f   Image.obj
 0001:00012960       ?skip_input_data@@YAXPAUjpeg_decompress_struct@@J@Z 10013960 f   Image.obj
 0001:00012b30       ?canvas_jpeg_error_exit@@YAXPAUjpeg_common_struct@@@Z 10013b30 f   Image.obj
 0001:00013840       __register_canvas          10014840 f   init.obj
 0001:00013b74       $LN17                      10014b74     register_font.obj
 0001:00013d00       ?load_exe_hook@@YGP6GHXZIPAUDelayLoadInfo@@@Z 10014d00 f   win_delay_load_hook.obj
 0001:000144a0       ?initialize_pointers@@YAHXZ 100154a0 f   libcpmt:winapisupp.obj
 0001:00014893       ?__scrt_initialize_thread_safe_statics@@YAHXZ 10015893 f   LIBCMT:thread_safe_statics.obj
 0001:00014970       ?__scrt_uninitialize_thread_safe_statics@@YAXXZ 10015970 f   LIBCMT:thread_safe_statics.obj
 0001:000149bf       ?find_pe_section@@YAPAU_IMAGE_SECTION_HEADER@@QAEI@Z 100159bf f   LIBCMT:utility.obj
 0001:00014d02       ?dllmain_crt_dispatch@@YGHQAUHINSTANCE__@@KQAX@Z 10015d02 f   LIBCMT:dll_dllmain.obj
 0001:00014d55       ?dllmain_crt_process_attach@@YAHQAUHINSTANCE__@@QAX@Z 10015d55 f   LIBCMT:dll_dllmain.obj
 0001:00014e67       ?dllmain_crt_process_detach@@YAH_N@Z 10015e67 f   LIBCMT:dll_dllmain.obj
 0001:00014ee4       ?dllmain_dispatch@@YAHQAUHINSTANCE__@@KQAX@Z 10015ee4 f   LIBCMT:dll_dllmain.obj
 0001:00014fe0       ?dllmain_raw@@YGHQAUHINSTANCE__@@KQAX@Z 10015fe0 f   LIBCMT:dll_dllmain.obj
 0001:00015090       $$000000                   10016090     LIBCMT:alloca16.obj
 0001:000150c0       $$000000                   100160c0     LIBCMT:llmul.obj
 0001:00015100       $$000000                   10016100     LIBCMT:ulldiv.obj
 0001:000155b0       $$000000                   100165b0     LIBCMT:_sehprolg4_.obj
 0001:00015750       $$000000                   10016750     LIBCMT:chkstk.obj
 0001:00015780       $$000000                   10016780     libvcruntime:memmove.obj
 0001:000159e4       TrailingUpVec              100169e4     libvcruntime:memmove.obj
 0001:00015a90       TrailingDownVec            10016a90     libvcruntime:memmove.obj
 0001:00015df5       ?CallCatchBlock@@YAPAXPAUEHExceptionRecord@@PAUEHRegistrationNode@@PAU_CONTEXT@@PBU_s_FuncInfo@@PAXHK@Z 10016df5 f   libvcruntime:frame.obj
 0001:00015fb1       ?CallUnexpected@@YAXPBU_s_ESTypeList@@@Z 10016fb1 f   libvcruntime:frame.obj
 0001:00015fd1       __catch$?CallUnexpected@@YAXPBU_s_ESTypeList@@@Z$0 10016fd1 f   libvcruntime:frame.obj
 0001:00015feb       ?CatchIt@@YAXPAUEHExceptionRecord@@PAUEHRegistrationNode@@PAU_CONTEXT@@PAXPBU_s_FuncInfo@@PBU_s_HandlerType@@PBU_s_CatchableType@@PBU_s_TryBlockMapEntry@@H1E@Z 10016feb f   libvcruntime:frame.obj
 0001:00016066       ?ExFilterRethrow@@YAHPAU_EXCEPTION_POINTERS@@@Z 10017066 f   libvcruntime:frame.obj
 0001:000160b0       ?FindHandler@@YAXPAUEHExceptionRecord@@PAUEHRegistrationNode@@PAU_CONTEXT@@PAXPBU_s_FuncInfo@@EH1@Z 100170b0 f   libvcruntime:frame.obj
 0001:00016418       ?FindHandlerForForeignException@@YAXPAUEHExceptionRecord@@PAUEHRegistrationNode@@PAU_CONTEXT@@PAXPBU_s_FuncInfo@@HH1@Z 10017418 f   libvcruntime:frame.obj
 0001:00016533       ?IsInExceptionSpec@@YAEPAUEHExceptionRecord@@PBU_s_ESTypeList@@@Z 10017533 f   libvcruntime:frame.obj
 0001:000165cf       ?Is_bad_exception_allowed@@YAEPBU_s_ESTypeList@@@Z 100175cf f   libvcruntime:frame.obj
 0001:00016ab0       $$000000                   10017ab0     libvcruntime:strstr.obj
 0001:000170f0       $$000000                   100180f0     libvcruntime:memcpy.obj
 0001:00017354       TrailingUpVec              10018354     libvcruntime:memcpy.obj
 0001:00017400       TrailingDownVec            10018400     libvcruntime:memcpy.obj
 0001:00017760       $$000000                   10018760     libvcruntime:memset.obj
 0001:000178c0       $$000000                   100188c0     libvcruntime:memchr.obj
 0001:0001796d       ?try_get_function@@YAPAXW4function_id@?A0x89697e75@@QBDQBW4module_id@2@2@Z 1001896d f   libvcruntime:winapi_downlevel.obj
 0001:00017a0d       ?try_get_module@@YAPAUHINSTANCE__@@W4module_id@?A0x89697e75@@@Z 10018a0d f   libvcruntime:winapi_downlevel.obj
 0001:00017ca0       _ValidateLocalCookies      10018ca0 f   libvcruntime:_chandler4_.obj
 0001:00018020       $$000000                   10019020     libvcruntime:lowhelpr.obj
 0001:00018070       $$000000                   10019070     libvcruntime:_longjmp_.obj
 0001:00018130       $$000000                   10019130     libvcruntime:strchr.obj
 0001:000182d0       $$000000                   100192d0     libvcruntime:_exsup4_.obj
 0001:00018360       __unwind_handler4          10019360 f   libvcruntime:_exsup4_.obj
 0001:00018430       $$000000                   10019430     libvcruntime:_exsup_.obj
 0001:00018450       __unwind_handler           10019450 f   libvcruntime:_exsup_.obj
 0001:0001881d       ??$common_assert_to_message_box@_W@@YAXQB_W0IQAX@Z 1001981d f   libucrt:assert.obj
 0001:000188b9       ??$common_assert_to_message_box_build_string@_W@@YAXQA_WIQB_W1IQAX@Z 100198b9 f   libucrt:assert.obj
 0001:00018dfe       ??$common_assert_to_stderr@_W@@YAXQB_W0I@Z 10019dfe f   libucrt:assert.obj
 0001:00018ea9       ?common_assert_to_stderr_direct@@YAXQB_W0I@Z 10019ea9 f   libucrt:assert.obj
 0001:00018f5a       ?get_assert_format@@YAPB_W_W@Z 10019f5a f   libucrt:assert.obj
 0001:000192f9       ??$common_vsprintf@Vstandard_base@__crt_stdio_output@@D@@YAH_KQADIQBDQAU__crt_locale_pointers@@1@Z 1001a2f9 f   libucrt:output.obj
 0001:00019475       ??$common_vsprintf@Vstandard_base@__crt_stdio_output@@_W@@YAH_KQA_WIQB_WQAU__crt_locale_pointers@@QAD@Z 1001a475 f   libucrt:output.obj
 0001:00019b06       ??R<lambda_481dd5778c961fbcd3b60b650e9b9dc4>@@QBEHXZ 1001ab06 f   libucrt:output.obj
 0001:00019e92       $LN54                      1001ae92     libucrt:output.obj
 0001:00019fb2       $LN54                      1001afb2     libucrt:output.obj
 0001:0001a0d2       $LN54                      1001b0d2     libucrt:output.obj
 0001:0001aea8       $LN19                      1001bea8     libucrt:output.obj
 0001:0001bbab       ??$common_ftell@J@@YAJV__crt_stdio_stream@@@Z 1001cbab f   libucrt:ftell.obj
 0001:0001bc18       ??$common_ftell_nolock@J@@YAJV__crt_stdio_stream@@@Z 1001cc18 f   libucrt:ftell.obj
 0001:0001bc43       ??$common_ftell_nolock@_J@@YA_JV__crt_stdio_stream@@@Z 1001cc43 f   libucrt:ftell.obj
 0001:0001bdd8       ?common_ftell_read_mode_nolock@@YA_JV__crt_stdio_stream@@_J1@Z 1001cdd8 f   libucrt:ftell.obj
 0001:0001bf5c       ?common_ftell_translated_utf8_nolock@@YA_JV__crt_stdio_stream@@_J@Z 1001cf5c f   libucrt:ftell.obj
 0001:0001c10d       ??$common_fsopen@D@@YAPAU_iobuf@@QBD0H@Z 1001d10d f   libucrt:fopen.obj
 0001:0001c35c       ?common_fseek@@YAHV__crt_stdio_stream@@_JH@Z 1001d35c f   libucrt:fseek.obj
 0001:0001c3e3       ?common_fseek_binary_mode_read_only_fast_track_nolock@@YA_NV__crt_stdio_stream@@_JH@Z 1001d3e3 f   libucrt:fseek.obj
 0001:0001c4bc       ?common_fseek_nolock@@YAHV__crt_stdio_stream@@_JH@Z 1001d4bc f   libucrt:fseek.obj
 0001:0001c82c       _memcpy_s                  1001d82c f   libucrt:assert.obj
 0001:0001c82c       _memcpy_s                  1001d82c f   libucrt:mbctype.obj
 0001:0001c82c       _memcpy_s                  1001d82c f   libucrt:strtod.obj
 0001:0001c82c       _memcpy_s                  1001d82c f   libucrt:fread.obj
 0001:0001c82c       _memcpy_s                  1001d82c f   libucrt:cfout.obj
 0001:0001d240       $$000000                   1001e240     libucrt:strcspn.obj
 0001:0001d290       $$000000                   1001e290     libucrt:pow.obj
 0001:0001d56f       ?x_ismbbtype_l@@YAHPAU__crt_locale_pointers@@IHH@Z 1001e56f f   libucrt:ismbbyte.obj
 0001:0001d5e0       ??$common_tox_l@$1?internal_isupper_l@@YA_NHQAU__crt_locale_pointers@@@Z$1?internal_map_lower@@YAHH0@Z@@YAHHKQAU__crt_locale_pointers@@@Z 1001e5e0 f   libucrt:tolower_toupper.obj
 0001:0001d72a       ?internal_isupper_l@@YA_NHQAU__crt_locale_pointers@@@Z 1001e72a f   libucrt:tolower_toupper.obj
 0001:0001dd10       ?atexit_exception_filter@@YAHK@Z 1001ed10 f   libucrt:exit.obj
 0001:0001dd23       ?common_exit@@YAXHW4_crt_exit_cleanup_mode@@W4_crt_exit_return_mode@@@Z 1001ed23 f   libucrt:exit.obj
 0001:0001de3c       ?exit_or_terminate_process@@YAXI@Z 1001ee3c f   libucrt:exit.obj
 0001:0001de7d       ?is_managed_app@@YA_NXZ    1001ee7d f   libucrt:exit.obj
 0001:0001dec1       ?try_cor_exit_process@@YAXI@Z 1001eec1 f   libucrt:exit.obj
 0001:0001df65       ??$common_configure_argv@D@@YAHW4_crt_argv_mode@@@Z 1001ef65 f   libucrt:argv_parsing.obj
 0001:0001e089       ??$parse_command_line@D@@YAXPADPAPAD0PAI2@Z 1001f089 f   libucrt:argv_parsing.obj
 0001:0001e25e       ??$common_initialize_environment_nolock@D@@YAHXZ 1001f25e f   libucrt:environment_initialization.obj
 0001:0001e2b7       ??$create_environment@D@@YAQAPADQAD@Z 1001f2b7 f   libucrt:environment_initialization.obj
 0001:0001e388       ??$free_environment@_W@@YAXQAPA_W@Z 1001f388 f   libucrt:environment_initialization.obj
 0001:0001e388       ??$free_environment@D@@YAXQAPAD@Z 1001f388 f   libucrt:environment_initialization.obj
 0001:0001e3f7       ??$uninitialize_environment_internal@D@@YAXAAPAPAD@Z 1001f3f7 f   libucrt:environment_initialization.obj
 0001:0001e412       ??$uninitialize_environment_internal@_W@@YAXAAPAPA_W@Z 1001f412 f   libucrt:environment_initialization.obj
 0001:0001e57a       ??R<lambda_275893d493268fdec8709772e3fcec0e>@@QBEHXZ 1001f57a f   libucrt:onexit.obj
 0001:0001e69a       ??R<lambda_4e60a939b0d047cfe11ddc22648dfba9>@@QBEHXZ 1001f69a f   libucrt:onexit.obj
 0001:0001e86f       _initialize_global_variables 1001f86f f   libucrt:initialization.obj
 0001:0001e881       _initialize_c              1001f881 f   libucrt:initialization.obj
 0001:0001e89b       _uninitialize_environment  1001f89b f   libucrt:initialization.obj
 0001:0001e8a3       _uninitialize_c            1001f8a3 f   libucrt:initialization.obj
 0001:0001e8a3       _uninitialize_global_state_isolation 1001f8a3 f   libucrt:initialization.obj
 0001:0001e8a3       _initialize_global_state_isolation 1001f8a3 f   libucrt:initialization.obj
 0001:0001e8a3       _initialize_environment    1001f8a3 f   libucrt:initialization.obj
 0001:0001e8a3       _report_memory_leaks       1001f8a3 f   libucrt:initialization.obj
 0001:0001e8a6       _initialize_pointers       1001f8a6 f   libucrt:initialization.obj
 0001:0001e8e3       _uninitialize_vcruntime    1001f8e3 f   libucrt:initialization.obj
 0001:0001e8ec       _uninitialize_allocated_memory 1001f8ec f   libucrt:initialization.obj
 0001:0001f4fb       ?get_global_action_nolock@@YAPAP6AXH@ZH@Z 100204fb f   libucrt:signal.obj
 0001:0001f53d       ?siglookup@@YAPAU__crt_signal_action_t@@HQAU1@@Z 1002053d f   libucrt:signal.obj
 0001:0001f9ac       ?construct_ptd@@YAXQAU__acrt_ptd@@QAPAU__crt_locale_data@@@Z 100209ac f   libucrt:per_thread_data.obj
 0001:0001fa25       ?destroy_fls@@YGXPAX@Z     10020a25 f   libucrt:per_thread_data.obj
 0001:0001fa46       ?destroy_ptd@@YAXQAU__acrt_ptd@@@Z 10020a46 f   libucrt:per_thread_data.obj
 0001:0001faef       ?replace_current_thread_locale_nolock@@YAXQAU__acrt_ptd@@QAU__crt_locale_data@@@Z 10020aef f   libucrt:per_thread_data.obj
 0001:0001fcbb       ??$common_xtox@K_W@@YAHKQA_WII_N@Z 10020cbb f   libucrt:xtoa.obj
 0001:0001fd49       ??$common_xtox_s@K_W@@YAHKQA_WII_N@Z 10020d49 f   libucrt:xtoa.obj
 0001:0001fe91       ??$common_tcsncat_s@_W@@YAHQA_WIQB_WI@Z 10020e91 f   libucrt:wcsncat_s.obj
 0001:0001ff86       ??$common_show_message_box@_W@@YAHQB_W0I@Z 10020f86 f   libucrt:crtmbox.obj
 0001:0002005f       ??$message_box_wait_thread@_W@@YGKQAX@Z 1002105f f   libucrt:crtmbox.obj
 0001:00020142       _common_flush_all          10021142 f   libucrt:fflush.obj
 0001:000202ec       ??R<lambda_b721fa326cdb32351d23dfa67958c160>@@QBEHXZ 100212ec f   libucrt:setvbuf.obj
 0001:00020386       ?set_buffer@@YAHV__crt_stdio_stream@@QADIH@Z 10021386 f   libucrt:setvbuf.obj
 0001:00020d03       ?try_get_MessageBoxA@@YAP6GHPAUHWND__@@PBD1I@ZXZ 10021d03 f   libucrt:winapi_thunks.obj
 0001:00020d1d       ?try_get_MessageBoxW@@YAP6GHPAUHWND__@@PB_W1I@ZXZ 10021d1d f   libucrt:winapi_thunks.obj
 0001:00020d37       ?try_get_function@@YAPAXW4function_id@?A0x352e5c4b@@QBDQBW4module_id@2@2@Z 10021d37 f   libucrt:winapi_thunks.obj
 0001:00020dd3       ?try_get_module@@YAPAUHINSTANCE__@@W4module_id@?A0x352e5c4b@@@Z 10021dd3 f   libucrt:winapi_thunks.obj
 0001:00021487       ?initialize_inherited_file_handles_nolock@@YAXXZ 10022487 f   libucrt:ioinit.obj
 0001:0002153d       ?initialize_stdio_handles_nolock@@YAXXZ 1002253d f   libucrt:ioinit.obj
 0001:00021a03       ?fp_format_a@@YAHQBNPADIQADIH_NIQAU__crt_locale_pointers@@@Z 10022a03 f   libucrt:cvt.obj
 0001:00021d06       ?fp_format_e@@YAHQBNQADI1IH_NIQAU__crt_locale_pointers@@@Z 10022d06 f   libucrt:cvt.obj
 0001:00021da1       ?fp_format_e_internal@@YAHQADIH_NIQAU_strflt@@1QAU__crt_locale_pointers@@@Z 10022da1 f   libucrt:cvt.obj
 0001:00021eec       ?fp_format_f@@YAHQBNQADI1IHQAU__crt_locale_pointers@@@Z 10022eec f   libucrt:cvt.obj
 0001:00021f79       ?fp_format_f_internal@@YAHQADIHQAU_strflt@@_NQAU__crt_locale_pointers@@@Z 10022f79 f   libucrt:cvt.obj
 0001:00022050       ?fp_format_g@@YAHQBNQADI1IH_NIQAU__crt_locale_pointers@@@Z 10023050 f   libucrt:cvt.obj
 0001:00022118       ?fp_format_nan_or_infinity@@YAHW4__acrt_fp_class@@_NPADI1@Z 10023118 f   libucrt:cvt.obj
 0001:00022210       ?shift_bytes@@YAXQADI0H@Z  10023210 f   libucrt:cvt.obj
 0001:0002238e       ?fputwc_binary_nolock@@YAG_WV__crt_stdio_stream@@@Z 1002338e f   libucrt:fputwc.obj
 0001:00022695       ??$common_lseek@_J@@YA_JH_JH@Z 10023695 f   libucrt:lseek.obj
 0001:0002279a       ??$common_lseek_nolock@_J@@YA_JH_JH@Z 1002379a f   libucrt:lseek.obj
 0001:0002284e       ??$translate_text_mode_nolock@D@@YAHHQADI@Z 1002384e f   libucrt:read.obj
 0001:000229a5       ??$translate_text_mode_nolock@_W@@YAHHQA_WI@Z 100239a5 f   libucrt:read.obj
 0001:00022b65       ?translate_ansi_or_utf8_nolock@@YAHHQADIQA_WI@Z 10023b65 f   libucrt:read.obj
 0001:00022cb5       ?translate_utf16_from_console_nolock@@YAHHQA_WI@Z 10023cb5 f   libucrt:read.obj
 0001:00023298       ?find_or_allocate_unused_stream_nolock@@YA?AV__crt_stdio_stream@@XZ 10024298 f   libucrt:stream.obj
 0001:0002358d       ??$common_openfile@D@@YAPAU_iobuf@@QBD0HV__crt_stdio_stream@@@Z 1002458d f   libucrt:openfile.obj
 0001:000238d5       ??$common_refill_and_read_nolock@D@@YAHV__crt_stdio_stream@@@Z 100248d5 f   libucrt:_filbuf.obj
 0001:00023c71       ?__acrt_LCMapStringA_stat@@YAHPAU__crt_locale_pointers@@PB_WKPBDHPADHHH@Z 10024c71 f   libucrt:lcmapstringa.obj
 0001:00023f50       $$000000                   10024f50     libucrt:pow_pentium4.obj
 0001:00024a70       $$000000                   10025a70     libucrt:87tran.obj
 0001:00024c70       $$000000                   10025c70     libucrt:87disp.obj
 0001:00024e70       $$000000                   10025e70     libucrt:genexcep.obj
 0001:00024ed0       $$000000                   10025ed0     libucrt:common.obj
 0001:00025292       ?<helper_func_cdecl>@<lambda_62bb7ecb46d0a77b591a051c43eb5ad1>@@CAHPBX0@Z 10026292 f   libucrt:argv_wildcards.obj
 0001:000252aa       ??$common_expand_argv_wildcards@D@@YAHQAPADQAPAPAD@Z 100262aa f   libucrt:argv_wildcards.obj
 0001:0002543a       ??$copy_and_add_argument_to_buffer@D@@YAHQBD0IAAV?$argument_list@D@?A0xb0e4b824@@@Z 1002643a f   libucrt:argv_wildcards.obj
 0001:000254d0       ??$expand_argument_wildcards@D@@YAHQAD0AAV?$argument_list@D@?A0xb0e4b824@@@Z 100264d0 f   libucrt:argv_wildcards.obj
 0001:000257ab       ??R<lambda_ad1ced32f4ac17aa236e5ef05d6b3b7c>@@QBEXXZ 100267ab f   libucrt:mbctype.obj
 0001:0002586f       ?CPtoLocaleName@@YAPB_WH@Z 1002686f f   libucrt:mbctype.obj
 0001:000258ad       ?getSystemCP@@YAHH@Z       100268ad f   libucrt:mbctype.obj
 0001:00025920       ?setSBCS@@YAXPAU__crt_multibyte_data@@@Z 10026920 f   libucrt:mbctype.obj
 0001:00025985       ?setSBUpLow@@YAXPAU__crt_multibyte_data@@@Z 10026985 f   libucrt:mbctype.obj
 0001:00025b19       ?setmbcp_internal@@YAHH_N@Z 10026b19 f   libucrt:mbctype.obj
 0001:00025ee4       ?find_end_of_double_null_terminated_sequence@@YAPB_WQB_W@Z 10026ee4 f   libucrt:get_environment_from_os.obj
 0001:0002661c       ?write_double_translated_ansi_nolock@@YA?AUwrite_result@?A0x47fa6670@@HQBDI@Z 1002761c f   libucrt:write.obj
 0001:000267cf       ?write_double_translated_unicode_nolock@@YA?AUwrite_result@?A0x47fa6670@@QBDI@Z 100277cf f   libucrt:write.obj
 0001:0002683c       ?write_requires_double_translation_nolock@@YA_NH@Z 1002783c f   libucrt:write.obj
 0001:000268b2       ?write_text_ansi_nolock@@YA?AUwrite_result@?A0x47fa6670@@HQBDI@Z 100278b2 f   libucrt:write.obj
 0001:00026991       ?write_text_utf16le_nolock@@YA?AUwrite_result@?A0x47fa6670@@HQBDI@Z 10027991 f   libucrt:write.obj
 0001:00026a7f       ?write_text_utf8_nolock@@YA?AUwrite_result@?A0x47fa6670@@HQBDI@Z 10027a7f f   libucrt:write.obj
 0001:00026ea3       ?GetTableIndexFromLocaleName@@YAHPB_W@Z 10027ea3 f   libucrt:lcidtoname_downlevel.obj
 0001:0002883b       ??$common_flush_and_write_nolock@D@@YAHHV__crt_stdio_stream@@@Z 1002983b f   libucrt:_flsbuf.obj
 0001:0002894c       ??$common_flush_and_write_nolock@_W@@YAHHV__crt_stdio_stream@@@Z 1002994c f   libucrt:_flsbuf.obj
 0001:00028a61       ??$write_buffer_nolock@D@@YA_NDV__crt_stdio_stream@@@Z 10029a61 f   libucrt:_flsbuf.obj
 0001:00028b2d       ??$write_buffer_nolock@_W@@YA_N_WV__crt_stdio_stream@@@Z 10029b2d f   libucrt:_flsbuf.obj
 0001:00028dd4       ?free_crt_array_internal@@YAXQAPBXI@Z 10029dd4 f   libucrt:inittime.obj
 0001:00028f00       $$000000                   10029f00     libucrt:strncmp.obj
 0001:0002909b       ??$common_sopen_dispatch@D@@YAHQBDHHHQAHH@Z 1002a09b f   libucrt:open.obj
 0001:00029167       ?configure_text_mode@@YAHHUfile_options@?A0x704126de@@HAAW4__crt_lowio_text_mode@@@Z 1002a167 f   libucrt:open.obj
 0001:000293b4       ?create_file@@YAPAXQB_WQAU_SECURITY_ATTRIBUTES@@Ufile_options@?A0x704126de@@@Z 1002a3b4 f   libucrt:open.obj
 0001:000293d9       ?decode_open_create_flags@@YAKH@Z 1002a3d9 f   libucrt:open.obj
 0001:00029449       ?decode_options@@YA?AUfile_options@?A0x704126de@@HHH@Z 1002a449 f   libucrt:open.obj
 0001:000295c5       ?truncate_ctrl_z_if_present@@YAHH@Z 1002a5c5 f   libucrt:open.obj
 0001:00029a6c       ??$common_tcsncpy_s@D@@YAHQADIQBDI@Z 1002aa6c f   libucrt:strncpy_s.obj
 0001:00029b28       ___get_abstract_control_sse2 1002ab28 f   libucrt:_fenvutils.obj
 0001:00029ba5       ___get_abstract_control_x87 1002aba5 f   libucrt:_fenvutils.obj
 0001:00029c18       ___get_machine_control     1002ac18 f   libucrt:_fenvutils.obj
 0001:00029c89       ___get_machine_control_sse2 1002ac89 f   libucrt:_fenvutils.obj
 0001:00029d09       ___get_machine_status_sse2 1002ad09 f   libucrt:_fenvutils.obj
 0001:00029d6a       ___get_machine_status_x87  1002ad6a f   libucrt:_fenvutils.obj
 0001:0002a2f0       ?shortsort@@YAXPAD0IP6AHPBX1@Z@Z 1002b2f0 f   libucrt:qsort.obj
 0001:0002a390       ?swap@@YAXPAD0I@Z          1002b390 f   libucrt:qsort.obj
 0001:0002a770       $$000000                   1002b770     libucrt:strpbrk.obj
 0001:0002a854       ?initialize_multibyte@@YAHXZ 1002b854 f   libucrt:multibyte_initializer.obj
 0001:0002a990       $$000000                   1002b990     libucrt:log10.obj
 0001:0002aae0       $$000000                   1002bae0     libucrt:ceil_pentium4.obj
 0001:0002ac00       $$000000                   1002bc00     libucrt:_strnicm.obj
 0001:0002b0d0       $$000000                   1002c0d0     libucrt:log10_pentium4.obj
 0001:0002baf0       $$000000                   1002caf0     LIBCMT:ulldvrm.obj
 0001:0002bb90       $$000000                   1002cb90     LIBCMT:lldiv.obj
 0001:0002bc40       $$000000                   1002cc40     LIBCMT:llshl.obj
 0001:0002bc60       $$000000                   1002cc60     LIBCMT:ullshr.obj
 0001:0002bc80       $$000000                   1002cc80     LIBCMT:_sehprolg4gs_.obj
 0001:0002bce0       $$000000                   1002cce0     LIBCMT:lldvrm.obj
 0001:0002bdc0       $$000000                   1002cdc0     LIBCMT:_ftol2_.obj
 0001:0002be80       $$000000                   1002ce80     libvcruntime:strrchr.obj
 0001:0002bfc0       $$000000                   1002cfc0     libvcruntime:_setjmp3_.obj
 0001:0002c040       $$000000                   1002d040     libucrt:87fmod.obj
 0001:0002c070       $$000000                   1002d070     libucrt:acos_sse2_precise.obj
 0001:0002c590       $$000000                   1002d590     libucrt:sqrt_sse2_precise.obj
 0001:0002c690       $$000000                   1002d690     libucrt:tan_sse2_precise.obj
 0001:0002c900       $$000000                   1002d900     libucrt:floor_pentium4.obj
 0001:0002ca00       $$000000                   1002da00     libucrt:87cdisp.obj
 0001:0002cc90       $$000000                   1002dc90     libucrt:acos.obj
 0001:0002cde0       $$000000                   1002dde0     libucrt:sqrt.obj
 0001:0002cea0       $$000000                   1002dea0     libucrt:tan.obj
 0001:0002d080       $$000000                   1002e080     libucrt:acos_pentium4.obj
 0001:0002d5e0       $$000000                   1002e5e0     libucrt:tan_pentium4.obj
 0001:0002d840       __unwindfunclet$??1ObjectWrap@Nan@@UAE@XZ$1 1002e840 f   Backend.obj
 0001:0002d840       __unwindfunclet$??_GImage@@EAEPAXI@Z$0 1002e840 f   Image.obj
 0001:0002d846       __ehhandler$??1ObjectWrap@Nan@@UAE@XZ 1002e846 f   Backend.obj
 0001:0002d846       __ehhandler$??_GImage@@EAEPAXI@Z 1002e846 f   Image.obj
 0001:0002d870       __unwindfunclet$??0Backend@@IAE@V?$basic_string@DU?$char_traits@D@std@@V?$allocator@D@2@@std@@HH@Z$0 1002e870 f   Backend.obj
 0001:0002d878       __unwindfunclet$??0Backend@@IAE@V?$basic_string@DU?$char_traits@D@std@@V?$allocator@D@2@@std@@HH@Z$1 1002e878 f   Backend.obj
 0001:0002d880       __ehhandler$??0Backend@@IAE@V?$basic_string@DU?$char_traits@D@std@@V?$allocator@D@2@@std@@HH@Z 1002e880 f   Backend.obj
 0001:0002d8a0       __unwindfunclet$?NewInstance@Nan@@YA?AV?$MaybeLocal@VObject@v8@@@v8@@V?$Local@VObjectTemplate@v8@@@3@@Z$0 1002e8a0 f   ImageBackend.obj
 0001:0002d8a0       __unwindfunclet$?convert@?$ToFactory@VUint32@v8@@@imp@Nan@@SA?AV?$MaybeLocal@VUint32@v8@@@v8@@V?$Local@VValue@v8@@@5@@Z$0 1002e8a0 f   Canvas.obj
 0001:0002d8a9       __ehhandler$?convert@?$ToFactory@VUint32@v8@@@imp@Nan@@SA?AV?$MaybeLocal@VUint32@v8@@@v8@@V?$Local@VValue@v8@@@5@@Z 1002e8a9 f   Canvas.obj
 0001:0002d8a9       __ehhandler$?NewInstance@Nan@@YA?AV?$MaybeLocal@VObject@v8@@@v8@@V?$Local@VObjectTemplate@v8@@@3@@Z 1002e8a9 f   ImageBackend.obj
 0001:0002d8d0       __unwindfunclet$?New@?$Factory@VFunctionTemplate@v8@@@imp@Nan@@SA?AV?$Local@VFunctionTemplate@v8@@@v8@@P6AXABV?$FunctionCallbackInfo@VValue@v8@@@3@@ZV?$Local@VValue@v8@@@5@V?$Local@VSignature@v8@@@5@@Z$0 1002e8d0 f   ImageBackend.obj
 0001:0002d8d9       __ehhandler$?New@?$Factory@VFunctionTemplate@v8@@@imp@Nan@@SA?AV?$Local@VFunctionTemplate@v8@@@v8@@P6AXABV?$FunctionCallbackInfo@VValue@v8@@@3@@ZV?$Local@VValue@v8@@@5@V?$Local@VSignature@v8@@@5@@Z 1002e8d9 f   ImageBackend.obj
 0001:0002d900       __ehhandler$??1AsyncResource@Nan@@QAE@XZ 1002e900 f   Canvas.obj
 0001:0002d900       __ehhandler$??1ImageBackend@@UAE@XZ 1002e900 f   ImageBackend.obj
 0001:0002d900       __ehhandler$??1_Init_atexit@@QAE@XZ 1002e900 f   libcpmt:iosptrs.obj
 0001:0002d920       __unwindfunclet$??__F?constructor@SvgBackend@@2V?$Persistent@VFunctionTemplate@v8@@V?$NonCopyablePersistentTraits@VFunctionTemplate@v8@@@2@@Nan@@A@@YAXXZ$1 1002e920 f   SvgBackend.obj
 0001:0002d920       __unwindfunclet$??__F?constructor@PdfBackend@@2V?$Persistent@VFunctionTemplate@v8@@V?$NonCopyablePersistentTraits@VFunctionTemplate@v8@@@2@@Nan@@A@@YAXXZ$1 1002e920 f   PdfBackend.obj
 0001:0002d920       __unwindfunclet$??__F?constructor@Image@@2V?$Persistent@VFunctionTemplate@v8@@V?$NonCopyablePersistentTraits@VFunctionTemplate@v8@@@2@@Nan@@A@@YAXXZ$1 1002e920 f   Image.obj
 0001:0002d920       __unwindfunclet$??__F?constructor@ImageData@@2V?$Persistent@VFunctionTemplate@v8@@V?$NonCopyablePersistentTraits@VFunctionTemplate@v8@@@2@@Nan@@A@@YAXXZ$1 1002e920 f   ImageData.obj
 0001:0002d920       __unwindfunclet$??__F?constructor@ImageBackend@@2V?$Persistent@VFunctionTemplate@v8@@V?$NonCopyablePersistentTraits@VFunctionTemplate@v8@@@2@@Nan@@A@@YAXXZ$1 1002e920 f   ImageBackend.obj
 0001:0002d920       __unwindfunclet$??__F?constructor@Gradient@@2V?$Persistent@VFunctionTemplate@v8@@V?$NonCopyablePersistentTraits@VFunctionTemplate@v8@@@2@@Nan@@A@@YAXXZ$1 1002e920 f   CanvasGradient.obj
 0001:0002d920       __unwindfunclet$??__F?constructor@Context2d@@2V?$Persistent@VFunctionTemplate@v8@@V?$NonCopyablePersistentTraits@VFunctionTemplate@v8@@@2@@Nan@@A@@YAXXZ$1 1002e920 f   CanvasRenderingContext2d.obj
 0001:0002d920       __unwindfunclet$??__F?constructor@Canvas@@2V?$Persistent@VFunctionTemplate@v8@@V?$NonCopyablePersistentTraits@VFunctionTemplate@v8@@@2@@Nan@@A@@YAXXZ$1 1002e920 f   Canvas.obj
 0001:0002d920       __unwindfunclet$??__F?constructor@Pattern@@2V?$Persistent@VFunctionTemplate@v8@@V?$NonCopyablePersistentTraits@VFunctionTemplate@v8@@@2@@Nan@@A@@YAXXZ$1 1002e920 f   CanvasPattern.obj
 0001:0002d926       __ehhandler$??__F?constructor@SvgBackend@@2V?$Persistent@VFunctionTemplate@v8@@V?$NonCopyablePersistentTraits@VFunctionTemplate@v8@@@2@@Nan@@A@@YAXXZ 1002e926 f   SvgBackend.obj
 0001:0002d926       __ehhandler$??__F?constructor@ImageBackend@@2V?$Persistent@VFunctionTemplate@v8@@V?$NonCopyablePersistentTraits@VFunctionTemplate@v8@@@2@@Nan@@A@@YAXXZ 1002e926 f   ImageBackend.obj
 0001:0002d926       __ehhandler$??__F?constructor@Gradient@@2V?$Persistent@VFunctionTemplate@v8@@V?$NonCopyablePersistentTraits@VFunctionTemplate@v8@@@2@@Nan@@A@@YAXXZ 1002e926 f   CanvasGradient.obj
 0001:0002d926       __ehhandler$??__F?constructor@PdfBackend@@2V?$Persistent@VFunctionTemplate@v8@@V?$NonCopyablePersistentTraits@VFunctionTemplate@v8@@@2@@Nan@@A@@YAXXZ 1002e926 f   PdfBackend.obj
 0001:0002d926       __ehhandler$??__F?constructor@Image@@2V?$Persistent@VFunctionTemplate@v8@@V?$NonCopyablePersistentTraits@VFunctionTemplate@v8@@@2@@Nan@@A@@YAXXZ 1002e926 f   Image.obj
 0001:0002d926       __ehhandler$??__F?constructor@Context2d@@2V?$Persistent@VFunctionTemplate@v8@@V?$NonCopyablePersistentTraits@VFunctionTemplate@v8@@@2@@Nan@@A@@YAXXZ 1002e926 f   CanvasRenderingContext2d.obj
 0001:0002d926       __ehhandler$??__F?constructor@Canvas@@2V?$Persistent@VFunctionTemplate@v8@@V?$NonCopyablePersistentTraits@VFunctionTemplate@v8@@@2@@Nan@@A@@YAXXZ 1002e926 f   Canvas.obj
 0001:0002d926       __ehhandler$??__F?constructor@Pattern@@2V?$Persistent@VFunctionTemplate@v8@@V?$NonCopyablePersistentTraits@VFunctionTemplate@v8@@@2@@Nan@@A@@YAXXZ 1002e926 f   CanvasPattern.obj
 0001:0002d926       __ehhandler$??__F?constructor@ImageData@@2V?$Persistent@VFunctionTemplate@v8@@V?$NonCopyablePersistentTraits@VFunctionTemplate@v8@@@2@@Nan@@A@@YAXXZ 1002e926 f   ImageData.obj
 0001:0002d950       __unwindfunclet$?Initialize@SvgBackend@@SAXV?$Local@VObject@v8@@@v8@@@Z$0 1002e950 f   SvgBackend.obj
 0001:0002d950       __unwindfunclet$?Initialize@PdfBackend@@SAXV?$Local@VObject@v8@@@v8@@@Z$0 1002e950 f   PdfBackend.obj
 0001:0002d950       __unwindfunclet$?Initialize@ImageBackend@@SAXV?$Local@VObject@v8@@@v8@@@Z$0 1002e950 f   ImageBackend.obj
 0001:0002d958       __ehhandler$?Initialize@ImageBackend@@SAXV?$Local@VObject@v8@@@v8@@@Z 1002e958 f   ImageBackend.obj
 0001:0002d958       __ehhandler$?Initialize@PdfBackend@@SAXV?$Local@VObject@v8@@@v8@@@Z 1002e958 f   PdfBackend.obj
 0001:0002d958       __ehhandler$?Initialize@SvgBackend@@SAXV?$Local@VObject@v8@@@v8@@@Z 1002e958 f   SvgBackend.obj
 0001:0002d980       __unwindfunclet$?New@ImageBackend@@SAXABV?$FunctionCallbackInfo@VValue@v8@@@Nan@@@Z$0 1002e980 f   ImageBackend.obj
 0001:0002d98f       __ehhandler$?New@ImageBackend@@SAXABV?$FunctionCallbackInfo@VValue@v8@@@Nan@@@Z 1002e98f f   ImageBackend.obj
 0001:0002d9b0       __ehhandler$??1SvgBackend@@UAE@XZ 1002e9b0 f   SvgBackend.obj
 0001:0002d9b0       __ehhandler$??1PdfBackend@@UAE@XZ 1002e9b0 f   PdfBackend.obj
 0001:0002d9b0       __ehhandler$??1_Fac_node@std@@QAE@XZ 1002e9b0 f   libcpmt:locale0.obj
 0001:0002d9d0       __unwindfunclet$?New@SvgBackend@@SAXABV?$FunctionCallbackInfo@VValue@v8@@@Nan@@@Z$0 1002e9d0 f   SvgBackend.obj
 0001:0002d9d0       __unwindfunclet$?New@PdfBackend@@SAXABV?$FunctionCallbackInfo@VValue@v8@@@Nan@@@Z$0 1002e9d0 f   PdfBackend.obj
 0001:0002d9df       __ehhandler$?New@SvgBackend@@SAXABV?$FunctionCallbackInfo@VValue@v8@@@Nan@@@Z 1002e9df f   SvgBackend.obj
 0001:0002d9df       __ehhandler$?New@PdfBackend@@SAXABV?$FunctionCallbackInfo@VValue@v8@@@Nan@@@Z 1002e9df f   PdfBackend.obj
 0001:0002da00       __unwindfunclet$?Initialize@Backends@@SAXV?$Local@VObject@v8@@@v8@@@Z$0 1002ea00 f   Backends.obj
 0001:0002da08       __ehhandler$?Initialize@Backends@@SAXV?$Local@VObject@v8@@@v8@@@Z 1002ea08 f   Backends.obj
 0001:0002da30       __unwindfunclet$?Set@Nan@@YA?AV?$Maybe@_N@v8@@V?$Local@VObject@v8@@@3@V?$Local@VValue@v8@@@3@1@Z$0 1002ea30 f   Canvas.obj
 0001:0002da39       __ehhandler$?Set@Nan@@YA?AV?$Maybe@_N@v8@@V?$Local@VObject@v8@@@3@V?$Local@VValue@v8@@@3@1@Z 1002ea39 f   Canvas.obj
 0001:0002da60       __unwindfunclet$?Call@Nan@@YA?AV?$MaybeLocal@VValue@v8@@@v8@@V?$Local@VFunction@v8@@@3@V?$Local@VObject@v8@@@3@HQAV?$Local@VValue@v8@@@3@@Z$0 1002ea60 f   Canvas.obj
 0001:0002da69       __ehhandler$?Call@Nan@@YA?AV?$MaybeLocal@VValue@v8@@@v8@@V?$Local@VFunction@v8@@@3@V?$Local@VObject@v8@@@3@HQAV?$Local@VValue@v8@@@3@@Z 1002ea69 f   Canvas.obj
 0001:0002da90       __unwindfunclet$?ThrowTypeError@Nan@@YAXPBD@Z$0 1002ea90 f   Canvas.obj
 0001:0002da90       __unwindfunclet$?ThrowError@Nan@@YAXPBD@Z$0 1002ea90 f   Canvas.obj
 0001:0002da90       __unwindfunclet$?ThrowRangeError@Nan@@YAXPBD@Z$0 1002ea90 f   Canvas.obj
 0001:0002da98       __ehhandler$?ThrowRangeError@Nan@@YAXPBD@Z 1002ea98 f   Canvas.obj
 0001:0002da98       __ehhandler$?ThrowError@Nan@@YAXPBD@Z 1002ea98 f   Canvas.obj
 0001:0002da98       __ehhandler$?ThrowTypeError@Nan@@YAXPBD@Z 1002ea98 f   Canvas.obj
 0001:0002dac0       __unwindfunclet$?MakeCallback@Nan@@YA?AV?$Local@VValue@v8@@@v8@@V?$Local@VObject@v8@@@3@V?$Local@VFunction@v8@@@3@HPAV23@@Z$0 1002eac0 f   Canvas.obj
 0001:0002dac8       __unwindfunclet$?MakeCallback@Nan@@YA?AV?$Local@VValue@v8@@@v8@@V?$Local@VObject@v8@@@3@V?$Local@VFunction@v8@@@3@HPAV23@@Z$1 1002eac8 f   Canvas.obj
 0001:0002dace       __ehhandler$?MakeCallback@Nan@@YA?AV?$Local@VValue@v8@@@v8@@V?$Local@VObject@v8@@@3@V?$Local@VFunction@v8@@@3@HPAV23@@Z 1002eace f   Canvas.obj
 0001:0002daf0       __unwindfunclet$?Call@Callback@Nan@@QBE?AV?$Local@VValue@v8@@@v8@@HQAV34@@Z$0 1002eaf0 f   Canvas.obj
 0001:0002daf9       __unwindfunclet$?Call@Callback@Nan@@QBE?AV?$Local@VValue@v8@@@v8@@HQAV34@@Z$1 1002eaf9 f   Canvas.obj
 0001:0002db01       __unwindfunclet$?Call@Callback@Nan@@QBE?AV?$Local@VValue@v8@@@v8@@HQAV34@@Z$2 1002eb01 f   Canvas.obj
 0001:0002db07       __ehhandler$?Call@Callback@Nan@@QBE?AV?$Local@VValue@v8@@@v8@@HQAV34@@Z 1002eb07 f   Canvas.obj
 0001:0002db30       __unwindfunclet$?Call_@Callback@Nan@@ABE?AV?$MaybeLocal@VValue@v8@@@v8@@PAVIsolate@4@V?$Local@VObject@v8@@@4@HQAV?$Local@VValue@v8@@@4@PAVAsyncResource@2@@Z$0 1002eb30 f   Canvas.obj
 0001:0002db38       __ehhandler$?Call_@Callback@Nan@@ABE?AV?$MaybeLocal@VValue@v8@@@v8@@PAVIsolate@4@V?$Local@VObject@v8@@@4@HQAV?$Local@VValue@v8@@@4@PAVAsyncResource@2@@Z 1002eb38 f   Canvas.obj
 0001:0002db60       __unwindfunclet$?SetPrototypeMethod@Nan@@YAXV?$Local@VFunctionTemplate@v8@@@v8@@PBDP6AXABV?$FunctionCallbackInfo@VValue@v8@@@1@@Z@Z$0 1002eb60 f   Canvas.obj
 0001:0002db68       __ehhandler$?SetPrototypeMethod@Nan@@YAXV?$Local@VFunctionTemplate@v8@@@v8@@PBDP6AXABV?$FunctionCallbackInfo@VValue@v8@@@1@@Z@Z 1002eb68 f   Canvas.obj
 0001:0002db90       __unwindfunclet$?Initialize@Context2d@@SAXV?$Local@VObject@v8@@@v8@@@Z$0 1002eb90 f   CanvasRenderingContext2d.obj
 0001:0002db90       __unwindfunclet$?Initialize@Canvas@@SAXV?$Local@VObject@v8@@@v8@@@Z$0 1002eb90 f   Canvas.obj
 0001:0002db90       __unwindfunclet$?Initialize@ImageData@@SAXV?$Local@VObject@v8@@@v8@@@Z$0 1002eb90 f   ImageData.obj
 0001:0002db90       __unwindfunclet$?Initialize@Image@@SAXV?$Local@VObject@v8@@@v8@@@Z$0 1002eb90 f   Image.obj
 0001:0002db90       __unwindfunclet$?SetAccessor@Nan@@YAXV?$Local@VObjectTemplate@v8@@@v8@@V?$Local@VString@v8@@@3@P6AX1ABV?$PropertyCallbackInfo@VValue@v8@@@1@@ZP6AX1V?$Local@VValue@v8@@@3@ABV?$PropertyCallbackInfo@X@1@@Z4W4AccessControl@3@W4PropertyAttribute@3@V?$Local@VAccessorSignature@v8@@@3@@Z$0 1002eb90 f   Canvas.obj
 0001:0002db98       __ehhandler$?Initialize@Context2d@@SAXV?$Local@VObject@v8@@@v8@@@Z 1002eb98 f   CanvasRenderingContext2d.obj
 0001:0002db98       __ehhandler$?SetAccessor@Nan@@YAXV?$Local@VObjectTemplate@v8@@@v8@@V?$Local@VString@v8@@@3@P6AX1ABV?$PropertyCallbackInfo@VValue@v8@@@1@@ZP6AX1V?$Local@VValue@v8@@@3@ABV?$PropertyCallbackInfo@X@1@@Z4W4AccessControl@3@W4PropertyAttribute@3@V?$Local@VAccessorSignature@v8@@@3@@Z 1002eb98 f   Canvas.obj
 0001:0002db98       __ehhandler$?Initialize@Canvas@@SAXV?$Local@VObject@v8@@@v8@@@Z 1002eb98 f   Canvas.obj
 0001:0002db98       __ehhandler$?Initialize@Image@@SAXV?$Local@VObject@v8@@@v8@@@Z 1002eb98 f   Image.obj
 0001:0002db98       __ehhandler$?Initialize@ImageData@@SAXV?$Local@VObject@v8@@@v8@@@Z 1002eb98 f   ImageData.obj
 0001:0002dbc0       __unwindfunclet$?empty_closure_output_buffer@@YAEPAUjpeg_compress_struct@@@Z$0 1002ebc0 f   Canvas.obj
 0001:0002dbc0       __unwindfunclet$?Initialize@Pattern@@SAXV?$Local@VObject@v8@@@v8@@@Z$0 1002ebc0 f   CanvasPattern.obj
 0001:0002dbc8       __ehhandler$?Initialize@Pattern@@SAXV?$Local@VObject@v8@@@v8@@@Z 1002ebc8 f   CanvasPattern.obj
 0001:0002dbc8       __ehhandler$?empty_closure_output_buffer@@YAEPAUjpeg_compress_struct@@@Z 1002ebc8 f   Canvas.obj
 0001:0002dbf0       __unwindfunclet$?term_closure_destination@@YAXPAUjpeg_compress_struct@@@Z$0 1002ebf0 f   Canvas.obj
 0001:0002dbf8       __ehhandler$?term_closure_destination@@YAXPAUjpeg_compress_struct@@@Z 1002ebf8 f   Canvas.obj
 0001:0002dc20       __unwindfunclet$?New@Canvas@@SAXABV?$FunctionCallbackInfo@VValue@v8@@@Nan@@@Z$1 1002ec20 f   Canvas.obj
 0001:0002dc2f       __unwindfunclet$?New@Canvas@@SAXABV?$FunctionCallbackInfo@VValue@v8@@@Nan@@@Z$3 1002ec2f f   Canvas.obj
 0001:0002dc3e       __unwindfunclet$?New@Canvas@@SAXABV?$FunctionCallbackInfo@VValue@v8@@@Nan@@@Z$4 1002ec3e f   Canvas.obj
 0001:0002dc4d       __unwindfunclet$?New@Canvas@@SAXABV?$FunctionCallbackInfo@VValue@v8@@@Nan@@@Z$5 1002ec4d f   Canvas.obj
 0001:0002dc5c       __unwindfunclet$?New@Canvas@@SAXABV?$FunctionCallbackInfo@VValue@v8@@@Nan@@@Z$6 1002ec5c f   Canvas.obj
 0001:0002dc6b       __ehhandler$?New@Canvas@@SAXABV?$FunctionCallbackInfo@VValue@v8@@@Nan@@@Z 1002ec6b f   Canvas.obj
 0001:0002dc90       __unwindfunclet$?ToBufferAsyncAfter@Canvas@@SAXPAUuv_work_s@@@Z$0 1002ec90 f   Canvas.obj
 0001:0002dc98       __unwindfunclet$?ToBufferAsyncAfter@Canvas@@SAXPAUuv_work_s@@@Z$3 1002ec98 f   Canvas.obj
 0001:0002dc9e       __unwindfunclet$?ToBufferAsyncAfter@Canvas@@SAXPAUuv_work_s@@@Z$5 1002ec9e f   Canvas.obj
 0001:0002dca4       __ehhandler$?ToBufferAsyncAfter@Canvas@@SAXPAUuv_work_s@@@Z 1002eca4 f   Canvas.obj
 0001:0002dcc0       __unwindfunclet$?ToBuffer@Canvas@@SAXABV?$FunctionCallbackInfo@VValue@v8@@@Nan@@@Z$0 1002ecc0 f   Canvas.obj
 0001:0002dcc8       __unwindfunclet$?ToBuffer@Canvas@@SAXABV?$FunctionCallbackInfo@VValue@v8@@@Nan@@@Z$1 1002ecc8 f   Canvas.obj
 0001:0002dcd7       __unwindfunclet$?ToBuffer@Canvas@@SAXABV?$FunctionCallbackInfo@VValue@v8@@@Nan@@@Z$2 1002ecd7 f   Canvas.obj
 0001:0002dcdf       __ehhandler$?ToBuffer@Canvas@@SAXABV?$FunctionCallbackInfo@VValue@v8@@@Nan@@@Z 1002ecdf f   Canvas.obj
 0001:0002dd10       __unwindfunclet$?streamPNG@@YA?AW4_cairo_status@@PAXPBEI@Z$0 1002ed10 f   Canvas.obj
 0001:0002dd10       __unwindfunclet$?streamPDF@@YA?AW4_cairo_status@@PAXPBEI@Z$0 1002ed10 f   Canvas.obj
 0001:0002dd18       __ehhandler$?streamPNG@@YA?AW4_cairo_status@@PAXPBEI@Z 1002ed18 f   Canvas.obj
 0001:0002dd18       __ehhandler$?streamPDF@@YA?AW4_cairo_status@@PAXPBEI@Z 1002ed18 f   Canvas.obj
 0001:0002dd40       __unwindfunclet$?StreamPNGSync@Canvas@@SAXABV?$FunctionCallbackInfo@VValue@v8@@@Nan@@@Z$0 1002ed40 f   Canvas.obj
 0001:0002dd48       __ehhandler$?StreamPNGSync@Canvas@@SAXABV?$FunctionCallbackInfo@VValue@v8@@@Nan@@@Z 1002ed48 f   Canvas.obj
 0001:0002dd70       __unwindfunclet$?StreamPDFSync@Canvas@@SAXABV?$FunctionCallbackInfo@VValue@v8@@@Nan@@@Z$1 1002ed70 f   Canvas.obj
 0001:0002dd78       __ehhandler$?StreamPDFSync@Canvas@@SAXABV?$FunctionCallbackInfo@VValue@v8@@@Nan@@@Z 1002ed78 f   Canvas.obj
 0001:0002dda0       __unwindfunclet$?StreamJPEGSync@Canvas@@SAXABV?$FunctionCallbackInfo@VValue@v8@@@Nan@@@Z$0 1002eda0 f   Canvas.obj
 0001:0002dda8       __ehhandler$?StreamJPEGSync@Canvas@@SAXABV?$FunctionCallbackInfo@VValue@v8@@@Nan@@@Z 1002eda8 f   Canvas.obj
 0001:0002ddd0       __unwindfunclet$?RegisterFont@Canvas@@SAXABV?$FunctionCallbackInfo@VValue@v8@@@Nan@@@Z$0 1002edd0 f   Canvas.obj
 0001:0002ddd9       __ehhandler$?RegisterFont@Canvas@@SAXABV?$FunctionCallbackInfo@VValue@v8@@@Nan@@@Z 1002edd9 f   Canvas.obj
 0001:0002de00       __unwindfunclet$?resurface@Canvas@@QAEXV?$Local@VObject@v8@@@v8@@@Z$0 1002ee00 f   Canvas.obj
 0001:0002de08       __ehhandler$?resurface@Canvas@@QAEXV?$Local@VObject@v8@@@v8@@@Z 1002ee08 f   Canvas.obj
 0001:0002de30       __unwindfunclet$??0?$TypedArrayContents@N@Nan@@QAE@V?$Local@VValue@v8@@@v8@@@Z$0 1002ee30 f   CanvasRenderingContext2d.obj
 0001:0002de30       __unwindfunclet$??0?$TypedArrayContents@E@Nan@@QAE@V?$Local@VValue@v8@@@v8@@@Z$0 1002ee30 f   Canvas.obj
 0001:0002de38       __ehhandler$??0?$TypedArrayContents@E@Nan@@QAE@V?$Local@VValue@v8@@@v8@@@Z 1002ee38 f   Canvas.obj
 0001:0002de38       __ehhandler$??0?$TypedArrayContents@N@Nan@@QAE@V?$Local@VValue@v8@@@v8@@@Z 1002ee38 f   CanvasRenderingContext2d.obj
 0001:0002de60       __unwindfunclet$??$New@VString@v8@@V?$basic_string@DU?$char_traits@D@std@@V?$allocator@D@2@@std@@@Nan@@YA?AV?$MaybeLocal@VString@v8@@@v8@@V?$basic_string@DU?$char_traits@D@std@@V?$allocator@D@2@@std@@@Z$0 1002ee60 f   Canvas.obj
 0001:0002de68       __ehhandler$??$New@VString@v8@@V?$basic_string@DU?$char_traits@D@std@@V?$allocator@D@2@@std@@@Nan@@YA?AV?$MaybeLocal@VString@v8@@@v8@@V?$basic_string@DU?$char_traits@D@std@@V?$allocator@D@2@@std@@@Z 1002ee68 f   Canvas.obj
 0001:0002de90       __unwindfunclet$??$SetMethod@VFunctionTemplate@v8@@VLocal@2@@Nan@@YAXV?$Local@VFunctionTemplate@v8@@@v8@@PBDP6AXABV?$FunctionCallbackInfo@VValue@v8@@@0@@Z@Z$0 1002ee90 f   Canvas.obj
 0001:0002de98       __ehhandler$??$SetMethod@VFunctionTemplate@v8@@VLocal@2@@Nan@@YAXV?$Local@VFunctionTemplate@v8@@@v8@@PBDP6AXABV?$FunctionCallbackInfo@VValue@v8@@@0@@Z@Z 1002ee98 f   Canvas.obj
 0001:0002dec0       __unwindfunclet$?Initialize@Gradient@@SAXV?$Local@VObject@v8@@@v8@@@Z$0 1002eec0 f   CanvasGradient.obj
 0001:0002dec8       __ehhandler$?Initialize@Gradient@@SAXV?$Local@VObject@v8@@@v8@@@Z 1002eec8 f   CanvasGradient.obj
 0001:0002def0       __unwindfunclet$?New@Gradient@@SAXABV?$FunctionCallbackInfo@VValue@v8@@@Nan@@@Z$0 1002eef0 f   CanvasGradient.obj
 0001:0002deff       __unwindfunclet$?New@Gradient@@SAXABV?$FunctionCallbackInfo@VValue@v8@@@Nan@@@Z$1 1002eeff f   CanvasGradient.obj
 0001:0002df0e       __ehhandler$?New@Gradient@@SAXABV?$FunctionCallbackInfo@VValue@v8@@@Nan@@@Z 1002ef0e f   CanvasGradient.obj
 0001:0002df30       __unwindfunclet$?AddColorStop@Gradient@@SAXABV?$FunctionCallbackInfo@VValue@v8@@@Nan@@@Z$0 1002ef30 f   CanvasGradient.obj
 0001:0002df39       __ehhandler$?AddColorStop@Gradient@@SAXABV?$FunctionCallbackInfo@VValue@v8@@@Nan@@@Z 1002ef39 f   CanvasGradient.obj
 0001:0002df60       __unwindfunclet$?NewInstance@Nan@@YA?AV?$MaybeLocal@VObject@v8@@@v8@@V?$Local@VFunction@v8@@@3@HQAV?$Local@VValue@v8@@@3@@Z$0 1002ef60 f   CanvasRenderingContext2d.obj
 0001:0002df69       __ehhandler$?NewInstance@Nan@@YA?AV?$MaybeLocal@VObject@v8@@@v8@@V?$Local@VFunction@v8@@@3@HQAV?$Local@VValue@v8@@@3@@Z 1002ef69 f   CanvasRenderingContext2d.obj
 0001:0002df90       __unwindfunclet$?convert@?$ToFactory@VInt32@v8@@@imp@Nan@@SA?AV?$MaybeLocal@VInt32@v8@@@v8@@V?$Local@VValue@v8@@@5@@Z$0 1002ef90 f   CanvasRenderingContext2d.obj
 0001:0002df90       __unwindfunclet$?GetFunction@Nan@@YA?AV?$MaybeLocal@VFunction@v8@@@v8@@V?$Local@VFunctionTemplate@v8@@@3@@Z$0 1002ef90 f   CanvasRenderingContext2d.obj
 0001:0002df99       __ehhandler$?convert@?$ToFactory@VInt32@v8@@@imp@Nan@@SA?AV?$MaybeLocal@VInt32@v8@@@v8@@V?$Local@VValue@v8@@@5@@Z 1002ef99 f   CanvasRenderingContext2d.obj
 0001:0002df99       __ehhandler$?GetFunction@Nan@@YA?AV?$MaybeLocal@VFunction@v8@@@v8@@V?$Local@VFunctionTemplate@v8@@@3@@Z 1002ef99 f   CanvasRenderingContext2d.obj
 0001:0002dfc0       __unwindfunclet$??0Context2d@@QAE@PAVCanvas@@@Z$0 1002efc0 f   CanvasRenderingContext2d.obj
 0001:0002dfc8       __ehhandler$??0Context2d@@QAE@PAVCanvas@@@Z 1002efc8 f   CanvasRenderingContext2d.obj
 0001:0002dff0       __unwindfunclet$?New@Context2d@@SAXABV?$FunctionCallbackInfo@VValue@v8@@@Nan@@@Z$2 1002eff0 f   CanvasRenderingContext2d.obj
 0001:0002e002       __ehhandler$?New@Context2d@@SAXABV?$FunctionCallbackInfo@VValue@v8@@@Nan@@@Z 1002f002 f   CanvasRenderingContext2d.obj
 0001:0002e030       __unwindfunclet$?GetFormat@Context2d@@SAXV?$Local@VString@v8@@@v8@@ABV?$PropertyCallbackInfo@VValue@v8@@@Nan@@@Z$0 1002f030 f   CanvasRenderingContext2d.obj
 0001:0002e038       __ehhandler$?GetFormat@Context2d@@SAXV?$Local@VString@v8@@@v8@@ABV?$PropertyCallbackInfo@VValue@v8@@@Nan@@@Z 1002f038 f   CanvasRenderingContext2d.obj
 0001:0002e060       __unwindfunclet$?SetAntiAlias@Context2d@@SAXV?$Local@VString@v8@@@v8@@V?$Local@VValue@v8@@@3@ABV?$PropertyCallbackInfo@X@Nan@@@Z$0 1002f060 f   CanvasRenderingContext2d.obj
 0001:0002e069       __ehhandler$?SetAntiAlias@Context2d@@SAXV?$Local@VString@v8@@@v8@@V?$Local@VValue@v8@@@3@ABV?$PropertyCallbackInfo@X@Nan@@@Z 1002f069 f   CanvasRenderingContext2d.obj
 0001:0002e090       __unwindfunclet$?SetTextDrawingMode@Context2d@@SAXV?$Local@VString@v8@@@v8@@V?$Local@VValue@v8@@@3@ABV?$PropertyCallbackInfo@X@Nan@@@Z$0 1002f090 f   CanvasRenderingContext2d.obj
 0001:0002e090       __unwindfunclet$?SetFilter@Context2d@@SAXV?$Local@VString@v8@@@v8@@V?$Local@VValue@v8@@@3@ABV?$PropertyCallbackInfo@X@Nan@@@Z$0 1002f090 f   CanvasRenderingContext2d.obj
 0001:0002e099       __ehhandler$?SetFilter@Context2d@@SAXV?$Local@VString@v8@@@v8@@V?$Local@VValue@v8@@@3@ABV?$PropertyCallbackInfo@X@Nan@@@Z 1002f099 f   CanvasRenderingContext2d.obj
 0001:0002e099       __ehhandler$?SetTextDrawingMode@Context2d@@SAXV?$Local@VString@v8@@@v8@@V?$Local@VValue@v8@@@3@ABV?$PropertyCallbackInfo@X@Nan@@@Z 1002f099 f   CanvasRenderingContext2d.obj
 0001:0002e0c0       __unwindfunclet$?SetShadowColor@Context2d@@SAXV?$Local@VString@v8@@@v8@@V?$Local@VValue@v8@@@3@ABV?$PropertyCallbackInfo@X@Nan@@@Z$0 1002f0c0 f   CanvasRenderingContext2d.obj
 0001:0002e0c9       __ehhandler$?SetShadowColor@Context2d@@SAXV?$Local@VString@v8@@@v8@@V?$Local@VValue@v8@@@3@ABV?$PropertyCallbackInfo@X@Nan@@@Z 1002f0c9 f   CanvasRenderingContext2d.obj
 0001:0002e0f0       __unwindfunclet$?SetStrokeColor@Context2d@@SAXABV?$FunctionCallbackInfo@VValue@v8@@@Nan@@@Z$0 1002f0f0 f   CanvasRenderingContext2d.obj
 0001:0002e0f0       __unwindfunclet$?SetFillColor@Context2d@@SAXABV?$FunctionCallbackInfo@VValue@v8@@@Nan@@@Z$0 1002f0f0 f   CanvasRenderingContext2d.obj
 0001:0002e0f9       __ehhandler$?SetFillColor@Context2d@@SAXABV?$FunctionCallbackInfo@VValue@v8@@@Nan@@@Z 1002f0f9 f   CanvasRenderingContext2d.obj
 0001:0002e0f9       __ehhandler$?SetStrokeColor@Context2d@@SAXABV?$FunctionCallbackInfo@VValue@v8@@@Nan@@@Z 1002f0f9 f   CanvasRenderingContext2d.obj
 0001:0002e120       __unwindfunclet$?FillText@Context2d@@SAXABV?$FunctionCallbackInfo@VValue@v8@@@Nan@@@Z$0 1002f120 f   CanvasRenderingContext2d.obj
 0001:0002e120       __unwindfunclet$?StrokeText@Context2d@@SAXABV?$FunctionCallbackInfo@VValue@v8@@@Nan@@@Z$0 1002f120 f   CanvasRenderingContext2d.obj
 0001:0002e129       __ehhandler$?StrokeText@Context2d@@SAXABV?$FunctionCallbackInfo@VValue@v8@@@Nan@@@Z 1002f129 f   CanvasRenderingContext2d.obj
 0001:0002e129       __ehhandler$?FillText@Context2d@@SAXABV?$FunctionCallbackInfo@VValue@v8@@@Nan@@@Z 1002f129 f   CanvasRenderingContext2d.obj
 0001:0002e150       __unwindfunclet$?SetFont@Context2d@@SAXABV?$FunctionCallbackInfo@VValue@v8@@@Nan@@@Z$0 1002f150 f   CanvasRenderingContext2d.obj
 0001:0002e159       __unwindfunclet$?SetFont@Context2d@@SAXABV?$FunctionCallbackInfo@VValue@v8@@@Nan@@@Z$1 1002f159 f   CanvasRenderingContext2d.obj
 0001:0002e162       __unwindfunclet$?SetFont@Context2d@@SAXABV?$FunctionCallbackInfo@VValue@v8@@@Nan@@@Z$2 1002f162 f   CanvasRenderingContext2d.obj
 0001:0002e16b       __unwindfunclet$?SetFont@Context2d@@SAXABV?$FunctionCallbackInfo@VValue@v8@@@Nan@@@Z$3 1002f16b f   CanvasRenderingContext2d.obj
 0001:0002e174       __ehhandler$?SetFont@Context2d@@SAXABV?$FunctionCallbackInfo@VValue@v8@@@Nan@@@Z 1002f174 f   CanvasRenderingContext2d.obj
 0001:0002e190       __unwindfunclet$?MeasureText@Context2d@@SAXABV?$FunctionCallbackInfo@VValue@v8@@@Nan@@@Z$0 1002f190 f   CanvasRenderingContext2d.obj
 0001:0002e19c       __ehhandler$?MeasureText@Context2d@@SAXABV?$FunctionCallbackInfo@VValue@v8@@@Nan@@@Z 1002f19c f   CanvasRenderingContext2d.obj
 0001:0002e1d0       __unwindfunclet$?SetLineDash@Context2d@@SAXABV?$FunctionCallbackInfo@VValue@v8@@@Nan@@@Z$0 1002f1d0 f   CanvasRenderingContext2d.obj
 0001:0002e1d8       __ehhandler$?SetLineDash@Context2d@@SAXABV?$FunctionCallbackInfo@VValue@v8@@@Nan@@@Z 1002f1d8 f   CanvasRenderingContext2d.obj
 0001:0002e200       __unwindfunclet$?GetLineDash@Context2d@@SAXABV?$FunctionCallbackInfo@VValue@v8@@@Nan@@@Z$0 1002f200 f   CanvasRenderingContext2d.obj
 0001:0002e208       __ehhandler$?GetLineDash@Context2d@@SAXABV?$FunctionCallbackInfo@VValue@v8@@@Nan@@@Z 1002f208 f   CanvasRenderingContext2d.obj
 0001:0002e230       __unwindfunclet$?SetSource@Image@@SAXV?$Local@VString@v8@@@v8@@V?$Local@VValue@v8@@@3@ABV?$PropertyCallbackInfo@X@Nan@@@Z$0 1002f230 f   Image.obj
 0001:0002e239       __ehhandler$?SetSource@Image@@SAXV?$Local@VString@v8@@@v8@@V?$Local@VValue@v8@@@3@ABV?$PropertyCallbackInfo@X@Nan@@@Z 1002f239 f   Image.obj
 0001:0002e260       __unwindfunclet$?loaded@Image@@QAEXXZ$0 1002f260 f   Image.obj
 0001:0002e268       __ehhandler$?loaded@Image@@QAEXXZ 1002f268 f   Image.obj
 0001:0002e283       __ehhandler$?CallUnexpected@@YAXPBU_s_ESTypeList@@@Z 1002f283 f   libvcruntime:frame.obj
 0001:0002e2a0       ??__F?constructor@ImageBackend@@2V?$Persistent@VFunctionTemplate@v8@@V?$NonCopyablePersistentTraits@VFunctionTemplate@v8@@@2@@Nan@@A@@YAXXZ 1002f2a0 f   ImageBackend.obj
 0001:0002e2e0       ??__F?constructor@PdfBackend@@2V?$Persistent@VFunctionTemplate@v8@@V?$NonCopyablePersistentTraits@VFunctionTemplate@v8@@@2@@Nan@@A@@YAXXZ 1002f2e0 f   PdfBackend.obj
 0001:0002e320       ??__F?constructor@SvgBackend@@2V?$Persistent@VFunctionTemplate@v8@@V?$NonCopyablePersistentTraits@VFunctionTemplate@v8@@@2@@Nan@@A@@YAXXZ 1002f320 f   SvgBackend.obj
 0001:0002e360       ??__F?constructor@Canvas@@2V?$Persistent@VFunctionTemplate@v8@@V?$NonCopyablePersistentTraits@VFunctionTemplate@v8@@@2@@Nan@@A@@YAXXZ 1002f360 f   Canvas.obj
 0001:0002e3a0       ??__F?_font_face_list@Canvas@@0V?$vector@VFontFace@@V?$allocator@VFontFace@@@std@@@std@@A@@YAXXZ 1002f3a0 f   Canvas.obj
 0001:0002e3b0       ??__F?constructor@Gradient@@2V?$Persistent@VFunctionTemplate@v8@@V?$NonCopyablePersistentTraits@VFunctionTemplate@v8@@@2@@Nan@@A@@YAXXZ 1002f3b0 f   CanvasGradient.obj
 0001:0002e3f0       ??__F?constructor@Pattern@@2V?$Persistent@VFunctionTemplate@v8@@V?$NonCopyablePersistentTraits@VFunctionTemplate@v8@@@2@@Nan@@A@@YAXXZ 1002f3f0 f   CanvasPattern.obj
 0001:0002e430       ??__F?constructor@Context2d@@2V?$Persistent@VFunctionTemplate@v8@@V?$NonCopyablePersistentTraits@VFunctionTemplate@v8@@@2@@Nan@@A@@YAXXZ 1002f430 f   CanvasRenderingContext2d.obj
 0001:0002e470       ??__F?constructor@Image@@2V?$Persistent@VFunctionTemplate@v8@@V?$NonCopyablePersistentTraits@VFunctionTemplate@v8@@@2@@Nan@@A@@YAXXZ 1002f470 f   Image.obj
 0001:0002e4b0       ??__F?constructor@ImageData@@2V?$Persistent@VFunctionTemplate@v8@@V?$NonCopyablePersistentTraits@VFunctionTemplate@v8@@@2@@Nan@@A@@YAXXZ 1002f4b0 f   ImageData.obj
 0001:0002e4e1       ??__Finitlocks@std@@YAXXZ  1002f4e1 f   libcpmt:xlock.obj
 0001:0002e4eb       ??__F_Fac_tidy_reg@std@@YAXXZ 1002f4eb f   libcpmt:locale0.obj
 0001:0002e4f5       ??__Fclassic_locale@std@@YAXXZ 1002f4f5 f   libcpmt:locale0.obj
 0001:0002e4ff       ??__Finit_atexit@@YAXXZ    1002f4ff f   libcpmt:iosptrs.obj
 0001:0002e509       ??__Finitlocks@std@@YAXXZ  1002f509 f   libcpmt:iosptrs.obj
 0002:00000488       ?initlocks$initializer$@std@@3P6AXXZA 10030488     libcpmt:xlock.obj
 0002:0000048c       ?initlocks$initializer$@std@@3P6AXXZA 1003048c     libcpmt:iosptrs.obj
 0002:00000490       ?init_atexit$initializer$@@3P6AXXZA 10030490     libcpmt:iosptrs.obj
 0002:00000494       ?_Fac_tidy_reg$initializer$@std@@3P6AXXZA 10030494     libcpmt:locale0.obj
 0002:00000498       ?classic_locale$initializer$@std@@3P6AXXZA 10030498     libcpmt:locale0.obj
 0002:0000049c       ??constructor$initializer$@ImageBackend@@2P6AXXZA@@3P6AXXZA 1003049c     ImageBackend.obj
 0002:000004a0       ??constructor$initializer$@PdfBackend@@2P6AXXZA@@3P6AXXZA 100304a0     PdfBackend.obj
 0002:000004a4       ??constructor$initializer$@SvgBackend@@2P6AXXZA@@3P6AXXZA 100304a4     SvgBackend.obj
 0002:000004a8       ??constructor$initializer$@Canvas@@2P6AXXZA@@3P6AXXZA 100304a8     Canvas.obj
 0002:000004ac       ??_font_face_list$initializer$@Canvas@@0P6AXXZA@@3P6AXXZA 100304ac     Canvas.obj
 0002:000004b0       ??constructor$initializer$@Gradient@@2P6AXXZA@@3P6AXXZA 100304b0     CanvasGradient.obj
 0002:000004b4       ??constructor$initializer$@Pattern@@2P6AXXZA@@3P6AXXZA 100304b4     CanvasPattern.obj
 0002:000004b8       ??constructor$initializer$@Context2d@@2P6AXXZA@@3P6AXXZA 100304b8     CanvasRenderingContext2d.obj
 0002:000004bc       ??constructor$initializer$@Image@@2P6AXXZA@@3P6AXXZA 100304bc     Image.obj
 0002:000004c0       ??constructor$initializer$@ImageData@@2P6AXXZA@@3P6AXXZA 100304c0     ImageData.obj
 0002:000004d0       ?pinit@@3P6AHXZA           100304d0     libcpmt:winapisupp.obj
 0002:000004d4       ?__scrt_initialize_tss_var@@3P6AHXZA 100304d4     LIBCMT:thread_safe_statics.obj
 0002:000009b8       ?_Win_errtab@std@@3QBU_Win_errtab_t@1@B 100309b8     libcpmt:syserror.obj
 0002:00000c08       ?_Sys_errtab@std@@3QBU_Sys_errtab_t@1@B 10030c08     libcpmt:syserror.obj
 0002:00001410       _digits                    10031410     libcpmt:xstoul.obj
 0002:00001438       _ndigs                     10031438     libcpmt:xstoul.obj
 0002:00001460       _digits                    10031460     libcpmt:xstoull.obj
 0002:00001488       _ndigs                     10031488     libcpmt:xstoull.obj
 0002:000014b0       ?LcidToLocaleNameTable@@3QBULcidToLocaleName@@B 100314b0     libcpmt:winapinls.obj
 0002:00001bd0       ?LocaleNameToIndexTable@@3QBULocaleNameIndex@@B 10031bd0     libcpmt:winapinls.obj
 0002:0000356c       _GS_ExceptionPointers      1003356c     LIBCMT:gs_report.obj
 0002:000035b8       ?ExceptionTemplate@?1??_CxxThrowException@@9@8@4UEHExceptionRecord@@B 100335b8     libvcruntime:throw.obj
 0002:000035d8       ?module_names@?A0x89697e75@@3QBQB_WB 100335d8     libvcruntime:winapi_downlevel.obj
 0002:00003688       ?candidate_modules@?1??try_get_FlsAlloc@@YAP6GKP6GXPAX@Z@ZXZ@4QBW4module_id@?A0x89697e75@@B 10033688     libvcruntime:winapi_downlevel.obj
 0002:00003690       ?candidate_modules@?1??try_get_FlsFree@@YAP6GHK@ZXZ@4QBW4module_id@?A0x89697e75@@B 10033690     libvcruntime:winapi_downlevel.obj
 0002:00003698       ?candidate_modules@?1??try_get_FlsGetValue@@YAP6GPAXK@ZXZ@4QBW4module_id@?A0x89697e75@@B 10033698     libvcruntime:winapi_downlevel.obj
 0002:000036a0       ?candidate_modules@?1??try_get_FlsSetValue@@YAP6GHKPAX@ZXZ@4QBW4module_id@?A0x89697e75@@B 100336a0     libvcruntime:winapi_downlevel.obj
 0002:000036a8       ?candidate_modules@?1??try_get_InitializeCriticalSectionEx@@YAP6GHPAU_RTL_CRITICAL_SECTION@@KK@ZXZ@4QBW4module_id@?A0x89697e75@@B 100336a8     libvcruntime:winapi_downlevel.obj
 0002:000036b0       ?tokenTable@@3QBQBDB       100336b0     libvcruntime:undname.obj
 0002:000036e8       ?nameTable@@3QBQBDB        100336e8     libvcruntime:undname.obj
 0002:0000382c       ?rttiTable@@3QBQBDB        1003382c     libvcruntime:undname.obj
 0002:00004940       _errtable                  10034940     libucrt:errno.obj
 0002:00005470       POW_name                   10035470     libucrt:pow.obj
 0002:00005548       ___acrt_initializers       10035548     libucrt:initialization.obj
 0002:00005660       ?_names@?1??_get_fname@@9@9 10035660     libucrt:fpexcept.obj
 0002:00005788       _over                      10035788     libucrt:fpctrl.obj
 0002:00005794       _under                     10035794     libucrt:fpctrl.obj
 0002:000057a0       _module_names              100357a0     libucrt:winapi_thunks.obj
 0002:00005c40       ?candidate_modules@?1??try_get_AreFileApisANSI@@YAP6GHXZXZ@4QBW4module_id@?A0x352e5c4b@@B 10035c40     libucrt:winapi_thunks.obj
 0002:00005c54       ?candidate_modules@?1??try_get_FlsAlloc@@YAP6GKP6GXPAX@Z@ZXZ@4QBW4module_id@?A0x352e5c4b@@B 10035c54     libucrt:winapi_thunks.obj
 0002:00005c5c       ?candidate_modules@?1??try_get_FlsFree@@YAP6GHK@ZXZ@4QBW4module_id@?A0x352e5c4b@@B 10035c5c     libucrt:winapi_thunks.obj
 0002:00005c64       ?candidate_modules@?1??try_get_FlsGetValue@@YAP6GPAXK@ZXZ@4QBW4module_id@?A0x352e5c4b@@B 10035c64     libucrt:winapi_thunks.obj
 0002:00005c6c       ?candidate_modules@?1??try_get_FlsSetValue@@YAP6GHKPAX@ZXZ@4QBW4module_id@?A0x352e5c4b@@B 10035c6c     libucrt:winapi_thunks.obj
 0002:00005c74       ?candidate_modules@?1??try_get_GetActiveWindow@@YAP6GPAUHWND__@@XZXZ@4QBW4module_id@?A0x352e5c4b@@B 10035c74     libucrt:winapi_thunks.obj
 0002:00005c8c       ?candidate_modules@?1??try_get_GetCurrentPackageId@@YAP6GJPAIPAE@ZXZ@4QBW4module_id@?A0x352e5c4b@@B 10035c8c     libucrt:winapi_thunks.obj
 0002:00005c94       ?candidate_modules@?1??try_get_GetLastActivePopup@@YAP6GPAUHWND__@@PAU2@@ZXZ@4QBW4module_id@?A0x352e5c4b@@B 10035c94     libucrt:winapi_thunks.obj
 0002:00005cb0       ?candidate_modules@?1??try_get_GetProcessWindowStation@@YAP6GPAUHWINSTA__@@XZXZ@4QBW4module_id@?A0x352e5c4b@@B 10035cb0     libucrt:winapi_thunks.obj
 0002:00005cd0       ?candidate_modules@?1??try_get_GetUserObjectInformationW@@YAP6GHPAXH0KPAK@ZXZ@4QBW4module_id@?A0x352e5c4b@@B 10035cd0     libucrt:winapi_thunks.obj
 0002:00005cf4       ?candidate_modules@?1??try_get_InitializeCriticalSectionEx@@YAP6GHPAU_RTL_CRITICAL_SECTION@@KK@ZXZ@4QBW4module_id@?A0x352e5c4b@@B 10035cf4     libucrt:winapi_thunks.obj
 0002:00005cfc       ?candidate_modules@?1??try_get_LCMapStringEx@@YAP6GHPB_WK0HPA_WHPAU_nlsversioninfo@@PAXJ@ZXZ@4QBW4module_id@?A0x352e5c4b@@B 10035cfc     libucrt:winapi_thunks.obj
 0002:00005d04       ?candidate_modules@?1??try_get_LocaleNameToLCID@@YAP6GKPB_WK@ZXZ@4QBW4module_id@?A0x352e5c4b@@B 10035d04     libucrt:winapi_thunks.obj
 0002:00005d20       ?candidate_modules@?1??try_get_MessageBoxA@@YAP6GHPAUHWND__@@PBD1I@ZXZ@4QBW4module_id@?A0x352e5c4b@@B 10035d20     libucrt:winapi_thunks.obj
 0002:00005d34       ?candidate_modules@?1??try_get_MessageBoxW@@YAP6GHPAUHWND__@@PB_W1I@ZXZ@4QBW4module_id@?A0x352e5c4b@@B 10035d34     libucrt:winapi_thunks.obj
 0002:00006260       Shifter                    10036260     libucrt:pow_pentium4.obj
 0002:00006270       SIGMASK                    10036270     libucrt:pow_pentium4.obj
 0002:00006280       ONEMASK                    10036280     libucrt:pow_pentium4.obj
 0002:00006290       ABSVALMASK                 10036290     libucrt:pow_pentium4.obj
 0002:000062a0       cev                        100362a0     libucrt:pow_pentium4.obj
 0002:000062c8       HALFSIG                    100362c8     libucrt:pow_pentium4.obj
 0002:000062d0       LHN                        100362d0     libucrt:pow_pentium4.obj
 0002:000062d8       sNaN                       100362d8     libucrt:pow_pentium4.obj
 0002:000062e0       INF                        100362e0     libucrt:pow_pentium4.obj
 0002:000062e8       NEG_INF                    100362e8     libucrt:pow_pentium4.obj
 0002:000062f0       NEG_ZERO                   100362f0     libucrt:pow_pentium4.obj
 0002:000062f8       NEG_BIG                    100362f8     libucrt:pow_pentium4.obj
 0002:00006300       POS_BIG                    10036300     libucrt:pow_pentium4.obj
 0002:00006308       EMIN                       10036308     libucrt:pow_pentium4.obj
 0002:00006310       QIND                       10036310     libucrt:pow_pentium4.obj
 0002:0000633e       _log2max                   1003633e     libucrt:87tran.obj
 0002:00006348       _smallarg                  10036348     libucrt:87tran.obj
 0002:00006352       _half                      10036352     libucrt:87tran.obj
 0002:0000639e       One                        1003639e     libucrt:87disp.obj
 0002:000063a6       Three                      100363a6     libucrt:87disp.obj
 0002:000063ae       XAMtoTagTab                100363ae     libucrt:87disp.obj
 0002:000063c0       One                        100363c0     libucrt:common.obj
 0002:000063d4       DblMax                     100363d4     libucrt:common.obj
 0002:000063dc       DblMin                     100363dc     libucrt:common.obj
 0002:000063e4       IeeeAdjO                   100363e4     libucrt:common.obj
 0002:000063ec       IeeeAdjU                   100363ec     libucrt:common.obj
 0002:000063f4       _infinity                  100363f4     libucrt:common.obj
 0002:000063fc       _zero                      100363fc     libucrt:common.obj
 0002:00006404       __mb_locale_names          10036404     libucrt:mbctype.obj
 0002:00006418       _LcidToLocaleNameTable     10036418     libucrt:lcidtoname_downlevel.obj
 0002:00006b38       _LocaleNameToIndexTable    10036b38     libucrt:lcidtoname_downlevel.obj
 0002:0000ab00       LOG_name                   1003ab00     libucrt:log10.obj
 0002:0000ab10       _One                       1003ab10     libucrt:ceil_pentium4.obj
 0002:0000ab20       _Bns                       1003ab20     libucrt:ceil_pentium4.obj
 0002:0000ab30       _Zero                      1003ab30     libucrt:ceil_pentium4.obj
 0002:0000ab40       _S                         1003ab40     libucrt:ceil_pentium4.obj
 0002:0000ab50       _NegZero                   1003ab50     libucrt:ceil_pentium4.obj
 0002:0000ab70       emask                      1003ab70     libucrt:log10_pentium4.obj
 0002:0000ab80       CC                         1003ab80     libucrt:log10_pentium4.obj
 0002:0000ab90       Magic                      1003ab90     libucrt:log10_pentium4.obj
 0002:0000aba0       hi_mask                    1003aba0     libucrt:log10_pentium4.obj
 0002:0000abb0       LOG10_2                    1003abb0     libucrt:log10_pentium4.obj
 0002:0000abc0       place_L                    1003abc0     libucrt:log10_pentium4.obj
 0002:0000abe0       One                        1003abe0     libucrt:log10_pentium4.obj
 0002:0000abf0       Zero                       1003abf0     libucrt:log10_pentium4.obj
 0002:0000ac00       Two52                      1003ac00     libucrt:log10_pentium4.obj
 0002:0000ac10       Infs                       1003ac10     libucrt:log10_pentium4.obj
 0002:0000ac20       NaN                        1003ac20     libucrt:log10_pentium4.obj
 0002:0000ac30       coeff                      1003ac30     libucrt:log10_pentium4.obj
 0002:0000c9b0       ?named_colors@@3PAUnamed_color@@A 1003c9b0     color.obj
 0002:0000d8c0       Shifter                    1003d8c0     libucrt:acos_sse2_precise.obj
 0002:0000d8d0       PI_BY_2                    1003d8d0     libucrt:acos_sse2_precise.obj
 0002:0000d8e0       NEG_PI                     1003d8e0     libucrt:acos_sse2_precise.obj
 0002:0000d8f0       PI                         1003d8f0     libucrt:acos_sse2_precise.obj
 0002:0000d900       SIGNMASK                   1003d900     libucrt:acos_sse2_precise.obj
 0002:0000d910       HALFMASK                   1003d910     libucrt:acos_sse2_precise.obj
 0002:0000d920       HALFMASK2                  1003d920     libucrt:acos_sse2_precise.obj
 0002:0000d930       cv                         1003d930     libucrt:acos_sse2_precise.obj
 0002:0000d950       cv2                        1003d950     libucrt:acos_sse2_precise.obj
 0002:0000d990       ABSVALMASK                 1003d990     libucrt:acos_sse2_precise.obj
 0002:0000d998       TMASK                      1003d998     libucrt:acos_sse2_precise.obj
 0002:0000d9a0       ONEMASK                    1003d9a0     libucrt:acos_sse2_precise.obj
 0002:0000d9a8       ONE_BY_2                   1003d9a8     libucrt:acos_sse2_precise.obj
 0002:0000d9b0       EMIN                       1003d9b0     libucrt:acos_sse2_precise.obj
 0002:0000d9b8       MAX_ARG                    1003d9b8     libucrt:acos_sse2_precise.obj
 0002:0000d9c0       MIN_ARG                    1003d9c0     libucrt:acos_sse2_precise.obj
 0002:0000d9c8       INF                        1003d9c8     libucrt:acos_sse2_precise.obj
 0002:0000d9d0       ZERO                       1003d9d0     libucrt:acos_sse2_precise.obj
 0002:0000d9d8       ALPHA                      1003d9d8     libucrt:acos_sse2_precise.obj
 0002:0000d9e0       PI32INV                    1003d9e0     libucrt:tan_sse2_precise.obj
 0002:0000d9f0       SHIFTER                    1003d9f0     libucrt:tan_sse2_precise.obj
 0002:0000da00       P_1                        1003da00     libucrt:tan_sse2_precise.obj
 0002:0000da10       P_2                        1003da10     libucrt:tan_sse2_precise.obj
 0002:0000da20       P_3                        1003da20     libucrt:tan_sse2_precise.obj
 0002:0000da30       QQ_2                       1003da30     libucrt:tan_sse2_precise.obj
 0002:0000da38       ONE                        1003da38     libucrt:tan_sse2_precise.obj
 0002:0000da40       MASK_35                    1003da40     libucrt:tan_sse2_precise.obj
 0002:0000da50       sign_mask                  1003da50     libucrt:tan_sse2_precise.obj
 0002:0000da58       TWO_POW_55                 1003da58     libucrt:tan_sse2_precise.obj
 0002:0000da60       TWO_POW_M55                1003da60     libucrt:tan_sse2_precise.obj
 0002:0000da68       TWO_POW_M53                1003da68     libucrt:tan_sse2_precise.obj
 0002:0000da70       INF                        1003da70     libucrt:tan_sse2_precise.obj
 0002:0000da80       _One                       1003da80     libucrt:floor_pentium4.obj
 0002:0000da90       _Bns                       1003da90     libucrt:floor_pentium4.obj
 0002:0000daa0       _NegOne                    1003daa0     libucrt:floor_pentium4.obj
 0002:0000dab0       _NegZero                   1003dab0     libucrt:floor_pentium4.obj
 0002:0000dac0       _S                         1003dac0     libucrt:floor_pentium4.obj
 0002:0000dad0       DblMax                     1003dad0     libucrt:87cdisp.obj
 0002:0000dad8       DblMin                     1003dad8     libucrt:87cdisp.obj
 0002:0000dae0       IeeeAdjO                   1003dae0     libucrt:87cdisp.obj
 0002:0000dae8       IeeeAdjU                   1003dae8     libucrt:87cdisp.obj
 0002:0000daf0       _infinity                  1003daf0     libucrt:87cdisp.obj
 0002:0000daf8       _zero                      1003daf8     libucrt:87cdisp.obj
 0002:0000db00       _NAME_                     1003db00     libucrt:acos.obj
 0002:0000f210       _NAME_                     1003f210     libucrt:sqrt.obj
 0002:0000f220       _NAME_                     1003f220     libucrt:tan.obj
 0002:00010830       Shifter                    10040830     libucrt:acos_pentium4.obj
 0002:00010840       PI_BY_2                    10040840     libucrt:acos_pentium4.obj
 0002:00010850       NEG_PI                     10040850     libucrt:acos_pentium4.obj
 0002:00010860       PI                         10040860     libucrt:acos_pentium4.obj
 0002:00010870       SIGNMASK                   10040870     libucrt:acos_pentium4.obj
 0002:00010880       HALFMASK                   10040880     libucrt:acos_pentium4.obj
 0002:00010890       HALFMASK2                  10040890     libucrt:acos_pentium4.obj
 0002:000108a0       cv                         100408a0     libucrt:acos_pentium4.obj
 0002:000108c0       cv2                        100408c0     libucrt:acos_pentium4.obj
 0002:00010900       ABSVALMASK                 10040900     libucrt:acos_pentium4.obj
 0002:00010908       TMASK                      10040908     libucrt:acos_pentium4.obj
 0002:00010910       ONEMASK                    10040910     libucrt:acos_pentium4.obj
 0002:00010918       ONE_BY_2                   10040918     libucrt:acos_pentium4.obj
 0002:00010920       EMIN                       10040920     libucrt:acos_pentium4.obj
 0002:00010928       MAX_ARG                    10040928     libucrt:acos_pentium4.obj
 0002:00010930       MIN_ARG                    10040930     libucrt:acos_pentium4.obj
 0002:00010938       INF                        10040938     libucrt:acos_pentium4.obj
 0002:00010940       ZERO                       10040940     libucrt:acos_pentium4.obj
 0002:00010948       ALPHA                      10040948     libucrt:acos_pentium4.obj
 0002:00010950       PI32INV                    10040950     libucrt:tan_pentium4.obj
 0002:00010960       SHIFTER                    10040960     libucrt:tan_pentium4.obj
 0002:00010970       P_1                        10040970     libucrt:tan_pentium4.obj
 0002:00010980       P_2                        10040980     libucrt:tan_pentium4.obj
 0002:00010990       P_3                        10040990     libucrt:tan_pentium4.obj
 0002:000109a0       QQ_2                       100409a0     libucrt:tan_pentium4.obj
 0002:000109a8       ONE                        100409a8     libucrt:tan_pentium4.obj
 0002:000109b0       MASK_35                    100409b0     libucrt:tan_pentium4.obj
 0002:000109c0       sign_mask                  100409c0     libucrt:tan_pentium4.obj
 0002:000109c8       TWO_POW_55                 100409c8     libucrt:tan_pentium4.obj
 0002:000109d0       TWO_POW_M55                100409d0     libucrt:tan_pentium4.obj
 0002:000109d8       TWO_POW_M53                100409d8     libucrt:tan_pentium4.obj
 0002:000109e0       INF                        100409e0     libucrt:tan_pentium4.obj
 0002:00011238       __unwindtable$??_GImage@@EAEPAXI@Z 10041238     Image.obj
 0002:00011238       __unwindtable$??1ObjectWrap@Nan@@UAE@XZ 10041238     Backend.obj
 0002:00011240       __ehfuncinfo$??_GImage@@EAEPAXI@Z 10041240     Image.obj
 0002:00011240       __ehfuncinfo$??1ObjectWrap@Nan@@UAE@XZ 10041240     Backend.obj
 0002:00011264       __unwindtable$??0Backend@@IAE@V?$basic_string@DU?$char_traits@D@std@@V?$allocator@D@2@@std@@HH@Z 10041264     Backend.obj
 0002:00011274       __ehfuncinfo$??0Backend@@IAE@V?$basic_string@DU?$char_traits@D@std@@V?$allocator@D@2@@std@@HH@Z 10041274     Backend.obj
 0002:00011298       __unwindtable$?NewInstance@Nan@@YA?AV?$MaybeLocal@VObject@v8@@@v8@@V?$Local@VObjectTemplate@v8@@@3@@Z 10041298     ImageBackend.obj
 0002:00011298       __unwindtable$?convert@?$ToFactory@VUint32@v8@@@imp@Nan@@SA?AV?$MaybeLocal@VUint32@v8@@@v8@@V?$Local@VValue@v8@@@5@@Z 10041298     Canvas.obj
 0002:000112a0       __ehfuncinfo$?convert@?$ToFactory@VUint32@v8@@@imp@Nan@@SA?AV?$MaybeLocal@VUint32@v8@@@v8@@V?$Local@VValue@v8@@@5@@Z 100412a0     Canvas.obj
 0002:000112a0       __ehfuncinfo$?NewInstance@Nan@@YA?AV?$MaybeLocal@VObject@v8@@@v8@@V?$Local@VObjectTemplate@v8@@@3@@Z 100412a0     ImageBackend.obj
 0002:000112c4       __unwindtable$?New@?$Factory@VFunctionTemplate@v8@@@imp@Nan@@SA?AV?$Local@VFunctionTemplate@v8@@@v8@@P6AXABV?$FunctionCallbackInfo@VValue@v8@@@3@@ZV?$Local@VValue@v8@@@5@V?$Local@VSignature@v8@@@5@@Z 100412c4     ImageBackend.obj
 0002:000112cc       __ehfuncinfo$?New@?$Factory@VFunctionTemplate@v8@@@imp@Nan@@SA?AV?$Local@VFunctionTemplate@v8@@@v8@@P6AXABV?$FunctionCallbackInfo@VValue@v8@@@3@@ZV?$Local@VValue@v8@@@5@V?$Local@VSignature@v8@@@5@@Z 100412cc     ImageBackend.obj
 0002:000112f0       __ehfuncinfo$??1AsyncResource@Nan@@QAE@XZ 100412f0     Canvas.obj
 0002:000112f0       __ehfuncinfo$??1_Fac_node@std@@QAE@XZ 100412f0     libcpmt:locale0.obj
 0002:000112f0       __ehfuncinfo$??1SvgBackend@@UAE@XZ 100412f0     SvgBackend.obj
 0002:000112f0       __ehfuncinfo$??1ImageBackend@@UAE@XZ 100412f0     ImageBackend.obj
 0002:000112f0       __ehfuncinfo$??1PdfBackend@@UAE@XZ 100412f0     PdfBackend.obj
 0002:000112f0       __ehfuncinfo$??1_Init_atexit@@QAE@XZ 100412f0     libcpmt:iosptrs.obj
 0002:00011314       __unwindtable$??__F?constructor@Image@@2V?$Persistent@VFunctionTemplate@v8@@V?$NonCopyablePersistentTraits@VFunctionTemplate@v8@@@2@@Nan@@A@@YAXXZ 10041314     Image.obj
 0002:00011314       __unwindtable$??__F?constructor@SvgBackend@@2V?$Persistent@VFunctionTemplate@v8@@V?$NonCopyablePersistentTraits@VFunctionTemplate@v8@@@2@@Nan@@A@@YAXXZ 10041314     SvgBackend.obj
 0002:00011314       __unwindtable$??__F?constructor@Context2d@@2V?$Persistent@VFunctionTemplate@v8@@V?$NonCopyablePersistentTraits@VFunctionTemplate@v8@@@2@@Nan@@A@@YAXXZ 10041314     CanvasRenderingContext2d.obj
 0002:00011314       __unwindtable$??__F?constructor@Canvas@@2V?$Persistent@VFunctionTemplate@v8@@V?$NonCopyablePersistentTraits@VFunctionTemplate@v8@@@2@@Nan@@A@@YAXXZ 10041314     Canvas.obj
 0002:00011314       __unwindtable$??__F?constructor@ImageData@@2V?$Persistent@VFunctionTemplate@v8@@V?$NonCopyablePersistentTraits@VFunctionTemplate@v8@@@2@@Nan@@A@@YAXXZ 10041314     ImageData.obj
 0002:00011314       __unwindtable$??__F?constructor@Gradient@@2V?$Persistent@VFunctionTemplate@v8@@V?$NonCopyablePersistentTraits@VFunctionTemplate@v8@@@2@@Nan@@A@@YAXXZ 10041314     CanvasGradient.obj
 0002:00011314       __unwindtable$??__F?constructor@ImageBackend@@2V?$Persistent@VFunctionTemplate@v8@@V?$NonCopyablePersistentTraits@VFunctionTemplate@v8@@@2@@Nan@@A@@YAXXZ 10041314     ImageBackend.obj
 0002:00011314       __unwindtable$??__F?constructor@PdfBackend@@2V?$Persistent@VFunctionTemplate@v8@@V?$NonCopyablePersistentTraits@VFunctionTemplate@v8@@@2@@Nan@@A@@YAXXZ 10041314     PdfBackend.obj
 0002:00011314       __unwindtable$??__F?constructor@Pattern@@2V?$Persistent@VFunctionTemplate@v8@@V?$NonCopyablePersistentTraits@VFunctionTemplate@v8@@@2@@Nan@@A@@YAXXZ 10041314     CanvasPattern.obj
 0002:0001131c       __ehfuncinfo$??__F?constructor@Image@@2V?$Persistent@VFunctionTemplate@v8@@V?$NonCopyablePersistentTraits@VFunctionTemplate@v8@@@2@@Nan@@A@@YAXXZ 1004131c     Image.obj
 0002:0001131c       __ehfuncinfo$??__F?constructor@SvgBackend@@2V?$Persistent@VFunctionTemplate@v8@@V?$NonCopyablePersistentTraits@VFunctionTemplate@v8@@@2@@Nan@@A@@YAXXZ 1004131c     SvgBackend.obj
 0002:0001131c       __ehfuncinfo$??__F?constructor@Pattern@@2V?$Persistent@VFunctionTemplate@v8@@V?$NonCopyablePersistentTraits@VFunctionTemplate@v8@@@2@@Nan@@A@@YAXXZ 1004131c     CanvasPattern.obj
 0002:0001131c       __ehfuncinfo$??__F?constructor@Context2d@@2V?$Persistent@VFunctionTemplate@v8@@V?$NonCopyablePersistentTraits@VFunctionTemplate@v8@@@2@@Nan@@A@@YAXXZ 1004131c     CanvasRenderingContext2d.obj
 0002:0001131c       __ehfuncinfo$??__F?constructor@ImageData@@2V?$Persistent@VFunctionTemplate@v8@@V?$NonCopyablePersistentTraits@VFunctionTemplate@v8@@@2@@Nan@@A@@YAXXZ 1004131c     ImageData.obj
 0002:0001131c       __ehfuncinfo$??__F?constructor@Gradient@@2V?$Persistent@VFunctionTemplate@v8@@V?$NonCopyablePersistentTraits@VFunctionTemplate@v8@@@2@@Nan@@A@@YAXXZ 1004131c     CanvasGradient.obj
 0002:0001131c       __ehfuncinfo$??__F?constructor@ImageBackend@@2V?$Persistent@VFunctionTemplate@v8@@V?$NonCopyablePersistentTraits@VFunctionTemplate@v8@@@2@@Nan@@A@@YAXXZ 1004131c     ImageBackend.obj
 0002:0001131c       __ehfuncinfo$??__F?constructor@PdfBackend@@2V?$Persistent@VFunctionTemplate@v8@@V?$NonCopyablePersistentTraits@VFunctionTemplate@v8@@@2@@Nan@@A@@YAXXZ 1004131c     PdfBackend.obj
 0002:0001131c       __ehfuncinfo$??__F?constructor@Canvas@@2V?$Persistent@VFunctionTemplate@v8@@V?$NonCopyablePersistentTraits@VFunctionTemplate@v8@@@2@@Nan@@A@@YAXXZ 1004131c     Canvas.obj
 0002:00011340       __unwindtable$?Initialize@SvgBackend@@SAXV?$Local@VObject@v8@@@v8@@@Z 10041340     SvgBackend.obj
 0002:00011340       __unwindtable$?Initialize@ImageBackend@@SAXV?$Local@VObject@v8@@@v8@@@Z 10041340     ImageBackend.obj
 0002:00011340       __unwindtable$?Initialize@PdfBackend@@SAXV?$Local@VObject@v8@@@v8@@@Z 10041340     PdfBackend.obj
 0002:00011348       __ehfuncinfo$?Initialize@PdfBackend@@SAXV?$Local@VObject@v8@@@v8@@@Z 10041348     PdfBackend.obj
 0002:00011348       __ehfuncinfo$?Initialize@ImageBackend@@SAXV?$Local@VObject@v8@@@v8@@@Z 10041348     ImageBackend.obj
 0002:00011348       __ehfuncinfo$?Initialize@SvgBackend@@SAXV?$Local@VObject@v8@@@v8@@@Z 10041348     SvgBackend.obj
 0002:0001136c       __unwindtable$?New@ImageBackend@@SAXABV?$FunctionCallbackInfo@VValue@v8@@@Nan@@@Z 1004136c     ImageBackend.obj
 0002:00011374       __ehfuncinfo$?New@ImageBackend@@SAXABV?$FunctionCallbackInfo@VValue@v8@@@Nan@@@Z 10041374     ImageBackend.obj
 0002:00011398       __unwindtable$?New@PdfBackend@@SAXABV?$FunctionCallbackInfo@VValue@v8@@@Nan@@@Z 10041398     PdfBackend.obj
 0002:00011398       __unwindtable$?New@SvgBackend@@SAXABV?$FunctionCallbackInfo@VValue@v8@@@Nan@@@Z 10041398     SvgBackend.obj
 0002:000113a0       __ehfuncinfo$?New@SvgBackend@@SAXABV?$FunctionCallbackInfo@VValue@v8@@@Nan@@@Z 100413a0     SvgBackend.obj
 0002:000113a0       __ehfuncinfo$?New@PdfBackend@@SAXABV?$FunctionCallbackInfo@VValue@v8@@@Nan@@@Z 100413a0     PdfBackend.obj
 0002:000113c4       __unwindtable$?Initialize@Backends@@SAXV?$Local@VObject@v8@@@v8@@@Z 100413c4     Backends.obj
 0002:000113cc       __ehfuncinfo$?Initialize@Backends@@SAXV?$Local@VObject@v8@@@v8@@@Z 100413cc     Backends.obj
 0002:000113f0       __unwindtable$?Set@Nan@@YA?AV?$Maybe@_N@v8@@V?$Local@VObject@v8@@@3@V?$Local@VValue@v8@@@3@1@Z 100413f0     Canvas.obj
 0002:000113f8       __ehfuncinfo$?Set@Nan@@YA?AV?$Maybe@_N@v8@@V?$Local@VObject@v8@@@3@V?$Local@VValue@v8@@@3@1@Z 100413f8     Canvas.obj
 0002:0001141c       __unwindtable$?Call@Nan@@YA?AV?$MaybeLocal@VValue@v8@@@v8@@V?$Local@VFunction@v8@@@3@V?$Local@VObject@v8@@@3@HQAV?$Local@VValue@v8@@@3@@Z 1004141c     Canvas.obj
 0002:00011424       __ehfuncinfo$?Call@Nan@@YA?AV?$MaybeLocal@VValue@v8@@@v8@@V?$Local@VFunction@v8@@@3@V?$Local@VObject@v8@@@3@HQAV?$Local@VValue@v8@@@3@@Z 10041424     Canvas.obj
 0002:00011448       __unwindtable$?ThrowRangeError@Nan@@YAXPBD@Z 10041448     Canvas.obj
 0002:00011448       __unwindtable$?ThrowError@Nan@@YAXPBD@Z 10041448     Canvas.obj
 0002:00011448       __unwindtable$?ThrowTypeError@Nan@@YAXPBD@Z 10041448     Canvas.obj
 0002:00011450       __ehfuncinfo$?ThrowRangeError@Nan@@YAXPBD@Z 10041450     Canvas.obj
 0002:00011450       __ehfuncinfo$?ThrowError@Nan@@YAXPBD@Z 10041450     Canvas.obj
 0002:00011450       __ehfuncinfo$?ThrowTypeError@Nan@@YAXPBD@Z 10041450     Canvas.obj
 0002:00011474       __unwindtable$?MakeCallback@Nan@@YA?AV?$Local@VValue@v8@@@v8@@V?$Local@VObject@v8@@@3@V?$Local@VFunction@v8@@@3@HPAV23@@Z 10041474     Canvas.obj
 0002:00011484       __ehfuncinfo$?MakeCallback@Nan@@YA?AV?$Local@VValue@v8@@@v8@@V?$Local@VObject@v8@@@3@V?$Local@VFunction@v8@@@3@HPAV23@@Z 10041484     Canvas.obj
 0002:000114a8       __unwindtable$?Call@Callback@Nan@@QBE?AV?$Local@VValue@v8@@@v8@@HQAV34@@Z 100414a8     Canvas.obj
 0002:000114c0       __ehfuncinfo$?Call@Callback@Nan@@QBE?AV?$Local@VValue@v8@@@v8@@HQAV34@@Z 100414c0     Canvas.obj
 0002:000114e4       __unwindtable$?Call_@Callback@Nan@@ABE?AV?$MaybeLocal@VValue@v8@@@v8@@PAVIsolate@4@V?$Local@VObject@v8@@@4@HQAV?$Local@VValue@v8@@@4@PAVAsyncResource@2@@Z 100414e4     Canvas.obj
 0002:000114ec       __ehfuncinfo$?Call_@Callback@Nan@@ABE?AV?$MaybeLocal@VValue@v8@@@v8@@PAVIsolate@4@V?$Local@VObject@v8@@@4@HQAV?$Local@VValue@v8@@@4@PAVAsyncResource@2@@Z 100414ec     Canvas.obj
 0002:00011510       __unwindtable$?SetPrototypeMethod@Nan@@YAXV?$Local@VFunctionTemplate@v8@@@v8@@PBDP6AXABV?$FunctionCallbackInfo@VValue@v8@@@1@@Z@Z 10041510     Canvas.obj
 0002:00011518       __ehfuncinfo$?SetPrototypeMethod@Nan@@YAXV?$Local@VFunctionTemplate@v8@@@v8@@PBDP6AXABV?$FunctionCallbackInfo@VValue@v8@@@1@@Z@Z 10041518     Canvas.obj
 0002:0001153c       __unwindtable$?Initialize@Image@@SAXV?$Local@VObject@v8@@@v8@@@Z 1004153c     Image.obj
 0002:0001153c       __unwindtable$?Initialize@Context2d@@SAXV?$Local@VObject@v8@@@v8@@@Z 1004153c     CanvasRenderingContext2d.obj
 0002:0001153c       __unwindtable$?SetAccessor@Nan@@YAXV?$Local@VObjectTemplate@v8@@@v8@@V?$Local@VString@v8@@@3@P6AX1ABV?$PropertyCallbackInfo@VValue@v8@@@1@@ZP6AX1V?$Local@VValue@v8@@@3@ABV?$PropertyCallbackInfo@X@1@@Z4W4AccessControl@3@W4PropertyAttribute@3@V?$Local@VAccessorSignature@v8@@@3@@Z 1004153c     Canvas.obj
 0002:0001153c       __unwindtable$?Initialize@Canvas@@SAXV?$Local@VObject@v8@@@v8@@@Z 1004153c     Canvas.obj
 0002:0001153c       __unwindtable$?Initialize@ImageData@@SAXV?$Local@VObject@v8@@@v8@@@Z 1004153c     ImageData.obj
 0002:00011544       __ehfuncinfo$?Initialize@Image@@SAXV?$Local@VObject@v8@@@v8@@@Z 10041544     Image.obj
 0002:00011544       __ehfuncinfo$?Initialize@Context2d@@SAXV?$Local@VObject@v8@@@v8@@@Z 10041544     CanvasRenderingContext2d.obj
 0002:00011544       __ehfuncinfo$?Initialize@ImageData@@SAXV?$Local@VObject@v8@@@v8@@@Z 10041544     ImageData.obj
 0002:00011544       __ehfuncinfo$?SetAccessor@Nan@@YAXV?$Local@VObjectTemplate@v8@@@v8@@V?$Local@VString@v8@@@3@P6AX1ABV?$PropertyCallbackInfo@VValue@v8@@@1@@ZP6AX1V?$Local@VValue@v8@@@3@ABV?$PropertyCallbackInfo@X@1@@Z4W4AccessControl@3@W4PropertyAttribute@3@V?$Local@VAccessorSignature@v8@@@3@@Z 10041544     Canvas.obj
 0002:00011544       __ehfuncinfo$?Initialize@Canvas@@SAXV?$Local@VObject@v8@@@v8@@@Z 10041544     Canvas.obj
 0002:00011568       __unwindtable$?Initialize@Pattern@@SAXV?$Local@VObject@v8@@@v8@@@Z 10041568     CanvasPattern.obj
 0002:00011568       __unwindtable$?empty_closure_output_buffer@@YAEPAUjpeg_compress_struct@@@Z 10041568     Canvas.obj
 0002:00011570       __ehfuncinfo$?Initialize@Pattern@@SAXV?$Local@VObject@v8@@@v8@@@Z 10041570     CanvasPattern.obj
 0002:00011570       __ehfuncinfo$?empty_closure_output_buffer@@YAEPAUjpeg_compress_struct@@@Z 10041570     Canvas.obj
 0002:00011594       __unwindtable$?term_closure_destination@@YAXPAUjpeg_compress_struct@@@Z 10041594     Canvas.obj
 0002:0001159c       __ehfuncinfo$?term_closure_destination@@YAXPAUjpeg_compress_struct@@@Z 1004159c     Canvas.obj
 0002:000115c0       __ehfuncinfo$?New@Canvas@@SAXABV?$FunctionCallbackInfo@VValue@v8@@@Nan@@@Z 100415c0     Canvas.obj
 0002:000115e4       __unwindtable$?New@Canvas@@SAXABV?$FunctionCallbackInfo@VValue@v8@@@Nan@@@Z 100415e4     Canvas.obj
 0002:0001160c       __unwindtable$?ToBufferAsyncAfter@Canvas@@SAXPAUuv_work_s@@@Z 1004160c     Canvas.obj
 0002:00011624       __ehfuncinfo$?ToBufferAsyncAfter@Canvas@@SAXPAUuv_work_s@@@Z 10041624     Canvas.obj
 0002:00011648       __unwindtable$?ToBuffer@Canvas@@SAXABV?$FunctionCallbackInfo@VValue@v8@@@Nan@@@Z 10041648     Canvas.obj
 0002:00011660       __ehfuncinfo$?ToBuffer@Canvas@@SAXABV?$FunctionCallbackInfo@VValue@v8@@@Nan@@@Z 10041660     Canvas.obj
 0002:00011684       __unwindtable$?streamPNG@@YA?AW4_cairo_status@@PAXPBEI@Z 10041684     Canvas.obj
 0002:00011684       __unwindtable$?streamPDF@@YA?AW4_cairo_status@@PAXPBEI@Z 10041684     Canvas.obj
 0002:0001168c       __ehfuncinfo$?streamPNG@@YA?AW4_cairo_status@@PAXPBEI@Z 1004168c     Canvas.obj
 0002:0001168c       __ehfuncinfo$?streamPDF@@YA?AW4_cairo_status@@PAXPBEI@Z 1004168c     Canvas.obj
 0002:000116b0       __unwindtable$?StreamPNGSync@Canvas@@SAXABV?$FunctionCallbackInfo@VValue@v8@@@Nan@@@Z 100416b0     Canvas.obj
 0002:000116b8       __ehfuncinfo$?StreamPNGSync@Canvas@@SAXABV?$FunctionCallbackInfo@VValue@v8@@@Nan@@@Z 100416b8     Canvas.obj
 0002:000116dc       __unwindtable$?StreamPDFSync@Canvas@@SAXABV?$FunctionCallbackInfo@VValue@v8@@@Nan@@@Z 100416dc     Canvas.obj
 0002:000116e4       __ehfuncinfo$?StreamPDFSync@Canvas@@SAXABV?$FunctionCallbackInfo@VValue@v8@@@Nan@@@Z 100416e4     Canvas.obj
 0002:00011708       __unwindtable$?StreamJPEGSync@Canvas@@SAXABV?$FunctionCallbackInfo@VValue@v8@@@Nan@@@Z 10041708     Canvas.obj
 0002:00011710       __ehfuncinfo$?StreamJPEGSync@Canvas@@SAXABV?$FunctionCallbackInfo@VValue@v8@@@Nan@@@Z 10041710     Canvas.obj
 0002:00011734       __unwindtable$?RegisterFont@Canvas@@SAXABV?$FunctionCallbackInfo@VValue@v8@@@Nan@@@Z 10041734     Canvas.obj
 0002:0001173c       __ehfuncinfo$?RegisterFont@Canvas@@SAXABV?$FunctionCallbackInfo@VValue@v8@@@Nan@@@Z 1004173c     Canvas.obj
 0002:00011760       __unwindtable$?resurface@Canvas@@QAEXV?$Local@VObject@v8@@@v8@@@Z 10041760     Canvas.obj
 0002:00011768       __ehfuncinfo$?resurface@Canvas@@QAEXV?$Local@VObject@v8@@@v8@@@Z 10041768     Canvas.obj
 0002:0001178c       __unwindtable$??0?$TypedArrayContents@N@Nan@@QAE@V?$Local@VValue@v8@@@v8@@@Z 1004178c     CanvasRenderingContext2d.obj
 0002:0001178c       __unwindtable$??0?$TypedArrayContents@E@Nan@@QAE@V?$Local@VValue@v8@@@v8@@@Z 1004178c     Canvas.obj
 0002:00011794       __ehfuncinfo$??0?$TypedArrayContents@N@Nan@@QAE@V?$Local@VValue@v8@@@v8@@@Z 10041794     CanvasRenderingContext2d.obj
 0002:00011794       __ehfuncinfo$??0?$TypedArrayContents@E@Nan@@QAE@V?$Local@VValue@v8@@@v8@@@Z 10041794     Canvas.obj
 0002:000117b8       __unwindtable$??$New@VString@v8@@V?$basic_string@DU?$char_traits@D@std@@V?$allocator@D@2@@std@@@Nan@@YA?AV?$MaybeLocal@VString@v8@@@v8@@V?$basic_string@DU?$char_traits@D@std@@V?$allocator@D@2@@std@@@Z 100417b8     Canvas.obj
 0002:000117c0       __ehfuncinfo$??$New@VString@v8@@V?$basic_string@DU?$char_traits@D@std@@V?$allocator@D@2@@std@@@Nan@@YA?AV?$MaybeLocal@VString@v8@@@v8@@V?$basic_string@DU?$char_traits@D@std@@V?$allocator@D@2@@std@@@Z 100417c0     Canvas.obj
 0002:000117e4       __unwindtable$??$SetMethod@VFunctionTemplate@v8@@VLocal@2@@Nan@@YAXV?$Local@VFunctionTemplate@v8@@@v8@@PBDP6AXABV?$FunctionCallbackInfo@VValue@v8@@@0@@Z@Z 100417e4     Canvas.obj
 0002:000117ec       __ehfuncinfo$??$SetMethod@VFunctionTemplate@v8@@VLocal@2@@Nan@@YAXV?$Local@VFunctionTemplate@v8@@@v8@@PBDP6AXABV?$FunctionCallbackInfo@VValue@v8@@@0@@Z@Z 100417ec     Canvas.obj
 0002:00011810       __unwindtable$?Initialize@Gradient@@SAXV?$Local@VObject@v8@@@v8@@@Z 10041810     CanvasGradient.obj
 0002:00011818       __ehfuncinfo$?Initialize@Gradient@@SAXV?$Local@VObject@v8@@@v8@@@Z 10041818     CanvasGradient.obj
 0002:0001183c       __unwindtable$?New@Gradient@@SAXABV?$FunctionCallbackInfo@VValue@v8@@@Nan@@@Z 1004183c     CanvasGradient.obj
 0002:0001184c       __ehfuncinfo$?New@Gradient@@SAXABV?$FunctionCallbackInfo@VValue@v8@@@Nan@@@Z 1004184c     CanvasGradient.obj
 0002:00011870       __unwindtable$?AddColorStop@Gradient@@SAXABV?$FunctionCallbackInfo@VValue@v8@@@Nan@@@Z 10041870     CanvasGradient.obj
 0002:00011878       __ehfuncinfo$?AddColorStop@Gradient@@SAXABV?$FunctionCallbackInfo@VValue@v8@@@Nan@@@Z 10041878     CanvasGradient.obj
 0002:0001189c       __unwindtable$?NewInstance@Nan@@YA?AV?$MaybeLocal@VObject@v8@@@v8@@V?$Local@VFunction@v8@@@3@HQAV?$Local@VValue@v8@@@3@@Z 1004189c     CanvasRenderingContext2d.obj
 0002:000118a4       __ehfuncinfo$?NewInstance@Nan@@YA?AV?$MaybeLocal@VObject@v8@@@v8@@V?$Local@VFunction@v8@@@3@HQAV?$Local@VValue@v8@@@3@@Z 100418a4     CanvasRenderingContext2d.obj
 0002:000118c8       __unwindtable$?convert@?$ToFactory@VInt32@v8@@@imp@Nan@@SA?AV?$MaybeLocal@VInt32@v8@@@v8@@V?$Local@VValue@v8@@@5@@Z 100418c8     CanvasRenderingContext2d.obj
 0002:000118c8       __unwindtable$?GetFunction@Nan@@YA?AV?$MaybeLocal@VFunction@v8@@@v8@@V?$Local@VFunctionTemplate@v8@@@3@@Z 100418c8     CanvasRenderingContext2d.obj
 0002:000118d0       __ehfuncinfo$?GetFunction@Nan@@YA?AV?$MaybeLocal@VFunction@v8@@@v8@@V?$Local@VFunctionTemplate@v8@@@3@@Z 100418d0     CanvasRenderingContext2d.obj
 0002:000118d0       __ehfuncinfo$?convert@?$ToFactory@VInt32@v8@@@imp@Nan@@SA?AV?$MaybeLocal@VInt32@v8@@@v8@@V?$Local@VValue@v8@@@5@@Z 100418d0     CanvasRenderingContext2d.obj
 0002:000118f4       __unwindtable$??0Context2d@@QAE@PAVCanvas@@@Z 100418f4     CanvasRenderingContext2d.obj
 0002:000118fc       __ehfuncinfo$??0Context2d@@QAE@PAVCanvas@@@Z 100418fc     CanvasRenderingContext2d.obj
 0002:00011920       __unwindtable$?New@Context2d@@SAXABV?$FunctionCallbackInfo@VValue@v8@@@Nan@@@Z 10041920     CanvasRenderingContext2d.obj
 0002:00011928       __ehfuncinfo$?New@Context2d@@SAXABV?$FunctionCallbackInfo@VValue@v8@@@Nan@@@Z 10041928     CanvasRenderingContext2d.obj
 0002:0001194c       __unwindtable$?GetFormat@Context2d@@SAXV?$Local@VString@v8@@@v8@@ABV?$PropertyCallbackInfo@VValue@v8@@@Nan@@@Z 1004194c     CanvasRenderingContext2d.obj
 0002:00011954       __ehfuncinfo$?GetFormat@Context2d@@SAXV?$Local@VString@v8@@@v8@@ABV?$PropertyCallbackInfo@VValue@v8@@@Nan@@@Z 10041954     CanvasRenderingContext2d.obj
 0002:00011978       __unwindtable$?SetAntiAlias@Context2d@@SAXV?$Local@VString@v8@@@v8@@V?$Local@VValue@v8@@@3@ABV?$PropertyCallbackInfo@X@Nan@@@Z 10041978     CanvasRenderingContext2d.obj
 0002:00011980       __ehfuncinfo$?SetAntiAlias@Context2d@@SAXV?$Local@VString@v8@@@v8@@V?$Local@VValue@v8@@@3@ABV?$PropertyCallbackInfo@X@Nan@@@Z 10041980     CanvasRenderingContext2d.obj
 0002:000119a4       __unwindtable$?SetTextDrawingMode@Context2d@@SAXV?$Local@VString@v8@@@v8@@V?$Local@VValue@v8@@@3@ABV?$PropertyCallbackInfo@X@Nan@@@Z 100419a4     CanvasRenderingContext2d.obj
 0002:000119a4       __unwindtable$?SetFilter@Context2d@@SAXV?$Local@VString@v8@@@v8@@V?$Local@VValue@v8@@@3@ABV?$PropertyCallbackInfo@X@Nan@@@Z 100419a4     CanvasRenderingContext2d.obj
 0002:000119ac       __ehfuncinfo$?SetFilter@Context2d@@SAXV?$Local@VString@v8@@@v8@@V?$Local@VValue@v8@@@3@ABV?$PropertyCallbackInfo@X@Nan@@@Z 100419ac     CanvasRenderingContext2d.obj
 0002:000119ac       __ehfuncinfo$?SetTextDrawingMode@Context2d@@SAXV?$Local@VString@v8@@@v8@@V?$Local@VValue@v8@@@3@ABV?$PropertyCallbackInfo@X@Nan@@@Z 100419ac     CanvasRenderingContext2d.obj
 0002:000119d0       __unwindtable$?SetShadowColor@Context2d@@SAXV?$Local@VString@v8@@@v8@@V?$Local@VValue@v8@@@3@ABV?$PropertyCallbackInfo@X@Nan@@@Z 100419d0     CanvasRenderingContext2d.obj
 0002:000119d8       __ehfuncinfo$?SetShadowColor@Context2d@@SAXV?$Local@VString@v8@@@v8@@V?$Local@VValue@v8@@@3@ABV?$PropertyCallbackInfo@X@Nan@@@Z 100419d8     CanvasRenderingContext2d.obj
 0002:000119fc       __unwindtable$?SetStrokeColor@Context2d@@SAXABV?$FunctionCallbackInfo@VValue@v8@@@Nan@@@Z 100419fc     CanvasRenderingContext2d.obj
 0002:000119fc       __unwindtable$?SetFillColor@Context2d@@SAXABV?$FunctionCallbackInfo@VValue@v8@@@Nan@@@Z 100419fc     CanvasRenderingContext2d.obj
 0002:00011a04       __ehfuncinfo$?SetStrokeColor@Context2d@@SAXABV?$FunctionCallbackInfo@VValue@v8@@@Nan@@@Z 10041a04     CanvasRenderingContext2d.obj
 0002:00011a04       __ehfuncinfo$?SetFillColor@Context2d@@SAXABV?$FunctionCallbackInfo@VValue@v8@@@Nan@@@Z 10041a04     CanvasRenderingContext2d.obj
 0002:00011a28       __unwindtable$?StrokeText@Context2d@@SAXABV?$FunctionCallbackInfo@VValue@v8@@@Nan@@@Z 10041a28     CanvasRenderingContext2d.obj
 0002:00011a28       __unwindtable$?FillText@Context2d@@SAXABV?$FunctionCallbackInfo@VValue@v8@@@Nan@@@Z 10041a28     CanvasRenderingContext2d.obj
 0002:00011a30       __ehfuncinfo$?FillText@Context2d@@SAXABV?$FunctionCallbackInfo@VValue@v8@@@Nan@@@Z 10041a30     CanvasRenderingContext2d.obj
 0002:00011a30       __ehfuncinfo$?StrokeText@Context2d@@SAXABV?$FunctionCallbackInfo@VValue@v8@@@Nan@@@Z 10041a30     CanvasRenderingContext2d.obj
 0002:00011a54       __unwindtable$?SetFont@Context2d@@SAXABV?$FunctionCallbackInfo@VValue@v8@@@Nan@@@Z 10041a54     CanvasRenderingContext2d.obj
 0002:00011a74       __ehfuncinfo$?SetFont@Context2d@@SAXABV?$FunctionCallbackInfo@VValue@v8@@@Nan@@@Z 10041a74     CanvasRenderingContext2d.obj
 0002:00011a98       __unwindtable$?MeasureText@Context2d@@SAXABV?$FunctionCallbackInfo@VValue@v8@@@Nan@@@Z 10041a98     CanvasRenderingContext2d.obj
 0002:00011aa0       __ehfuncinfo$?MeasureText@Context2d@@SAXABV?$FunctionCallbackInfo@VValue@v8@@@Nan@@@Z 10041aa0     CanvasRenderingContext2d.obj
 0002:00011ac4       __unwindtable$?SetLineDash@Context2d@@SAXABV?$FunctionCallbackInfo@VValue@v8@@@Nan@@@Z 10041ac4     CanvasRenderingContext2d.obj
 0002:00011acc       __ehfuncinfo$?SetLineDash@Context2d@@SAXABV?$FunctionCallbackInfo@VValue@v8@@@Nan@@@Z 10041acc     CanvasRenderingContext2d.obj
 0002:00011af0       __unwindtable$?GetLineDash@Context2d@@SAXABV?$FunctionCallbackInfo@VValue@v8@@@Nan@@@Z 10041af0     CanvasRenderingContext2d.obj
 0002:00011af8       __ehfuncinfo$?GetLineDash@Context2d@@SAXABV?$FunctionCallbackInfo@VValue@v8@@@Nan@@@Z 10041af8     CanvasRenderingContext2d.obj
 0002:00011b1c       __unwindtable$?SetSource@Image@@SAXV?$Local@VString@v8@@@v8@@V?$Local@VValue@v8@@@3@ABV?$PropertyCallbackInfo@X@Nan@@@Z 10041b1c     Image.obj
 0002:00011b24       __ehfuncinfo$?SetSource@Image@@SAXV?$Local@VString@v8@@@v8@@V?$Local@VValue@v8@@@3@ABV?$PropertyCallbackInfo@X@Nan@@@Z 10041b24     Image.obj
 0002:00011b48       __unwindtable$?loaded@Image@@QAEXXZ 10041b48     Image.obj
 0002:00011b50       __ehfuncinfo$?loaded@Image@@QAEXXZ 10041b50     Image.obj
 0002:00011c60       __sehtable$___scrt_is_nonwritable_in_current_image 10041c60     LIBCMT:utility.obj
 0002:00011c80       __sehtable$?dllmain_crt_process_attach@@YAHQAUHINSTANCE__@@QAX@Z 10041c80     LIBCMT:dll_dllmain.obj
 0002:00011ca0       __sehtable$?dllmain_crt_process_detach@@YAH_N@Z 10041ca0     LIBCMT:dll_dllmain.obj
 0002:00011cc0       __sehtable$?dllmain_dispatch@@YAHQAUHINSTANCE__@@KQAX@Z 10041cc0     LIBCMT:dll_dllmain.obj
 0002:00011d18       __sehtable$___FrameUnwindToState 10041d18     libvcruntime:frame.obj
 0002:00011d40       __sehtable$?CallCatchBlock@@YAPAXPAUEHExceptionRecord@@PAUEHRegistrationNode@@PAU_CONTEXT@@PBU_s_FuncInfo@@PAXHK@Z 10041d40     libvcruntime:frame.obj
 0002:00011d68       __sehtable$___BuildCatchObject 10041d68     libvcruntime:frame.obj
 0002:00011d88       __sehtable$___DestructExceptionObject 10041d88     libvcruntime:frame.obj
 0002:00011da4       __catchsym$?CallUnexpected@@YAXPBU_s_ESTypeList@@@Z$2 10041da4     libvcruntime:frame.obj
 0002:00011db4       __unwindtable$?CallUnexpected@@YAXPBU_s_ESTypeList@@@Z 10041db4     libvcruntime:frame.obj
 0002:00011dc4       __tryblocktable$?CallUnexpected@@YAXPBU_s_ESTypeList@@@Z 10041dc4     libvcruntime:frame.obj
 0002:00011dd8       __ehfuncinfo$?CallUnexpected@@YAXPBU_s_ESTypeList@@@Z 10041dd8     libvcruntime:frame.obj
 0002:00011e00       __sehtable$___BuildCatchObjectHelper 10041e00     libvcruntime:frame.obj
 0002:00011e58       __sehtable$__rt_probe_read4@4 10041e58     libvcruntime:_sehsupp_.obj
 0002:00011e78       __sehtable$??$?RV<lambda_ab9923ffb5d694ec0d78876dd103e44f>@@AAV<lambda_481dd5778c961fbcd3b60b650e9b9dc4>@@V<lambda_7923d86c9e3f319b415918ec4b39749c>@@@?$__crt_seh_guarded_call@H@@QAEH$$QAV<lambda_ab9923ffb5d694ec0d78876dd103e44f>@@AAV<lambda_481dd5778c961fbcd3b60b650e9b9dc4>@@$$QAV<lambda_7923d86c9e3f319b415918ec4b39749c>@@@Z 10041e78     libucrt:output.obj
 0002:00011e98       __sehtable$??$common_ftell@J@@YAJV__crt_stdio_stream@@@Z 10041e98     libucrt:ftell.obj
 0002:00011eb8       __sehtable$??$common_fsopen@D@@YAPAU_iobuf@@QBD0H@Z 10041eb8     libucrt:fopen.obj
 0002:00011ed8       __sehtable$_fclose         10041ed8     libucrt:fclose.obj
 0002:00011ef8       __sehtable$?common_fseek@@YAHV__crt_stdio_stream@@_JH@Z 10041ef8     libucrt:fseek.obj
 0002:00011f18       __sehtable$_fread_s        10041f18     libucrt:fread.obj
 0002:00011f38       __sehtable$__query_new_handler 10041f38     libucrt:new_handler.obj
 0002:00011f58       __sehtable$?common_exit@@YAXHW4_crt_exit_cleanup_mode@@W4_crt_exit_return_mode@@@Z 10041f58     libucrt:exit.obj
 0002:00011f80       __sehtable$??$?RV<lambda_800076c951b434888f4765a74a194fcc>@@AAV<lambda_4e60a939b0d047cfe11ddc22648dfba9>@@V<lambda_6dbb1268764f43b569ce7b67e331d33a>@@@?$__crt_seh_guarded_call@H@@QAEH$$QAV<lambda_800076c951b434888f4765a74a194fcc>@@AAV<lambda_4e60a939b0d047cfe11ddc22648dfba9>@@$$QAV<lambda_6dbb1268764f43b569ce7b67e331d33a>@@@Z 10041f80     libucrt:onexit.obj
 0002:00011fa0       __sehtable$??$?RV<lambda_995298e7d72eb4c2aab26c0585b3abe5>@@AAV<lambda_275893d493268fdec8709772e3fcec0e>@@V<lambda_293819299cbf9a7022e18b56a874bb5c>@@@?$__crt_seh_guarded_call@H@@QAEH$$QAV<lambda_995298e7d72eb4c2aab26c0585b3abe5>@@AAV<lambda_275893d493268fdec8709772e3fcec0e>@@$$QAV<lambda_293819299cbf9a7022e18b56a874bb5c>@@@Z 10041fa0     libucrt:onexit.obj
 0002:00011fc0       __sehtable$_terminate      10041fc0     libucrt:terminate.obj
 0002:00011fe0       __sehtable$_raise          10041fe0     libucrt:signal.obj
 0002:00012000       __sehtable$??$?RV<lambda_a048d3beccc847880fc8490e18b82769>@@AAV<lambda_ec61778202f4f5fc7e7711acc23c3bca>@@V<lambda_f7496a158712204296dd6628a163878e>@@@?$__crt_seh_guarded_call@P6AXH@Z@@QAEP6AXH@Z$$QAV<lambda_a048d3beccc847880fc8490e18b82769>@@AAV<lambda_ec61778202f4f5fc7e7711acc23c3bca>@@$$QAV<lambda_f7496a158712204296dd6628a163878e>@@@Z 10042000     libucrt:signal.obj
 0002:00012020       __sehtable$??$?RV<lambda_9df27f884b057bc3edfc946cb5b7cf47>@@AAV<lambda_e69574bed617af4e071282c136b37893>@@V<lambda_cc0d902bcbbeb830f749456577db4721>@@@?$__crt_seh_guarded_call@X@@QAEX$$QAV<lambda_9df27f884b057bc3edfc946cb5b7cf47>@@AAV<lambda_e69574bed617af4e071282c136b37893>@@$$QAV<lambda_cc0d902bcbbeb830f749456577db4721>@@@Z 10042020     libucrt:per_thread_data.obj
 0002:00012040       __sehtable$??$?RV<lambda_3518db117f0e7cdb002338c5d3c47b6c>@@AAV<lambda_b2ea41f6bbb362cd97d94c6828d90b61>@@V<lambda_abdedf541bb04549bc734292b4a045d4>@@@?$__crt_seh_guarded_call@X@@QAEX$$QAV<lambda_3518db117f0e7cdb002338c5d3c47b6c>@@AAV<lambda_b2ea41f6bbb362cd97d94c6828d90b61>@@$$QAV<lambda_abdedf541bb04549bc734292b4a045d4>@@@Z 10042040     libucrt:per_thread_data.obj
 0002:00012060       __sehtable$??$?RV<lambda_51b6e8b1eb166f2a3faf91f424b38130>@@AAV<lambda_6250bd4b2a391816dd638c3bf72b0bcb>@@V<lambda_0b5a4a3e68152e1d9b943535f5f47bed>@@@?$__crt_seh_guarded_call@X@@QAEX$$QAV<lambda_51b6e8b1eb166f2a3faf91f424b38130>@@AAV<lambda_6250bd4b2a391816dd638c3bf72b0bcb>@@$$QAV<lambda_0b5a4a3e68152e1d9b943535f5f47bed>@@@Z 10042060     libucrt:per_thread_data.obj
 0002:00012080       __sehtable$??$?RV<lambda_5b71d36f03204c0beab531769a5b5694>@@AAV<lambda_be2b3da3f62db62e9dad5dc70221a656>@@V<lambda_8f9ce462984622f9bf76b59e2aaaf805>@@@?$__crt_seh_guarded_call@X@@QAEX$$QAV<lambda_5b71d36f03204c0beab531769a5b5694>@@AAV<lambda_be2b3da3f62db62e9dad5dc70221a656>@@$$QAV<lambda_8f9ce462984622f9bf76b59e2aaaf805>@@@Z 10042080     libucrt:per_thread_data.obj
 0002:000120a0       __sehtable$_fflush         100420a0     libucrt:fflush.obj
 0002:000120c0       __sehtable$_common_flush_all 100420c0     libucrt:fflush.obj
 0002:000120e8       __sehtable$??$?RV<lambda_d92cfe8357b99225085016881b624cb0>@@AAV<lambda_b721fa326cdb32351d23dfa67958c160>@@V<lambda_42d75b0848218ec137fa420c8ba9fdf9>@@@?$__crt_seh_guarded_call@H@@QAEH$$QAV<lambda_d92cfe8357b99225085016881b624cb0>@@AAV<lambda_b721fa326cdb32351d23dfa67958c160>@@$$QAV<lambda_42d75b0848218ec137fa420c8ba9fdf9>@@@Z 100420e8     libucrt:setvbuf.obj
 0002:00012108       __sehtable$__fcloseall     10042108     libucrt:closeall.obj
 0002:00012128       __sehtable$___acrt_initialize_lowio 10042128     libucrt:ioinit.obj
 0002:00012148       __sehtable$___acrt_uninitialize_locale 10042148     libucrt:wsetlocale.obj
 0002:00012168       __sehtable$??$common_lseek@_J@@YA_JH_JH@Z 10042168     libucrt:lseek.obj
 0002:00012188       __sehtable$__read          10042188     libucrt:read.obj
 0002:000121a8       __sehtable$?__acrt_stdio_allocate_stream@@YA?AV__crt_stdio_stream@@XZ 100421a8     libucrt:stream.obj
 0002:000121c8       __sehtable$??$?RV<lambda_123407a5e2ac06da108355a851863b7a>@@AAV<lambda_2fe9b910cf3cbf4a0ab98a02ba45b3ec>@@V<lambda_ae55bdf541ad94d75914d381c370e64d>@@@?$__crt_seh_guarded_call@H@@QAEH$$QAV<lambda_123407a5e2ac06da108355a851863b7a>@@AAV<lambda_2fe9b910cf3cbf4a0ab98a02ba45b3ec>@@$$QAV<lambda_ae55bdf541ad94d75914d381c370e64d>@@@Z 100421c8     libucrt:close.obj
 0002:000121e8       __sehtable$___acrt_update_thread_multibyte_data 100421e8     libucrt:mbctype.obj
 0002:00012208       __sehtable$??$?RV<lambda_978dc153c237d78434369da87b74ff60>@@AAV<lambda_ad1ced32f4ac17aa236e5ef05d6b3b7c>@@V<lambda_4a8533e2866a575feecb8298ce776b0d>@@@?$__crt_seh_guarded_call@X@@QAEX$$QAV<lambda_978dc153c237d78434369da87b74ff60>@@AAV<lambda_ad1ced32f4ac17aa236e5ef05d6b3b7c>@@$$QAV<lambda_4a8533e2866a575feecb8298ce776b0d>@@@Z 10042208     libucrt:mbctype.obj
 0002:00012228       __sehtable$___acrt_update_thread_locale_data 10042228     libucrt:locale_refcounting.obj
 0002:00012248       __sehtable$??$?RV<lambda_61cee617f5178ae960314fd4d05640a0>@@AAV<lambda_6978c1fb23f02e42e1d9e99668cc68aa>@@V<lambda_9cd88cf8ad10232537feb2133f08c833>@@@?$__crt_seh_guarded_call@H@@QAEH$$QAV<lambda_61cee617f5178ae960314fd4d05640a0>@@AAV<lambda_6978c1fb23f02e42e1d9e99668cc68aa>@@$$QAV<lambda_9cd88cf8ad10232537feb2133f08c833>@@@Z 10042248     libucrt:commit.obj
 0002:00012268       __sehtable$__write         10042268     libucrt:write.obj
 0002:00012288       __sehtable$__alloc_osfhnd  10042288     libucrt:osfinfo.obj
 0002:000122a8       __sehtable$___acrt_lowio_ensure_fh_exists 100422a8     libucrt:osfinfo.obj
 0002:000122c8       __sehtable$??$common_sopen_dispatch@D@@YAHQBDHHHQAHH@Z 100422c8     libucrt:open.obj
 0002:000122e8       __sehtable$__IsNonwritableInCurrentImage 100422e8     LIBCMT:pesect.obj
 0002:00013ff0       .edata                     10043ff0     canvas.exp
 0002:00014018       rgpv                       10044018     canvas.exp
 0002:0001401c       rgszName                   1004401c     canvas.exp
 0002:00014020       rgwOrd                     10044020     canvas.exp
 0002:00014022       szName                     10044022     canvas.exp
 0002:0001402e       $N00001                    1004402e     canvas.exp
 0002:000145b0       .idata$6                   100445b0     kernel32:KERNEL32.dll
 0002:000145d4       .idata$6                   100445d4     gdi32:GDI32.dll
 0002:00014f72       .idata$6                   10044f72     cairo:libcairo-2.dll
 0002:0001514c       .idata$6                   1004514c     libpng:libpng14-14.dll
 0002:000151ec       .idata$6                   100451ec     pangocairo-1.0:libpangocairo-1.0-0.dll
 0002:0001555c       .idata$6                   1004555c     pango-1.0:libpango-1.0-0.dll
 0002:000155f8       .idata$6                   100455f8     freetype:freetype6.dll
 0002:00015758       .idata$6                   10045758     glib-2.0:libglib-2.0-0.dll
 0002:0001577c       .idata$6                   1004577c     gobject-2.0:libgobject-2.0-0.dll
 0002:00015792       .idata$6                   10045792     jpeg:jpeg62.dll
 0003:00000000       ?init@std@@3JA             10046000     libcpmt:xlock.obj
 0003:00000008       ?atcount_cdecl@@3IA        10046008     libcpmt:iosptrs.obj
 0003:00000090       ?__vcrt_flsindex@@3KA      10046090     libvcruntime:per_thread_data.obj
 0003:00000164       _errno_no_memory           10046164     libucrt:errno.obj
 0003:00000168       _doserrno_no_memory        10046168     libucrt:errno.obj
 0003:000001d0       ___acrt_flsindex           100461d0     libucrt:per_thread_data.obj
 0003:000003e0       _tzstd_program             100463e0     libucrt:timeset.obj
 0003:00000420       _tzdst_program             10046420     libucrt:timeset.obj
 0003:00000460       _tzname_states             10046460     libucrt:timeset.obj
 0003:00000468       ___rgctypeflag             10046468     libucrt:mbctype.obj
 0003:00000470       ___rgcode_page_info        10046470     libucrt:mbctype.obj
 0003:000009a0       __module                   100469a0     init.obj
 0003:00000c68       ?initlocks@std@@3V_Init_locks@1@A 10046c68     libcpmt:xlock.obj
 0003:00000c70       ?mtx@std@@3PAU_RTL_CRITICAL_SECTION@@A 10046c70     libcpmt:xlock.obj
 0003:00000d38       _global_locale             10046d38     libcpmt:locale0.obj
 0003:00000d3c       ?_Fac_head@std@@3PAU_Fac_node@1@A 10046d3c     libcpmt:locale0.obj
 0003:00000d54       ?classic_locale@std@@3Vlocale@1@A 10046d54     libcpmt:locale0.obj
 0003:00000d5c       ?_Fac_tidy_reg@std@@3U_Fac_tidy_reg_t@1@B 10046d5c     libcpmt:locale0.obj
 0003:00000d64       ?stdstr@std@@3PAPAVios_base@1@A 10046d64     libcpmt:ios.obj
 0003:00000d8c       ?stdopens@std@@3PADA       10046d8c     libcpmt:ios.obj
 0003:00000dbc       ?atfuns_cdecl@@3PAP6AXXZA  10046dbc     libcpmt:iosptrs.obj
 0003:00000de4       ?initlocks@std@@3V_Init_locks@1@A 10046de4     libcpmt:iosptrs.obj
 0003:00000de5       ?init_atexit@@3U_Init_atexit@@A 10046de5     libcpmt:iosptrs.obj
 0003:00000f10       ?_Tss_mutex@@3U_RTL_CRITICAL_SECTION@@A 10046f10     LIBCMT:thread_safe_statics.obj
 0003:00000f28       ?_Tss_cv@@3U_RTL_CONDITION_VARIABLE@@A 10046f28     LIBCMT:thread_safe_statics.obj
 0003:00000f2c       ?_Tss_event@@3PAXA         10046f2c     LIBCMT:thread_safe_statics.obj
 0003:00000f30       ?encoded_sleep_condition_variable_cs@@3P6GHPAU_RTL_CONDITION_VARIABLE@@PAU_RTL_CRITICAL_SECTION@@K@ZA 10046f30     LIBCMT:thread_safe_statics.obj
 0003:00000f34       ?encoded_wake_all_condition_variable@@3P6GXPAU_RTL_CONDITION_VARIABLE@@@ZA 10046f34     LIBCMT:thread_safe_statics.obj
 0003:00000f40       ?module_local_atexit_table@@3U_onexit_table_t@@A 10046f40     LIBCMT:utility.obj
 0003:00000f4c       ?module_local_at_quick_exit_table@@3U_onexit_table_t@@A 10046f4c     LIBCMT:utility.obj
 0003:00000f58       ?is_initialized_as_dll@@3_NA 10046f58     LIBCMT:utility.obj
 0003:00000f5c       ?__proc_attached@@3HA      10046f5c     LIBCMT:dll_dllmain.obj
 0003:00000f60       _GS_ExceptionRecord        10046f60     LIBCMT:gs_report.obj
 0003:00000fb0       _GS_ContextRecord          10046fb0     LIBCMT:gs_report.obj
 0003:000012a4       ?module_handles@@3PAPAUHINSTANCE__@@A 100472a4     libvcruntime:winapi_downlevel.obj
 0003:000012b4       ?encoded_function_pointers@@3PAPAXA 100472b4     libvcruntime:winapi_downlevel.obj
 0003:000012dc       ?__vcrt_startup_thread_ptd@@3U__vcrt_ptd@@A 100472dc     libvcruntime:per_thread_data.obj
 0003:00001304       ___vcrt_lock_table         10047304     libvcruntime:locks.obj
 0003:0000131c       ___vcrt_locks_initialized  1004731c     libvcruntime:locks.obj
 0003:00001348       ?heap@@3V_HeapManager@@A   10047348     libvcruntime:undname.obj
 0003:0000135c       ___acrt_invalid_parameter_handler 1004735c     libucrt:invalid_parameter.obj
 0003:00001370       ___acrt_lock_table         10047370     libucrt:locks.obj
 0003:000014a8       ___acrt_locks_initialized  100474a8     libucrt:locks.obj
 0003:000014b4       ___acrt_new_handler        100474b4     libucrt:new_handler.obj
 0003:000014b8       _c_termination_complete    100474b8     libucrt:exit.obj
 0003:000014bc       _thread_local_exit_callback_func 100474bc     libucrt:exit.obj
 0003:000014c0       ?c_exit_complete@?5??common_exit@@YAXHW4_crt_exit_cleanup_mode@@W4_crt_exit_return_mode@@@Z@4_NA 100474c0     libucrt:exit.obj
 0003:000014c8       ?program_name@?5???$common_configure_argv@D@@YAHW4_crt_argv_mode@@@Z@4PADA 100474c8     libucrt:argv_parsing.obj
 0003:000015f8       _ctrlc_action              100475f8     libucrt:signal.obj
 0003:000015fc       _ctrlbreak_action          100475fc     libucrt:signal.obj
 0003:00001600       _abort_action              10047600     libucrt:signal.obj
 0003:00001604       _term_action               10047604     libucrt:signal.obj
 0003:00001608       ___acrt_app_type           10047608     libucrt:report_runtime_error.obj
 0003:0000160c       ___acrt_error_mode         1004760c     libucrt:set_error_mode.obj
 0003:00001610       _module_handles            10047610     libucrt:winapi_thunks.obj
 0003:00001660       _encoded_function_pointers 10047660     libucrt:winapi_thunks.obj
 0003:000016e0       ?state_cache@?1??__acrt_is_packaged_app@@9@4JA 100476e0     libucrt:winapi_thunks.obj
 0003:000018ec       _enable_percent_n          100478ec     libucrt:printf_count_output.obj
 0003:00001900       ___acrt_global_new_mode    10047900     libucrt:new_mode.obj
 0003:00001918       __tzname                   10047918     libucrt:timeset.obj
 0003:00001920       _tz_api_used               10047920     libucrt:tzset.obj
 0003:00001928       _tz_info                   10047928     libucrt:tzset.obj
 0003:000019ec       _fSystemSet                100479ec     libucrt:mbctype.obj
 0003:000019f0       ?initialized@?1??__acrt_initialize_multibyte@@9@4_NA 100479f0     libucrt:mbctype.obj
 0003:00001a0c       _user_matherr              10047a0c     libucrt:matherr.obj
 0003:00001a14       __pmatherr_set             10047a14     libucrt:libm_error.obj
 0004:00000000       __guard_fids____dcrt_uninitialize_environments_nolock 10048000     libucrt:environment_initialization.obj
 0004:00000008       __guard_fids__             10048008     libucrt:initialization.obj
 0004:00000068       __guard_fids____acrt_initialize_ptd 10048068     libucrt:per_thread_data.obj
 0004:0000006c       __guard_fids_??$common_show_message_box@_W@@YAHQB_W0I@Z 1004806c     libucrt:crtmbox.obj
 0004:00000070       __guard_fids__             10048070     libucrt:stdio_initializer.obj
 0004:00000074       __guard_fids__             10048074     libucrt:stdio_initializer.obj
 0004:00000078       __guard_fids_??$expand_argument_wildcards@D@@YAHQAD0AAV?$argument_list@D@?A0xb0e4b824@@@Z 10048078     libucrt:argv_wildcards.obj
 0004:0000007c       __guard_fids__             1004807c     libucrt:locale_initializer.obj
 0004:00000080       __guard_fids__             10048080     libucrt:sse2_initializer.obj
 0004:00000084       __guard_fids____libm_error_support 10048084     libucrt:libm_error.obj
 0004:00000088       __guard_fids__             10048088     libucrt:timeset_initializer.obj
 0004:0000008c       __guard_fids__             1004808c     libucrt:multibyte_initializer.obj
 0004:00000090       __guard_fids__             10048090     libucrt:console_output_initializer.obj
 0004:00000094       __guard_fids_??__Einitlocks@std@@YAXXZ 10048094     libcpmt:xlock.obj
 0004:00000098       __guard_fids__             10048098     libcpmt:xlock.obj
 0004:0000009c       __guard_fids_??__E_Fac_tidy_reg@std@@YAXXZ 1004809c     libcpmt:locale0.obj
 0004:000000a0       __guard_fids_??__Eclassic_locale@std@@YAXXZ 100480a0     libcpmt:locale0.obj
 0004:000000a4       __guard_fids__             100480a4     libcpmt:locale0.obj
 0004:000000a8       __guard_fids__             100480a8     libcpmt:locale0.obj
 0004:000000ac       __guard_fids__             100480ac     libcpmt:xthrow.obj
 0004:000000b4       __guard_fids__             100480b4     libcpmt:xthrow.obj
 0004:000000bc       __guard_fids__             100480bc     libcpmt:xthrow.obj
 0004:000000c4       __guard_fids__             100480c4     libcpmt:xthrow.obj
 0004:000000cc       __guard_fids__             100480cc     libcpmt:xthrow.obj
 0004:000000d4       __guard_fids__             100480d4     libcpmt:xthrow.obj
 0004:000000d8       __guard_fids__             100480d8     libcpmt:xthrow.obj
 0004:000000dc       __guard_fids__             100480dc     libcpmt:xthrow.obj
 0004:000000e0       __guard_fids__             100480e0     libcpmt:xthrow.obj
 0004:000000e4       __guard_fids__             100480e4     libcpmt:xthrow.obj
 0004:000000e8       __guard_fids__             100480e8     libcpmt:xthrow.obj
 0004:000000ec       __guard_fids__             100480ec     libcpmt:xthrow.obj
 0004:000000f0       __guard_fids__             100480f0     libcpmt:xthrow.obj
 0004:000000f4       __guard_fids_??__Einitlocks@std@@YAXXZ 100480f4     libcpmt:iosptrs.obj
 0004:000000f8       __guard_fids_??__Einit_atexit@@YAXXZ 100480f8     libcpmt:iosptrs.obj
 0004:000000fc       __guard_fids__             100480fc     libcpmt:iosptrs.obj
 0004:00000100       __guard_fids__             10048100     libcpmt:iosptrs.obj
 0004:00000104       __guard_fids__             10048104     libcpmt:winapisupp.obj
 0004:00000108       __guard_fids__             10048108     LIBCMT:thread_safe_statics.obj
 0004:0000010c       __guard_fids_?__scrt_initialize_thread_safe_statics@@YAHXZ 1004810c     LIBCMT:thread_safe_statics.obj
 0004:00000110       __guard_fids_?dllmain_crt_process_attach@@YAHQAUHINSTANCE__@@QAX@Z 10048110     LIBCMT:dll_dllmain.obj
 0004:00000118       __guard_fids_?dllmain_dispatch@@YAHQAUHINSTANCE__@@KQAX@Z 10048118     LIBCMT:dll_dllmain.obj
 0004:0000011c       __guard_fids__             1004811c     LIBCMT:std_type_info_static.obj
 0004:00000120       __guard_fids__             10048120     LIBCMT:throw_bad_alloc.obj
 0004:00000128       __guard_fids__             10048128     LIBCMT:throw_bad_alloc.obj
 0004:0000012c       __guard_fids__             1004812c     LIBCMT:throw_bad_alloc.obj
 0004:00000130       __guard_fids__             10048130     LIBCMT:guard_support.obj
 0004:00000134       __guard_fids__             10048134     libvcruntime:frame.obj
 0004:00000138       __guard_fids__             10048138     libvcruntime:frame.obj
 0004:00000140       __guard_fids__             10048140     libvcruntime:frame.obj
 0004:00000144       __guard_fids__             10048144     libvcruntime:frame.obj
 0004:00000148       __guard_fids____vcrt_initialize_ptd 10048148     libvcruntime:per_thread_data.obj
 0006:00000060       $R000000                   1004a060     * linker generated manifest res *

 Exports

  ordinal    name

        1    __register_canvas_
               exported name: _register_canvas_
